ARM GAS  /tmp/ccOARe22.s 			page 1


   1              		.cpu cortex-m0plus
   2              		.arch armv6s-m
   3              		.fpu softvfp
   4              		.eabi_attribute 20, 1
   5              		.eabi_attribute 21, 1
   6              		.eabi_attribute 23, 3
   7              		.eabi_attribute 24, 1
   8              		.eabi_attribute 25, 1
   9              		.eabi_attribute 26, 1
  10              		.eabi_attribute 30, 1
  11              		.eabi_attribute 34, 0
  12              		.eabi_attribute 18, 4
  13              		.file	"stm32l0xx_hal_rcc.c"
  14              		.text
  15              	.Ltext0:
  16              		.cfi_sections	.debug_frame
  17              		.file 1 "Drivers/STM32L0xx_HAL_Driver/Src/stm32l0xx_hal_rcc.c"
  18              		.section	.text.HAL_RCC_DeInit,"ax",%progbits
  19              		.align	1
  20              		.global	HAL_RCC_DeInit
  21              		.syntax unified
  22              		.code	16
  23              		.thumb_func
  25              	HAL_RCC_DeInit:
  26              	.LFB40:
   1:Drivers/STM32L0xx_HAL_Driver/Src/stm32l0xx_hal_rcc.c **** /**
   2:Drivers/STM32L0xx_HAL_Driver/Src/stm32l0xx_hal_rcc.c ****   ******************************************************************************
   3:Drivers/STM32L0xx_HAL_Driver/Src/stm32l0xx_hal_rcc.c ****   * @file    stm32l0xx_hal_rcc.c
   4:Drivers/STM32L0xx_HAL_Driver/Src/stm32l0xx_hal_rcc.c ****   * @author  MCD Application Team
   5:Drivers/STM32L0xx_HAL_Driver/Src/stm32l0xx_hal_rcc.c ****   * @brief   RCC HAL module driver.
   6:Drivers/STM32L0xx_HAL_Driver/Src/stm32l0xx_hal_rcc.c ****   *          This file provides firmware functions to manage the following
   7:Drivers/STM32L0xx_HAL_Driver/Src/stm32l0xx_hal_rcc.c ****   *          functionalities of the Reset and Clock Control (RCC) peripheral:
   8:Drivers/STM32L0xx_HAL_Driver/Src/stm32l0xx_hal_rcc.c ****   *           + Initialization and de-initialization functions
   9:Drivers/STM32L0xx_HAL_Driver/Src/stm32l0xx_hal_rcc.c ****   *           + Peripheral Control functions
  10:Drivers/STM32L0xx_HAL_Driver/Src/stm32l0xx_hal_rcc.c ****   *
  11:Drivers/STM32L0xx_HAL_Driver/Src/stm32l0xx_hal_rcc.c ****   @verbatim
  12:Drivers/STM32L0xx_HAL_Driver/Src/stm32l0xx_hal_rcc.c ****   ==============================================================================
  13:Drivers/STM32L0xx_HAL_Driver/Src/stm32l0xx_hal_rcc.c ****                       ##### RCC specific features #####
  14:Drivers/STM32L0xx_HAL_Driver/Src/stm32l0xx_hal_rcc.c ****   ==============================================================================
  15:Drivers/STM32L0xx_HAL_Driver/Src/stm32l0xx_hal_rcc.c ****     [..]
  16:Drivers/STM32L0xx_HAL_Driver/Src/stm32l0xx_hal_rcc.c ****       After reset the device is running from multispeed internal oscillator clock
  17:Drivers/STM32L0xx_HAL_Driver/Src/stm32l0xx_hal_rcc.c ****       (MSI 2.097MHz) with Flash 0 wait state and Flash prefetch buffer is disabled,
  18:Drivers/STM32L0xx_HAL_Driver/Src/stm32l0xx_hal_rcc.c ****       and all peripherals are off except internal SRAM, Flash and JTAG.
  19:Drivers/STM32L0xx_HAL_Driver/Src/stm32l0xx_hal_rcc.c ****       (+) There is no prescaler on High speed (AHB) and Low speed (APB) buses;
  20:Drivers/STM32L0xx_HAL_Driver/Src/stm32l0xx_hal_rcc.c ****           all peripherals mapped on these buses are running at MSI speed.
  21:Drivers/STM32L0xx_HAL_Driver/Src/stm32l0xx_hal_rcc.c ****       (+) The clock for all peripherals is switched off, except the SRAM and FLASH.
  22:Drivers/STM32L0xx_HAL_Driver/Src/stm32l0xx_hal_rcc.c ****       (+) All GPIOs are in input floating state, except the JTAG pins which
  23:Drivers/STM32L0xx_HAL_Driver/Src/stm32l0xx_hal_rcc.c ****           are assigned to be used for debug purpose.
  24:Drivers/STM32L0xx_HAL_Driver/Src/stm32l0xx_hal_rcc.c ****     [..] Once the device started from reset, the user application has to:
  25:Drivers/STM32L0xx_HAL_Driver/Src/stm32l0xx_hal_rcc.c ****       (+) Configure the clock source to be used to drive the System clock
  26:Drivers/STM32L0xx_HAL_Driver/Src/stm32l0xx_hal_rcc.c ****           (if the application needs higher frequency/performance)
  27:Drivers/STM32L0xx_HAL_Driver/Src/stm32l0xx_hal_rcc.c ****       (+) Configure the System clock frequency and Flash settings
  28:Drivers/STM32L0xx_HAL_Driver/Src/stm32l0xx_hal_rcc.c ****       (+) Configure the AHB and APB buses prescalers
  29:Drivers/STM32L0xx_HAL_Driver/Src/stm32l0xx_hal_rcc.c ****       (+) Enable the clock for the peripheral(s) to be used
  30:Drivers/STM32L0xx_HAL_Driver/Src/stm32l0xx_hal_rcc.c ****       (+) Configure the clock source(s) for peripherals whose clocks are not
  31:Drivers/STM32L0xx_HAL_Driver/Src/stm32l0xx_hal_rcc.c ****           derived from the System clock (I2S, RTC, ADC, USB OTG FS/SDIO/RNG)
  32:Drivers/STM32L0xx_HAL_Driver/Src/stm32l0xx_hal_rcc.c ****           (*) SDIO only for STM32L0xxxD devices
ARM GAS  /tmp/ccOARe22.s 			page 2


  33:Drivers/STM32L0xx_HAL_Driver/Src/stm32l0xx_hal_rcc.c **** 
  34:Drivers/STM32L0xx_HAL_Driver/Src/stm32l0xx_hal_rcc.c ****                       ##### RCC Limitations #####
  35:Drivers/STM32L0xx_HAL_Driver/Src/stm32l0xx_hal_rcc.c ****   ==============================================================================
  36:Drivers/STM32L0xx_HAL_Driver/Src/stm32l0xx_hal_rcc.c ****     [..]
  37:Drivers/STM32L0xx_HAL_Driver/Src/stm32l0xx_hal_rcc.c ****       A delay between an RCC peripheral clock enable and the effective peripheral
  38:Drivers/STM32L0xx_HAL_Driver/Src/stm32l0xx_hal_rcc.c ****       enabling should be taken into account in order to manage the peripheral read/write
  39:Drivers/STM32L0xx_HAL_Driver/Src/stm32l0xx_hal_rcc.c ****       from/to registers.
  40:Drivers/STM32L0xx_HAL_Driver/Src/stm32l0xx_hal_rcc.c ****       (+) This delay depends on the peripheral mapping.
  41:Drivers/STM32L0xx_HAL_Driver/Src/stm32l0xx_hal_rcc.c ****         (++) AHB & APB peripherals, 1 dummy read is necessary
  42:Drivers/STM32L0xx_HAL_Driver/Src/stm32l0xx_hal_rcc.c **** 
  43:Drivers/STM32L0xx_HAL_Driver/Src/stm32l0xx_hal_rcc.c ****     [..]
  44:Drivers/STM32L0xx_HAL_Driver/Src/stm32l0xx_hal_rcc.c ****       Workarounds:
  45:Drivers/STM32L0xx_HAL_Driver/Src/stm32l0xx_hal_rcc.c ****       (#) For AHB & APB peripherals, a dummy read to the peripheral register has been
  46:Drivers/STM32L0xx_HAL_Driver/Src/stm32l0xx_hal_rcc.c ****           inserted in each __HAL_RCC_PPP_CLK_ENABLE() macro.
  47:Drivers/STM32L0xx_HAL_Driver/Src/stm32l0xx_hal_rcc.c **** 
  48:Drivers/STM32L0xx_HAL_Driver/Src/stm32l0xx_hal_rcc.c ****   @endverbatim
  49:Drivers/STM32L0xx_HAL_Driver/Src/stm32l0xx_hal_rcc.c ****   ******************************************************************************
  50:Drivers/STM32L0xx_HAL_Driver/Src/stm32l0xx_hal_rcc.c ****   * @attention
  51:Drivers/STM32L0xx_HAL_Driver/Src/stm32l0xx_hal_rcc.c ****   *
  52:Drivers/STM32L0xx_HAL_Driver/Src/stm32l0xx_hal_rcc.c ****   * Copyright (c) 2016 STMicroelectronics.
  53:Drivers/STM32L0xx_HAL_Driver/Src/stm32l0xx_hal_rcc.c ****   * All rights reserved.
  54:Drivers/STM32L0xx_HAL_Driver/Src/stm32l0xx_hal_rcc.c ****   *
  55:Drivers/STM32L0xx_HAL_Driver/Src/stm32l0xx_hal_rcc.c ****   * This software is licensed under terms that can be found in the LICENSE file in
  56:Drivers/STM32L0xx_HAL_Driver/Src/stm32l0xx_hal_rcc.c ****   * the root directory of this software component.
  57:Drivers/STM32L0xx_HAL_Driver/Src/stm32l0xx_hal_rcc.c ****   * If no LICENSE file comes with this software, it is provided AS-IS.
  58:Drivers/STM32L0xx_HAL_Driver/Src/stm32l0xx_hal_rcc.c ****   ******************************************************************************
  59:Drivers/STM32L0xx_HAL_Driver/Src/stm32l0xx_hal_rcc.c **** */
  60:Drivers/STM32L0xx_HAL_Driver/Src/stm32l0xx_hal_rcc.c **** 
  61:Drivers/STM32L0xx_HAL_Driver/Src/stm32l0xx_hal_rcc.c **** /* Includes ------------------------------------------------------------------*/
  62:Drivers/STM32L0xx_HAL_Driver/Src/stm32l0xx_hal_rcc.c **** #include "stm32l0xx_hal.h"
  63:Drivers/STM32L0xx_HAL_Driver/Src/stm32l0xx_hal_rcc.c **** 
  64:Drivers/STM32L0xx_HAL_Driver/Src/stm32l0xx_hal_rcc.c **** /** @addtogroup STM32L0xx_HAL_Driver
  65:Drivers/STM32L0xx_HAL_Driver/Src/stm32l0xx_hal_rcc.c ****   * @{
  66:Drivers/STM32L0xx_HAL_Driver/Src/stm32l0xx_hal_rcc.c ****   */
  67:Drivers/STM32L0xx_HAL_Driver/Src/stm32l0xx_hal_rcc.c **** 
  68:Drivers/STM32L0xx_HAL_Driver/Src/stm32l0xx_hal_rcc.c **** /** @defgroup RCC RCC
  69:Drivers/STM32L0xx_HAL_Driver/Src/stm32l0xx_hal_rcc.c **** * @brief RCC HAL module driver
  70:Drivers/STM32L0xx_HAL_Driver/Src/stm32l0xx_hal_rcc.c ****   * @{
  71:Drivers/STM32L0xx_HAL_Driver/Src/stm32l0xx_hal_rcc.c ****   */
  72:Drivers/STM32L0xx_HAL_Driver/Src/stm32l0xx_hal_rcc.c **** 
  73:Drivers/STM32L0xx_HAL_Driver/Src/stm32l0xx_hal_rcc.c **** #ifdef HAL_RCC_MODULE_ENABLED
  74:Drivers/STM32L0xx_HAL_Driver/Src/stm32l0xx_hal_rcc.c **** 
  75:Drivers/STM32L0xx_HAL_Driver/Src/stm32l0xx_hal_rcc.c **** /* Private typedef -----------------------------------------------------------*/
  76:Drivers/STM32L0xx_HAL_Driver/Src/stm32l0xx_hal_rcc.c **** /* Private define ------------------------------------------------------------*/
  77:Drivers/STM32L0xx_HAL_Driver/Src/stm32l0xx_hal_rcc.c **** /* Private macro -------------------------------------------------------------*/
  78:Drivers/STM32L0xx_HAL_Driver/Src/stm32l0xx_hal_rcc.c **** /** @defgroup RCC_Private_Macros RCC Private Macros
  79:Drivers/STM32L0xx_HAL_Driver/Src/stm32l0xx_hal_rcc.c ****   * @{
  80:Drivers/STM32L0xx_HAL_Driver/Src/stm32l0xx_hal_rcc.c ****   */
  81:Drivers/STM32L0xx_HAL_Driver/Src/stm32l0xx_hal_rcc.c **** 
  82:Drivers/STM32L0xx_HAL_Driver/Src/stm32l0xx_hal_rcc.c **** #define MCO1_CLK_ENABLE()     __HAL_RCC_GPIOA_CLK_ENABLE()
  83:Drivers/STM32L0xx_HAL_Driver/Src/stm32l0xx_hal_rcc.c **** #define MCO1_GPIO_PORT        GPIOA
  84:Drivers/STM32L0xx_HAL_Driver/Src/stm32l0xx_hal_rcc.c **** #define MCO1_PIN              GPIO_PIN_8
  85:Drivers/STM32L0xx_HAL_Driver/Src/stm32l0xx_hal_rcc.c **** 
  86:Drivers/STM32L0xx_HAL_Driver/Src/stm32l0xx_hal_rcc.c **** #define MCO2_CLK_ENABLE()     __HAL_RCC_GPIOA_CLK_ENABLE()
  87:Drivers/STM32L0xx_HAL_Driver/Src/stm32l0xx_hal_rcc.c **** #define MCO2_GPIO_PORT        GPIOA
  88:Drivers/STM32L0xx_HAL_Driver/Src/stm32l0xx_hal_rcc.c **** #define MCO2_PIN              GPIO_PIN_9
  89:Drivers/STM32L0xx_HAL_Driver/Src/stm32l0xx_hal_rcc.c **** 
ARM GAS  /tmp/ccOARe22.s 			page 3


  90:Drivers/STM32L0xx_HAL_Driver/Src/stm32l0xx_hal_rcc.c **** #if defined(RCC_MCO3_SUPPORT)
  91:Drivers/STM32L0xx_HAL_Driver/Src/stm32l0xx_hal_rcc.c **** #define MCO3_CLK_ENABLE()     __HAL_RCC_GPIOB_CLK_ENABLE()
  92:Drivers/STM32L0xx_HAL_Driver/Src/stm32l0xx_hal_rcc.c **** #define MCO3_GPIO_PORT        GPIOB
  93:Drivers/STM32L0xx_HAL_Driver/Src/stm32l0xx_hal_rcc.c **** #define MCO3_PIN              GPIO_PIN_13
  94:Drivers/STM32L0xx_HAL_Driver/Src/stm32l0xx_hal_rcc.c **** #endif /* RCC_MCO3_SUPPORT */
  95:Drivers/STM32L0xx_HAL_Driver/Src/stm32l0xx_hal_rcc.c **** 
  96:Drivers/STM32L0xx_HAL_Driver/Src/stm32l0xx_hal_rcc.c **** /**
  97:Drivers/STM32L0xx_HAL_Driver/Src/stm32l0xx_hal_rcc.c ****   * @}
  98:Drivers/STM32L0xx_HAL_Driver/Src/stm32l0xx_hal_rcc.c ****   */
  99:Drivers/STM32L0xx_HAL_Driver/Src/stm32l0xx_hal_rcc.c **** 
 100:Drivers/STM32L0xx_HAL_Driver/Src/stm32l0xx_hal_rcc.c **** /* Private variables ---------------------------------------------------------*/
 101:Drivers/STM32L0xx_HAL_Driver/Src/stm32l0xx_hal_rcc.c **** /* Private function prototypes -----------------------------------------------*/
 102:Drivers/STM32L0xx_HAL_Driver/Src/stm32l0xx_hal_rcc.c **** /* Exported functions ---------------------------------------------------------*/
 103:Drivers/STM32L0xx_HAL_Driver/Src/stm32l0xx_hal_rcc.c **** 
 104:Drivers/STM32L0xx_HAL_Driver/Src/stm32l0xx_hal_rcc.c **** /** @defgroup RCC_Exported_Functions RCC Exported Functions
 105:Drivers/STM32L0xx_HAL_Driver/Src/stm32l0xx_hal_rcc.c ****   * @{
 106:Drivers/STM32L0xx_HAL_Driver/Src/stm32l0xx_hal_rcc.c ****   */
 107:Drivers/STM32L0xx_HAL_Driver/Src/stm32l0xx_hal_rcc.c **** 
 108:Drivers/STM32L0xx_HAL_Driver/Src/stm32l0xx_hal_rcc.c **** /** @defgroup RCC_Exported_Functions_Group1 Initialization and de-initialization functions
 109:Drivers/STM32L0xx_HAL_Driver/Src/stm32l0xx_hal_rcc.c ****   *  @brief    Initialization and Configuration functions
 110:Drivers/STM32L0xx_HAL_Driver/Src/stm32l0xx_hal_rcc.c ****   *
 111:Drivers/STM32L0xx_HAL_Driver/Src/stm32l0xx_hal_rcc.c ****   @verbatim
 112:Drivers/STM32L0xx_HAL_Driver/Src/stm32l0xx_hal_rcc.c ****   ===============================================================================
 113:Drivers/STM32L0xx_HAL_Driver/Src/stm32l0xx_hal_rcc.c ****            ##### Initialization and de-initialization functions #####
 114:Drivers/STM32L0xx_HAL_Driver/Src/stm32l0xx_hal_rcc.c ****   ===============================================================================
 115:Drivers/STM32L0xx_HAL_Driver/Src/stm32l0xx_hal_rcc.c ****     [..]
 116:Drivers/STM32L0xx_HAL_Driver/Src/stm32l0xx_hal_rcc.c ****       This section provides functions allowing to configure the internal/external oscillators
 117:Drivers/STM32L0xx_HAL_Driver/Src/stm32l0xx_hal_rcc.c ****       (MSI, HSE, HSI, LSE, LSI, PLL, CSS and MCO) and the System buses clocks (SYSCLK, AHB, APB1
 118:Drivers/STM32L0xx_HAL_Driver/Src/stm32l0xx_hal_rcc.c ****       and APB2).
 119:Drivers/STM32L0xx_HAL_Driver/Src/stm32l0xx_hal_rcc.c **** 
 120:Drivers/STM32L0xx_HAL_Driver/Src/stm32l0xx_hal_rcc.c ****     [..] Internal/external clock and PLL configuration
 121:Drivers/STM32L0xx_HAL_Driver/Src/stm32l0xx_hal_rcc.c ****       (#) MSI (Multispeed internal), Seven frequency ranges are available: 65.536 kHz,
 122:Drivers/STM32L0xx_HAL_Driver/Src/stm32l0xx_hal_rcc.c ****           131.072 kHz, 262.144 kHz, 524.288 kHz, 1.048 MHz, 2.097 MHz (default value) and 4.194 MHz
 123:Drivers/STM32L0xx_HAL_Driver/Src/stm32l0xx_hal_rcc.c **** 
 124:Drivers/STM32L0xx_HAL_Driver/Src/stm32l0xx_hal_rcc.c ****       (#) HSI (high-speed internal), 16 MHz factory-trimmed RC used directly or through
 125:Drivers/STM32L0xx_HAL_Driver/Src/stm32l0xx_hal_rcc.c ****           the PLL as System clock source.
 126:Drivers/STM32L0xx_HAL_Driver/Src/stm32l0xx_hal_rcc.c ****       (#) LSI (low-speed internal), ~37 KHz low consumption RC used as IWDG and/or RTC
 127:Drivers/STM32L0xx_HAL_Driver/Src/stm32l0xx_hal_rcc.c ****           clock source.
 128:Drivers/STM32L0xx_HAL_Driver/Src/stm32l0xx_hal_rcc.c **** 
 129:Drivers/STM32L0xx_HAL_Driver/Src/stm32l0xx_hal_rcc.c ****       (#) HSE (high-speed external), 1 to 24 MHz crystal oscillator used directly or
 130:Drivers/STM32L0xx_HAL_Driver/Src/stm32l0xx_hal_rcc.c ****           through the PLL as System clock source. Can be used also as RTC clock source.
 131:Drivers/STM32L0xx_HAL_Driver/Src/stm32l0xx_hal_rcc.c **** 
 132:Drivers/STM32L0xx_HAL_Driver/Src/stm32l0xx_hal_rcc.c ****       (#) LSE (low-speed external), 32 KHz oscillator used as RTC clock source.
 133:Drivers/STM32L0xx_HAL_Driver/Src/stm32l0xx_hal_rcc.c **** 
 134:Drivers/STM32L0xx_HAL_Driver/Src/stm32l0xx_hal_rcc.c ****       (#) PLL (clocked by HSI or HSE), featuring different output clocks:
 135:Drivers/STM32L0xx_HAL_Driver/Src/stm32l0xx_hal_rcc.c ****         (++) The first output is used to generate the high speed system clock (up to 32 MHz)
 136:Drivers/STM32L0xx_HAL_Driver/Src/stm32l0xx_hal_rcc.c ****         (++) The second output is used to generate the clock for the USB OTG FS (48 MHz)
 137:Drivers/STM32L0xx_HAL_Driver/Src/stm32l0xx_hal_rcc.c **** 
 138:Drivers/STM32L0xx_HAL_Driver/Src/stm32l0xx_hal_rcc.c ****       (#) CSS (Clock security system), once enable using the macro __HAL_RCC_CSS_ENABLE()
 139:Drivers/STM32L0xx_HAL_Driver/Src/stm32l0xx_hal_rcc.c ****           and if a HSE clock failure occurs(HSE used directly or through PLL as System
 140:Drivers/STM32L0xx_HAL_Driver/Src/stm32l0xx_hal_rcc.c ****           clock source), the System clocks automatically switched to MSI and an interrupt
 141:Drivers/STM32L0xx_HAL_Driver/Src/stm32l0xx_hal_rcc.c ****           is generated if enabled. The interrupt is linked to the Cortex-M0+ NMI
 142:Drivers/STM32L0xx_HAL_Driver/Src/stm32l0xx_hal_rcc.c ****           (Non-Maskable Interrupt) exception vector.
 143:Drivers/STM32L0xx_HAL_Driver/Src/stm32l0xx_hal_rcc.c **** 
 144:Drivers/STM32L0xx_HAL_Driver/Src/stm32l0xx_hal_rcc.c ****       (#) MCO1/MCO2/MCO3 (microcontroller clock output), used to output SYSCLK, HSI, LSI, MSI, LSE,
 145:Drivers/STM32L0xx_HAL_Driver/Src/stm32l0xx_hal_rcc.c ****           HSE, HSI48 or PLL clock (through a configurable prescaler) on PA8/PA9/PB13 pins.
 146:Drivers/STM32L0xx_HAL_Driver/Src/stm32l0xx_hal_rcc.c **** 
ARM GAS  /tmp/ccOARe22.s 			page 4


 147:Drivers/STM32L0xx_HAL_Driver/Src/stm32l0xx_hal_rcc.c ****     [..] System, AHB and APB buses clocks configuration
 148:Drivers/STM32L0xx_HAL_Driver/Src/stm32l0xx_hal_rcc.c ****       (#) Several clock sources can be used to drive the System clock (SYSCLK): MSI, HSI,
 149:Drivers/STM32L0xx_HAL_Driver/Src/stm32l0xx_hal_rcc.c ****           HSE and PLL.
 150:Drivers/STM32L0xx_HAL_Driver/Src/stm32l0xx_hal_rcc.c ****           The AHB clock (HCLK) is derived from System clock through configurable
 151:Drivers/STM32L0xx_HAL_Driver/Src/stm32l0xx_hal_rcc.c ****           prescaler and used to clock the CPU, memory and peripherals mapped
 152:Drivers/STM32L0xx_HAL_Driver/Src/stm32l0xx_hal_rcc.c ****           on AHB bus (DMA, GPIO...). APB1 (PCLK1) and APB2 (PCLK2) clocks are derived
 153:Drivers/STM32L0xx_HAL_Driver/Src/stm32l0xx_hal_rcc.c ****           from AHB clock through configurable prescalers and used to clock
 154:Drivers/STM32L0xx_HAL_Driver/Src/stm32l0xx_hal_rcc.c ****           the peripherals mapped on these buses. You can use
 155:Drivers/STM32L0xx_HAL_Driver/Src/stm32l0xx_hal_rcc.c ****           "HAL_RCC_GetSysClockFreq()" function to retrieve the frequencies of these clocks.
 156:Drivers/STM32L0xx_HAL_Driver/Src/stm32l0xx_hal_rcc.c **** 
 157:Drivers/STM32L0xx_HAL_Driver/Src/stm32l0xx_hal_rcc.c ****       -@- All the peripheral clocks are derived from the System clock (SYSCLK) except:
 158:Drivers/STM32L0xx_HAL_Driver/Src/stm32l0xx_hal_rcc.c ****           (+@) RTC: RTC clock can be derived either from the LSI, LSE or HSE clock
 159:Drivers/STM32L0xx_HAL_Driver/Src/stm32l0xx_hal_rcc.c ****               divided by 2 to 16. You have to use __HAL_RCC_RTC_CONFIG() and __HAL_RCC_RTC_ENABLE()
 160:Drivers/STM32L0xx_HAL_Driver/Src/stm32l0xx_hal_rcc.c ****               macros to configure this clock.
 161:Drivers/STM32L0xx_HAL_Driver/Src/stm32l0xx_hal_rcc.c ****           (+@) LCD: LCD clock can be derived either from the LSI, LSE or HSE clock
 162:Drivers/STM32L0xx_HAL_Driver/Src/stm32l0xx_hal_rcc.c ****               divided by 2 to 16. You have to use __HAL_RCC_LCD_CONFIG()
 163:Drivers/STM32L0xx_HAL_Driver/Src/stm32l0xx_hal_rcc.c ****               macros to configure this clock.
 164:Drivers/STM32L0xx_HAL_Driver/Src/stm32l0xx_hal_rcc.c ****           (+@) USB FS and RNG: USB FS require a frequency equal to 48 MHz to work correctly.
 165:Drivers/STM32L0xx_HAL_Driver/Src/stm32l0xx_hal_rcc.c ****                This clock is derived of the main PLL through PLL Multiplier or HSI48 RC oscillator.
 166:Drivers/STM32L0xx_HAL_Driver/Src/stm32l0xx_hal_rcc.c **** 
 167:Drivers/STM32L0xx_HAL_Driver/Src/stm32l0xx_hal_rcc.c ****           (+@) IWDG clock which is always the LSI clock.
 168:Drivers/STM32L0xx_HAL_Driver/Src/stm32l0xx_hal_rcc.c **** 
 169:Drivers/STM32L0xx_HAL_Driver/Src/stm32l0xx_hal_rcc.c ****       (#) The maximum frequency of the SYSCLK and HCLK is 32 MHz, PCLK2 32 MHz
 170:Drivers/STM32L0xx_HAL_Driver/Src/stm32l0xx_hal_rcc.c ****           and PCLK1 32 MHz. Depending on the device voltage range, the maximum
 171:Drivers/STM32L0xx_HAL_Driver/Src/stm32l0xx_hal_rcc.c ****           frequency should be adapted accordingly.
 172:Drivers/STM32L0xx_HAL_Driver/Src/stm32l0xx_hal_rcc.c ****   @endverbatim
 173:Drivers/STM32L0xx_HAL_Driver/Src/stm32l0xx_hal_rcc.c ****   * @{
 174:Drivers/STM32L0xx_HAL_Driver/Src/stm32l0xx_hal_rcc.c ****   */
 175:Drivers/STM32L0xx_HAL_Driver/Src/stm32l0xx_hal_rcc.c **** 
 176:Drivers/STM32L0xx_HAL_Driver/Src/stm32l0xx_hal_rcc.c **** /*
 177:Drivers/STM32L0xx_HAL_Driver/Src/stm32l0xx_hal_rcc.c ****   Additional consideration on the HCLK based on Latency settings:
 178:Drivers/STM32L0xx_HAL_Driver/Src/stm32l0xx_hal_rcc.c ****   +----------------------------------------------------------------------+
 179:Drivers/STM32L0xx_HAL_Driver/Src/stm32l0xx_hal_rcc.c ****   | Latency       |                HCLK clock frequency (MHz)            |
 180:Drivers/STM32L0xx_HAL_Driver/Src/stm32l0xx_hal_rcc.c ****   |               |------------------------------------------------------|
 181:Drivers/STM32L0xx_HAL_Driver/Src/stm32l0xx_hal_rcc.c ****   |               | voltage range 1  | voltage range 2 | voltage range 3 |
 182:Drivers/STM32L0xx_HAL_Driver/Src/stm32l0xx_hal_rcc.c ****   |               |      1.8 V       |     1.5 V       |      1.2 V      |
 183:Drivers/STM32L0xx_HAL_Driver/Src/stm32l0xx_hal_rcc.c ****   |---------------|------------------|-----------------|-----------------|
 184:Drivers/STM32L0xx_HAL_Driver/Src/stm32l0xx_hal_rcc.c ****   |0WS(1CPU cycle)| 0 < HCLK <= 16   | 0 < HCLK <= 8   | 0 < HCLK <= 4.2 |
 185:Drivers/STM32L0xx_HAL_Driver/Src/stm32l0xx_hal_rcc.c ****   |---------------|------------------|-----------------|-----------------|
 186:Drivers/STM32L0xx_HAL_Driver/Src/stm32l0xx_hal_rcc.c ****   |1WS(2CPU cycle)| 16 < HCLK <= 32  | 8 < HCLK <= 16  |                 |
 187:Drivers/STM32L0xx_HAL_Driver/Src/stm32l0xx_hal_rcc.c ****   +----------------------------------------------------------------------+
 188:Drivers/STM32L0xx_HAL_Driver/Src/stm32l0xx_hal_rcc.c **** 
 189:Drivers/STM32L0xx_HAL_Driver/Src/stm32l0xx_hal_rcc.c ****   The following table gives the different clock source frequencies depending on the product
 190:Drivers/STM32L0xx_HAL_Driver/Src/stm32l0xx_hal_rcc.c ****   voltage range:
 191:Drivers/STM32L0xx_HAL_Driver/Src/stm32l0xx_hal_rcc.c ****   +------------------------------------------------------------------------------------------+
 192:Drivers/STM32L0xx_HAL_Driver/Src/stm32l0xx_hal_rcc.c ****   | Product voltage |                    Clock frequency                                     |
 193:Drivers/STM32L0xx_HAL_Driver/Src/stm32l0xx_hal_rcc.c ****   |                 |------------------|-----------------------------|-----------------------|
 194:Drivers/STM32L0xx_HAL_Driver/Src/stm32l0xx_hal_rcc.c ****   |      range      |   MSI   |   HSI  |              HSE            |          PLL          |
 195:Drivers/STM32L0xx_HAL_Driver/Src/stm32l0xx_hal_rcc.c ****   |-----------------|---------|--------|-----------------------------|-----------------------|
 196:Drivers/STM32L0xx_HAL_Driver/Src/stm32l0xx_hal_rcc.c ****   | Range 1 (1.8 V) | 4.2 MHz | 16 MHz | HSE 32 MHz (external clock) |         32 MHz        |
 197:Drivers/STM32L0xx_HAL_Driver/Src/stm32l0xx_hal_rcc.c ****   |                 |         |        |      or 24 MHz (crystal)    | (PLLVCO max = 96 MHz) |
 198:Drivers/STM32L0xx_HAL_Driver/Src/stm32l0xx_hal_rcc.c ****   |-----------------|---------|--------|-----------------------------|-----------------------|
 199:Drivers/STM32L0xx_HAL_Driver/Src/stm32l0xx_hal_rcc.c ****   | Range 2 (1.5 V) | 4.2 MHz | 16 MHz |         16 MHz              |         16 MHz        |
 200:Drivers/STM32L0xx_HAL_Driver/Src/stm32l0xx_hal_rcc.c ****   |                 |         |        |                             | (PLLVCO max = 48 MHz) |
 201:Drivers/STM32L0xx_HAL_Driver/Src/stm32l0xx_hal_rcc.c ****   |-----------------|---------|--------|-----------------------------|-----------------------|
 202:Drivers/STM32L0xx_HAL_Driver/Src/stm32l0xx_hal_rcc.c ****   | Range 3 (1.2 V) | 4.2 MHz |   NA   |         8 MHz               |           4 MHz       |
 203:Drivers/STM32L0xx_HAL_Driver/Src/stm32l0xx_hal_rcc.c ****   |                 |         |        |                             | (PLLVCO max = 24 MHz) |
ARM GAS  /tmp/ccOARe22.s 			page 5


 204:Drivers/STM32L0xx_HAL_Driver/Src/stm32l0xx_hal_rcc.c ****   +------------------------------------------------------------------------------------------+
 205:Drivers/STM32L0xx_HAL_Driver/Src/stm32l0xx_hal_rcc.c ****   */
 206:Drivers/STM32L0xx_HAL_Driver/Src/stm32l0xx_hal_rcc.c **** 
 207:Drivers/STM32L0xx_HAL_Driver/Src/stm32l0xx_hal_rcc.c **** /**
 208:Drivers/STM32L0xx_HAL_Driver/Src/stm32l0xx_hal_rcc.c ****   * @brief  Resets the RCC clock configuration to the default reset state.
 209:Drivers/STM32L0xx_HAL_Driver/Src/stm32l0xx_hal_rcc.c ****   * @note   The default reset state of the clock configuration is given below:
 210:Drivers/STM32L0xx_HAL_Driver/Src/stm32l0xx_hal_rcc.c ****   *            - MSI ON and used as system clock source
 211:Drivers/STM32L0xx_HAL_Driver/Src/stm32l0xx_hal_rcc.c ****   *            - HSI, HSE and PLL  OFF
 212:Drivers/STM32L0xx_HAL_Driver/Src/stm32l0xx_hal_rcc.c ****   *            - AHB, APB1 and APB2 prescaler set to 1.
 213:Drivers/STM32L0xx_HAL_Driver/Src/stm32l0xx_hal_rcc.c ****   *            - CSS and MCO1/MCO2/MCO3 OFF
 214:Drivers/STM32L0xx_HAL_Driver/Src/stm32l0xx_hal_rcc.c ****   *            - All interrupts disabled
 215:Drivers/STM32L0xx_HAL_Driver/Src/stm32l0xx_hal_rcc.c ****   * @note   This function does not modify the configuration of the
 216:Drivers/STM32L0xx_HAL_Driver/Src/stm32l0xx_hal_rcc.c ****   *            - Peripheral clocks
 217:Drivers/STM32L0xx_HAL_Driver/Src/stm32l0xx_hal_rcc.c ****   *            - LSI, LSE and RTC clocks
 218:Drivers/STM32L0xx_HAL_Driver/Src/stm32l0xx_hal_rcc.c ****   *            - HSI48 clock
 219:Drivers/STM32L0xx_HAL_Driver/Src/stm32l0xx_hal_rcc.c ****   * @retval None
 220:Drivers/STM32L0xx_HAL_Driver/Src/stm32l0xx_hal_rcc.c ****   */
 221:Drivers/STM32L0xx_HAL_Driver/Src/stm32l0xx_hal_rcc.c **** HAL_StatusTypeDef HAL_RCC_DeInit(void)
 222:Drivers/STM32L0xx_HAL_Driver/Src/stm32l0xx_hal_rcc.c **** {
  27              		.loc 1 222 1 view -0
  28              		.cfi_startproc
  29              		@ args = 0, pretend = 0, frame = 8
  30              		@ frame_needed = 0, uses_anonymous_args = 0
  31 0000 30B5     		push	{r4, r5, lr}
  32              		.cfi_def_cfa_offset 12
  33              		.cfi_offset 4, -12
  34              		.cfi_offset 5, -8
  35              		.cfi_offset 14, -4
  36 0002 83B0     		sub	sp, sp, #12
  37              		.cfi_def_cfa_offset 24
 223:Drivers/STM32L0xx_HAL_Driver/Src/stm32l0xx_hal_rcc.c ****   __IO uint32_t tmpreg;
  38              		.loc 1 223 3 view .LVU1
 224:Drivers/STM32L0xx_HAL_Driver/Src/stm32l0xx_hal_rcc.c ****   uint32_t tickstart;
  39              		.loc 1 224 3 view .LVU2
 225:Drivers/STM32L0xx_HAL_Driver/Src/stm32l0xx_hal_rcc.c ****   uint32_t vl_mask;
  40              		.loc 1 225 3 view .LVU3
 226:Drivers/STM32L0xx_HAL_Driver/Src/stm32l0xx_hal_rcc.c ****   HAL_StatusTypeDef status;
  41              		.loc 1 226 3 view .LVU4
 227:Drivers/STM32L0xx_HAL_Driver/Src/stm32l0xx_hal_rcc.c **** 
 228:Drivers/STM32L0xx_HAL_Driver/Src/stm32l0xx_hal_rcc.c ****   /* Set MSIClockRange, HSITRIM and MSITRIM bits to the reset values */
 229:Drivers/STM32L0xx_HAL_Driver/Src/stm32l0xx_hal_rcc.c ****   MODIFY_REG(RCC->ICSCR, (RCC_ICSCR_MSITRIM | RCC_ICSCR_HSITRIM | RCC_ICSCR_MSIRANGE), \
  42              		.loc 1 229 3 view .LVU5
  43 0004 304B     		ldr	r3, .L15
  44 0006 5968     		ldr	r1, [r3, #4]
  45 0008 304A     		ldr	r2, .L15+4
  46 000a 1140     		ands	r1, r2
  47 000c B022     		movs	r2, #176
  48 000e 1202     		lsls	r2, r2, #8
  49 0010 0A43     		orrs	r2, r1
  50 0012 5A60     		str	r2, [r3, #4]
 230:Drivers/STM32L0xx_HAL_Driver/Src/stm32l0xx_hal_rcc.c ****             ((RCC_MSICALIBRATION_DEFAULT << RCC_ICSCR_MSITRIM_Pos) | (RCC_HSICALIBRATION_DEFAULT <<
 231:Drivers/STM32L0xx_HAL_Driver/Src/stm32l0xx_hal_rcc.c **** 
 232:Drivers/STM32L0xx_HAL_Driver/Src/stm32l0xx_hal_rcc.c ****   /* Set MSION bit */
 233:Drivers/STM32L0xx_HAL_Driver/Src/stm32l0xx_hal_rcc.c ****   SET_BIT(RCC->CR, RCC_CR_MSION);
  51              		.loc 1 233 3 view .LVU6
  52 0014 1968     		ldr	r1, [r3]
  53 0016 8022     		movs	r2, #128
ARM GAS  /tmp/ccOARe22.s 			page 6


  54 0018 5200     		lsls	r2, r2, #1
  55 001a 0A43     		orrs	r2, r1
  56 001c 1A60     		str	r2, [r3]
 234:Drivers/STM32L0xx_HAL_Driver/Src/stm32l0xx_hal_rcc.c **** 
 235:Drivers/STM32L0xx_HAL_Driver/Src/stm32l0xx_hal_rcc.c ****   /* Get Start Tick*/
 236:Drivers/STM32L0xx_HAL_Driver/Src/stm32l0xx_hal_rcc.c ****   tickstart = HAL_GetTick();
  57              		.loc 1 236 3 view .LVU7
  58              		.loc 1 236 15 is_stmt 0 view .LVU8
  59 001e FFF7FEFF 		bl	HAL_GetTick
  60              	.LVL0:
  61 0022 0400     		movs	r4, r0
  62              	.LVL1:
 237:Drivers/STM32L0xx_HAL_Driver/Src/stm32l0xx_hal_rcc.c **** 
 238:Drivers/STM32L0xx_HAL_Driver/Src/stm32l0xx_hal_rcc.c ****   /* Wait till MSI is ready */
 239:Drivers/STM32L0xx_HAL_Driver/Src/stm32l0xx_hal_rcc.c ****   while (READ_BIT(RCC->CR, RCC_CR_MSIRDY) == 0U)
  63              		.loc 1 239 3 is_stmt 1 view .LVU9
  64              	.L2:
  65              		.loc 1 239 43 view .LVU10
  66              		.loc 1 239 10 is_stmt 0 view .LVU11
  67 0024 284B     		ldr	r3, .L15
  68 0026 1B68     		ldr	r3, [r3]
  69              		.loc 1 239 43 view .LVU12
  70 0028 9B05     		lsls	r3, r3, #22
  71 002a 08D4     		bmi	.L12
 240:Drivers/STM32L0xx_HAL_Driver/Src/stm32l0xx_hal_rcc.c ****   {
 241:Drivers/STM32L0xx_HAL_Driver/Src/stm32l0xx_hal_rcc.c ****     if ((HAL_GetTick() - tickstart) > MSI_TIMEOUT_VALUE)
  72              		.loc 1 241 5 is_stmt 1 view .LVU13
  73              		.loc 1 241 10 is_stmt 0 view .LVU14
  74 002c FFF7FEFF 		bl	HAL_GetTick
  75              	.LVL2:
  76              		.loc 1 241 24 discriminator 1 view .LVU15
  77 0030 001B     		subs	r0, r0, r4
  78              		.loc 1 241 8 discriminator 1 view .LVU16
  79 0032 0228     		cmp	r0, #2
  80 0034 F6D9     		bls	.L2
 242:Drivers/STM32L0xx_HAL_Driver/Src/stm32l0xx_hal_rcc.c ****     {
 243:Drivers/STM32L0xx_HAL_Driver/Src/stm32l0xx_hal_rcc.c ****       return HAL_TIMEOUT;
  81              		.loc 1 243 14 view .LVU17
  82 0036 0324     		movs	r4, #3
  83              	.LVL3:
  84              	.L3:
 244:Drivers/STM32L0xx_HAL_Driver/Src/stm32l0xx_hal_rcc.c ****     }
 245:Drivers/STM32L0xx_HAL_Driver/Src/stm32l0xx_hal_rcc.c ****   }
 246:Drivers/STM32L0xx_HAL_Driver/Src/stm32l0xx_hal_rcc.c **** 
 247:Drivers/STM32L0xx_HAL_Driver/Src/stm32l0xx_hal_rcc.c ****   /* Switch SYSCLK to MSI*/
 248:Drivers/STM32L0xx_HAL_Driver/Src/stm32l0xx_hal_rcc.c ****   CLEAR_BIT(RCC->CFGR, RCC_CFGR_SW);
 249:Drivers/STM32L0xx_HAL_Driver/Src/stm32l0xx_hal_rcc.c **** 
 250:Drivers/STM32L0xx_HAL_Driver/Src/stm32l0xx_hal_rcc.c ****   /* Wait till MSI as SYSCLK status is ready */
 251:Drivers/STM32L0xx_HAL_Driver/Src/stm32l0xx_hal_rcc.c ****   while (READ_BIT(RCC->CFGR, RCC_CFGR_SWS) != 0U)
 252:Drivers/STM32L0xx_HAL_Driver/Src/stm32l0xx_hal_rcc.c ****   {
 253:Drivers/STM32L0xx_HAL_Driver/Src/stm32l0xx_hal_rcc.c ****     if ((HAL_GetTick() - tickstart) > CLOCKSWITCH_TIMEOUT_VALUE)
 254:Drivers/STM32L0xx_HAL_Driver/Src/stm32l0xx_hal_rcc.c ****     {
 255:Drivers/STM32L0xx_HAL_Driver/Src/stm32l0xx_hal_rcc.c ****       return HAL_TIMEOUT;
 256:Drivers/STM32L0xx_HAL_Driver/Src/stm32l0xx_hal_rcc.c ****     }
 257:Drivers/STM32L0xx_HAL_Driver/Src/stm32l0xx_hal_rcc.c ****   }
 258:Drivers/STM32L0xx_HAL_Driver/Src/stm32l0xx_hal_rcc.c **** 
 259:Drivers/STM32L0xx_HAL_Driver/Src/stm32l0xx_hal_rcc.c ****   /* Update the SystemCoreClock global variable for MSI as system clock source */
ARM GAS  /tmp/ccOARe22.s 			page 7


 260:Drivers/STM32L0xx_HAL_Driver/Src/stm32l0xx_hal_rcc.c ****   SystemCoreClock = MSI_VALUE;
 261:Drivers/STM32L0xx_HAL_Driver/Src/stm32l0xx_hal_rcc.c **** 
 262:Drivers/STM32L0xx_HAL_Driver/Src/stm32l0xx_hal_rcc.c ****   /* Configure the source of time base considering new system clock settings  */
 263:Drivers/STM32L0xx_HAL_Driver/Src/stm32l0xx_hal_rcc.c ****   status = HAL_InitTick(uwTickPrio);
 264:Drivers/STM32L0xx_HAL_Driver/Src/stm32l0xx_hal_rcc.c ****   if(status != HAL_OK)
 265:Drivers/STM32L0xx_HAL_Driver/Src/stm32l0xx_hal_rcc.c ****   {
 266:Drivers/STM32L0xx_HAL_Driver/Src/stm32l0xx_hal_rcc.c ****     return status;
 267:Drivers/STM32L0xx_HAL_Driver/Src/stm32l0xx_hal_rcc.c ****   }
 268:Drivers/STM32L0xx_HAL_Driver/Src/stm32l0xx_hal_rcc.c **** 
 269:Drivers/STM32L0xx_HAL_Driver/Src/stm32l0xx_hal_rcc.c ****   /* Reset HSE, HSI, CSS, PLL */
 270:Drivers/STM32L0xx_HAL_Driver/Src/stm32l0xx_hal_rcc.c **** #if defined(RCC_CR_CSSHSEON) && defined(RCC_CR_HSIOUTEN)
 271:Drivers/STM32L0xx_HAL_Driver/Src/stm32l0xx_hal_rcc.c ****   CLEAR_BIT(RCC->CR, RCC_CR_HSION| RCC_CR_HSIKERON| RCC_CR_HSIDIVEN | RCC_CR_HSIOUTEN | \
 272:Drivers/STM32L0xx_HAL_Driver/Src/stm32l0xx_hal_rcc.c ****                      RCC_CR_HSEON | RCC_CR_CSSHSEON | RCC_CR_PLLON);
 273:Drivers/STM32L0xx_HAL_Driver/Src/stm32l0xx_hal_rcc.c **** #elif !defined(RCC_CR_CSSHSEON) && defined(RCC_CR_HSIOUTEN)
 274:Drivers/STM32L0xx_HAL_Driver/Src/stm32l0xx_hal_rcc.c ****   CLEAR_BIT(RCC->CR, RCC_CR_HSION| RCC_CR_HSIKERON| RCC_CR_HSIDIVEN | RCC_CR_HSIOUTEN | \
 275:Drivers/STM32L0xx_HAL_Driver/Src/stm32l0xx_hal_rcc.c ****                      RCC_CR_HSEON | RCC_CR_PLLON);
 276:Drivers/STM32L0xx_HAL_Driver/Src/stm32l0xx_hal_rcc.c **** #elif defined(RCC_CR_CSSHSEON) && !defined(RCC_CR_HSIOUTEN)
 277:Drivers/STM32L0xx_HAL_Driver/Src/stm32l0xx_hal_rcc.c ****   CLEAR_BIT(RCC->CR, RCC_CR_HSION| RCC_CR_HSIKERON| RCC_CR_HSIDIVEN | \
 278:Drivers/STM32L0xx_HAL_Driver/Src/stm32l0xx_hal_rcc.c ****                      RCC_CR_HSEON | RCC_CR_CSSHSEON | RCC_CR_PLLON);
 279:Drivers/STM32L0xx_HAL_Driver/Src/stm32l0xx_hal_rcc.c **** #endif
 280:Drivers/STM32L0xx_HAL_Driver/Src/stm32l0xx_hal_rcc.c **** 
 281:Drivers/STM32L0xx_HAL_Driver/Src/stm32l0xx_hal_rcc.c ****   /* Delay after an RCC peripheral clock */ \
 282:Drivers/STM32L0xx_HAL_Driver/Src/stm32l0xx_hal_rcc.c ****   tmpreg = READ_BIT(RCC->CR, RCC_CR_HSEON);      \
 283:Drivers/STM32L0xx_HAL_Driver/Src/stm32l0xx_hal_rcc.c ****   UNUSED(tmpreg);
 284:Drivers/STM32L0xx_HAL_Driver/Src/stm32l0xx_hal_rcc.c **** 
 285:Drivers/STM32L0xx_HAL_Driver/Src/stm32l0xx_hal_rcc.c ****   /* Reset HSEBYP bit */
 286:Drivers/STM32L0xx_HAL_Driver/Src/stm32l0xx_hal_rcc.c ****   CLEAR_BIT(RCC->CR, RCC_CR_HSEBYP);
 287:Drivers/STM32L0xx_HAL_Driver/Src/stm32l0xx_hal_rcc.c **** 
 288:Drivers/STM32L0xx_HAL_Driver/Src/stm32l0xx_hal_rcc.c ****   /* Get Start Tick*/
 289:Drivers/STM32L0xx_HAL_Driver/Src/stm32l0xx_hal_rcc.c ****   tickstart = HAL_GetTick();
 290:Drivers/STM32L0xx_HAL_Driver/Src/stm32l0xx_hal_rcc.c **** 
 291:Drivers/STM32L0xx_HAL_Driver/Src/stm32l0xx_hal_rcc.c ****   /* Wait till PLL is not ready */
 292:Drivers/STM32L0xx_HAL_Driver/Src/stm32l0xx_hal_rcc.c ****   while (READ_BIT(RCC->CR, RCC_CR_PLLRDY) != 0U)
 293:Drivers/STM32L0xx_HAL_Driver/Src/stm32l0xx_hal_rcc.c ****   {
 294:Drivers/STM32L0xx_HAL_Driver/Src/stm32l0xx_hal_rcc.c ****     if ((HAL_GetTick() - tickstart) > PLL_TIMEOUT_VALUE)
 295:Drivers/STM32L0xx_HAL_Driver/Src/stm32l0xx_hal_rcc.c ****     {
 296:Drivers/STM32L0xx_HAL_Driver/Src/stm32l0xx_hal_rcc.c ****       return HAL_TIMEOUT;
 297:Drivers/STM32L0xx_HAL_Driver/Src/stm32l0xx_hal_rcc.c ****     }
 298:Drivers/STM32L0xx_HAL_Driver/Src/stm32l0xx_hal_rcc.c ****   }
 299:Drivers/STM32L0xx_HAL_Driver/Src/stm32l0xx_hal_rcc.c **** 
 300:Drivers/STM32L0xx_HAL_Driver/Src/stm32l0xx_hal_rcc.c ****   /* Reset CFGR register */
 301:Drivers/STM32L0xx_HAL_Driver/Src/stm32l0xx_hal_rcc.c ****   CLEAR_REG(RCC->CFGR);
 302:Drivers/STM32L0xx_HAL_Driver/Src/stm32l0xx_hal_rcc.c **** 
 303:Drivers/STM32L0xx_HAL_Driver/Src/stm32l0xx_hal_rcc.c ****   /* Disable all interrupts */
 304:Drivers/STM32L0xx_HAL_Driver/Src/stm32l0xx_hal_rcc.c ****   CLEAR_REG(RCC->CIER);
 305:Drivers/STM32L0xx_HAL_Driver/Src/stm32l0xx_hal_rcc.c **** 
 306:Drivers/STM32L0xx_HAL_Driver/Src/stm32l0xx_hal_rcc.c ****   /* Clear all flags */
 307:Drivers/STM32L0xx_HAL_Driver/Src/stm32l0xx_hal_rcc.c ****   vl_mask = RCC_CICR_LSIRDYC | RCC_CICR_LSERDYC | RCC_CICR_HSIRDYC | RCC_CICR_HSERDYC | RCC_CICR_PL
 308:Drivers/STM32L0xx_HAL_Driver/Src/stm32l0xx_hal_rcc.c **** #if defined(RCC_HSI48_SUPPORT)
 309:Drivers/STM32L0xx_HAL_Driver/Src/stm32l0xx_hal_rcc.c ****   vl_mask |= RCC_CICR_HSI48RDYC;
 310:Drivers/STM32L0xx_HAL_Driver/Src/stm32l0xx_hal_rcc.c **** #endif
 311:Drivers/STM32L0xx_HAL_Driver/Src/stm32l0xx_hal_rcc.c **** #if defined(RCC_HSECSS_SUPPORT)
 312:Drivers/STM32L0xx_HAL_Driver/Src/stm32l0xx_hal_rcc.c ****   vl_mask |= RCC_CICR_CSSHSEC;
 313:Drivers/STM32L0xx_HAL_Driver/Src/stm32l0xx_hal_rcc.c **** #endif
 314:Drivers/STM32L0xx_HAL_Driver/Src/stm32l0xx_hal_rcc.c ****   WRITE_REG(RCC->CICR, vl_mask);
 315:Drivers/STM32L0xx_HAL_Driver/Src/stm32l0xx_hal_rcc.c **** 
 316:Drivers/STM32L0xx_HAL_Driver/Src/stm32l0xx_hal_rcc.c ****   /* Clear all reset flags */
ARM GAS  /tmp/ccOARe22.s 			page 8


 317:Drivers/STM32L0xx_HAL_Driver/Src/stm32l0xx_hal_rcc.c ****   SET_BIT(RCC->CSR, RCC_CSR_RMVF);
 318:Drivers/STM32L0xx_HAL_Driver/Src/stm32l0xx_hal_rcc.c **** 
 319:Drivers/STM32L0xx_HAL_Driver/Src/stm32l0xx_hal_rcc.c ****   return HAL_OK;
 320:Drivers/STM32L0xx_HAL_Driver/Src/stm32l0xx_hal_rcc.c **** }
  85              		.loc 1 320 1 view .LVU18
  86 0038 2000     		movs	r0, r4
  87 003a 03B0     		add	sp, sp, #12
  88              		@ sp needed
  89 003c 30BD     		pop	{r4, r5, pc}
  90              	.LVL4:
  91              	.L12:
 248:Drivers/STM32L0xx_HAL_Driver/Src/stm32l0xx_hal_rcc.c **** 
  92              		.loc 1 248 3 is_stmt 1 view .LVU19
  93 003e 224A     		ldr	r2, .L15
  94 0040 D368     		ldr	r3, [r2, #12]
  95 0042 0321     		movs	r1, #3
  96 0044 8B43     		bics	r3, r1
  97 0046 D360     		str	r3, [r2, #12]
 251:Drivers/STM32L0xx_HAL_Driver/Src/stm32l0xx_hal_rcc.c ****   {
  98              		.loc 1 251 3 view .LVU20
  99              	.L5:
 251:Drivers/STM32L0xx_HAL_Driver/Src/stm32l0xx_hal_rcc.c ****   {
 100              		.loc 1 251 44 view .LVU21
 251:Drivers/STM32L0xx_HAL_Driver/Src/stm32l0xx_hal_rcc.c ****   {
 101              		.loc 1 251 10 is_stmt 0 view .LVU22
 102 0048 1F4B     		ldr	r3, .L15
 103 004a DB68     		ldr	r3, [r3, #12]
 104 004c 0C22     		movs	r2, #12
 251:Drivers/STM32L0xx_HAL_Driver/Src/stm32l0xx_hal_rcc.c ****   {
 105              		.loc 1 251 44 view .LVU23
 106 004e 1A42     		tst	r2, r3
 107 0050 07D0     		beq	.L13
 253:Drivers/STM32L0xx_HAL_Driver/Src/stm32l0xx_hal_rcc.c ****     {
 108              		.loc 1 253 5 is_stmt 1 view .LVU24
 253:Drivers/STM32L0xx_HAL_Driver/Src/stm32l0xx_hal_rcc.c ****     {
 109              		.loc 1 253 10 is_stmt 0 view .LVU25
 110 0052 FFF7FEFF 		bl	HAL_GetTick
 111              	.LVL5:
 253:Drivers/STM32L0xx_HAL_Driver/Src/stm32l0xx_hal_rcc.c ****     {
 112              		.loc 1 253 24 discriminator 1 view .LVU26
 113 0056 001B     		subs	r0, r0, r4
 253:Drivers/STM32L0xx_HAL_Driver/Src/stm32l0xx_hal_rcc.c ****     {
 114              		.loc 1 253 8 discriminator 1 view .LVU27
 115 0058 1D4B     		ldr	r3, .L15+8
 116 005a 9842     		cmp	r0, r3
 117 005c F4D9     		bls	.L5
 255:Drivers/STM32L0xx_HAL_Driver/Src/stm32l0xx_hal_rcc.c ****     }
 118              		.loc 1 255 14 view .LVU28
 119 005e 0324     		movs	r4, #3
 120              	.LVL6:
 255:Drivers/STM32L0xx_HAL_Driver/Src/stm32l0xx_hal_rcc.c ****     }
 121              		.loc 1 255 14 view .LVU29
 122 0060 EAE7     		b	.L3
 123              	.LVL7:
 124              	.L13:
 260:Drivers/STM32L0xx_HAL_Driver/Src/stm32l0xx_hal_rcc.c **** 
 125              		.loc 1 260 3 is_stmt 1 view .LVU30
ARM GAS  /tmp/ccOARe22.s 			page 9


 260:Drivers/STM32L0xx_HAL_Driver/Src/stm32l0xx_hal_rcc.c **** 
 126              		.loc 1 260 19 is_stmt 0 view .LVU31
 127 0062 1C4B     		ldr	r3, .L15+12
 128 0064 1C4A     		ldr	r2, .L15+16
 129 0066 1A60     		str	r2, [r3]
 263:Drivers/STM32L0xx_HAL_Driver/Src/stm32l0xx_hal_rcc.c ****   if(status != HAL_OK)
 130              		.loc 1 263 3 is_stmt 1 view .LVU32
 263:Drivers/STM32L0xx_HAL_Driver/Src/stm32l0xx_hal_rcc.c ****   if(status != HAL_OK)
 131              		.loc 1 263 12 is_stmt 0 view .LVU33
 132 0068 1C4B     		ldr	r3, .L15+20
 133 006a 1868     		ldr	r0, [r3]
 134 006c FFF7FEFF 		bl	HAL_InitTick
 135              	.LVL8:
 136 0070 041E     		subs	r4, r0, #0
 137              	.LVL9:
 264:Drivers/STM32L0xx_HAL_Driver/Src/stm32l0xx_hal_rcc.c ****   {
 138              		.loc 1 264 3 is_stmt 1 view .LVU34
 264:Drivers/STM32L0xx_HAL_Driver/Src/stm32l0xx_hal_rcc.c ****   {
 139              		.loc 1 264 5 is_stmt 0 view .LVU35
 140 0072 E1D1     		bne	.L3
 271:Drivers/STM32L0xx_HAL_Driver/Src/stm32l0xx_hal_rcc.c ****                      RCC_CR_HSEON | RCC_CR_CSSHSEON | RCC_CR_PLLON);
 141              		.loc 1 271 3 is_stmt 1 view .LVU36
 142 0074 144B     		ldr	r3, .L15
 143 0076 1A68     		ldr	r2, [r3]
 144 0078 1949     		ldr	r1, .L15+24
 145 007a 0A40     		ands	r2, r1
 146 007c 1A60     		str	r2, [r3]
 282:Drivers/STM32L0xx_HAL_Driver/Src/stm32l0xx_hal_rcc.c ****   UNUSED(tmpreg);
 147              		.loc 1 282 3 view .LVU37
 282:Drivers/STM32L0xx_HAL_Driver/Src/stm32l0xx_hal_rcc.c ****   UNUSED(tmpreg);
 148              		.loc 1 282 12 is_stmt 0 view .LVU38
 149 007e 1A68     		ldr	r2, [r3]
 150 0080 8021     		movs	r1, #128
 151 0082 4902     		lsls	r1, r1, #9
 152 0084 0A40     		ands	r2, r1
 282:Drivers/STM32L0xx_HAL_Driver/Src/stm32l0xx_hal_rcc.c ****   UNUSED(tmpreg);
 153              		.loc 1 282 10 view .LVU39
 154 0086 0192     		str	r2, [sp, #4]
 283:Drivers/STM32L0xx_HAL_Driver/Src/stm32l0xx_hal_rcc.c **** 
 155              		.loc 1 283 3 is_stmt 1 view .LVU40
 156 0088 019A     		ldr	r2, [sp, #4]
 286:Drivers/STM32L0xx_HAL_Driver/Src/stm32l0xx_hal_rcc.c **** 
 157              		.loc 1 286 3 view .LVU41
 158 008a 1A68     		ldr	r2, [r3]
 159 008c 1549     		ldr	r1, .L15+28
 160 008e 0A40     		ands	r2, r1
 161 0090 1A60     		str	r2, [r3]
 289:Drivers/STM32L0xx_HAL_Driver/Src/stm32l0xx_hal_rcc.c **** 
 162              		.loc 1 289 3 view .LVU42
 289:Drivers/STM32L0xx_HAL_Driver/Src/stm32l0xx_hal_rcc.c **** 
 163              		.loc 1 289 15 is_stmt 0 view .LVU43
 164 0092 FFF7FEFF 		bl	HAL_GetTick
 165              	.LVL10:
 289:Drivers/STM32L0xx_HAL_Driver/Src/stm32l0xx_hal_rcc.c **** 
 166              		.loc 1 289 15 view .LVU44
 167 0096 0500     		movs	r5, r0
 168              	.LVL11:
ARM GAS  /tmp/ccOARe22.s 			page 10


 292:Drivers/STM32L0xx_HAL_Driver/Src/stm32l0xx_hal_rcc.c ****   {
 169              		.loc 1 292 3 is_stmt 1 view .LVU45
 170              	.L7:
 292:Drivers/STM32L0xx_HAL_Driver/Src/stm32l0xx_hal_rcc.c ****   {
 171              		.loc 1 292 43 view .LVU46
 292:Drivers/STM32L0xx_HAL_Driver/Src/stm32l0xx_hal_rcc.c ****   {
 172              		.loc 1 292 10 is_stmt 0 view .LVU47
 173 0098 0B4B     		ldr	r3, .L15
 174 009a 1B68     		ldr	r3, [r3]
 292:Drivers/STM32L0xx_HAL_Driver/Src/stm32l0xx_hal_rcc.c ****   {
 175              		.loc 1 292 43 view .LVU48
 176 009c 9B01     		lsls	r3, r3, #6
 177 009e 06D5     		bpl	.L14
 294:Drivers/STM32L0xx_HAL_Driver/Src/stm32l0xx_hal_rcc.c ****     {
 178              		.loc 1 294 5 is_stmt 1 view .LVU49
 294:Drivers/STM32L0xx_HAL_Driver/Src/stm32l0xx_hal_rcc.c ****     {
 179              		.loc 1 294 10 is_stmt 0 view .LVU50
 180 00a0 FFF7FEFF 		bl	HAL_GetTick
 181              	.LVL12:
 294:Drivers/STM32L0xx_HAL_Driver/Src/stm32l0xx_hal_rcc.c ****     {
 182              		.loc 1 294 24 discriminator 1 view .LVU51
 183 00a4 401B     		subs	r0, r0, r5
 294:Drivers/STM32L0xx_HAL_Driver/Src/stm32l0xx_hal_rcc.c ****     {
 184              		.loc 1 294 8 discriminator 1 view .LVU52
 185 00a6 0228     		cmp	r0, #2
 186 00a8 F6D9     		bls	.L7
 296:Drivers/STM32L0xx_HAL_Driver/Src/stm32l0xx_hal_rcc.c ****     }
 187              		.loc 1 296 14 view .LVU53
 188 00aa 0324     		movs	r4, #3
 189              	.LVL13:
 296:Drivers/STM32L0xx_HAL_Driver/Src/stm32l0xx_hal_rcc.c ****     }
 190              		.loc 1 296 14 view .LVU54
 191 00ac C4E7     		b	.L3
 192              	.LVL14:
 193              	.L14:
 301:Drivers/STM32L0xx_HAL_Driver/Src/stm32l0xx_hal_rcc.c **** 
 194              		.loc 1 301 3 is_stmt 1 view .LVU55
 195 00ae 064B     		ldr	r3, .L15
 196 00b0 0022     		movs	r2, #0
 197 00b2 DA60     		str	r2, [r3, #12]
 304:Drivers/STM32L0xx_HAL_Driver/Src/stm32l0xx_hal_rcc.c **** 
 198              		.loc 1 304 3 view .LVU56
 199 00b4 1A61     		str	r2, [r3, #16]
 307:Drivers/STM32L0xx_HAL_Driver/Src/stm32l0xx_hal_rcc.c **** #if defined(RCC_HSI48_SUPPORT)
 200              		.loc 1 307 3 view .LVU57
 201              	.LVL15:
 312:Drivers/STM32L0xx_HAL_Driver/Src/stm32l0xx_hal_rcc.c **** #endif
 202              		.loc 1 312 3 view .LVU58
 314:Drivers/STM32L0xx_HAL_Driver/Src/stm32l0xx_hal_rcc.c **** 
 203              		.loc 1 314 3 view .LVU59
 204 00b6 C022     		movs	r2, #192
 205 00b8 FF32     		adds	r2, r2, #255
 206 00ba 9A61     		str	r2, [r3, #24]
 317:Drivers/STM32L0xx_HAL_Driver/Src/stm32l0xx_hal_rcc.c **** 
 207              		.loc 1 317 3 view .LVU60
 208 00bc 196D     		ldr	r1, [r3, #80]
 209 00be 8022     		movs	r2, #128
ARM GAS  /tmp/ccOARe22.s 			page 11


 210 00c0 1204     		lsls	r2, r2, #16
 211 00c2 0A43     		orrs	r2, r1
 212 00c4 1A65     		str	r2, [r3, #80]
 319:Drivers/STM32L0xx_HAL_Driver/Src/stm32l0xx_hal_rcc.c **** }
 213              		.loc 1 319 3 view .LVU61
 319:Drivers/STM32L0xx_HAL_Driver/Src/stm32l0xx_hal_rcc.c **** }
 214              		.loc 1 319 10 is_stmt 0 view .LVU62
 215 00c6 B7E7     		b	.L3
 216              	.L16:
 217              		.align	2
 218              	.L15:
 219 00c8 00100240 		.word	1073876992
 220 00cc FF00FF00 		.word	16711935
 221 00d0 88130000 		.word	5000
 222 00d4 00000000 		.word	SystemCoreClock
 223 00d8 68FF1F00 		.word	2097000
 224 00dc 00000000 		.word	uwTickPrio
 225 00e0 D4FFF6FE 		.word	-17367084
 226 00e4 FFFFFBFF 		.word	-262145
 227              		.cfi_endproc
 228              	.LFE40:
 230              		.section	.text.HAL_RCC_MCOConfig,"ax",%progbits
 231              		.align	1
 232              		.global	HAL_RCC_MCOConfig
 233              		.syntax unified
 234              		.code	16
 235              		.thumb_func
 237              	HAL_RCC_MCOConfig:
 238              	.LVL16:
 239              	.LFB43:
 321:Drivers/STM32L0xx_HAL_Driver/Src/stm32l0xx_hal_rcc.c **** 
 322:Drivers/STM32L0xx_HAL_Driver/Src/stm32l0xx_hal_rcc.c **** /**
 323:Drivers/STM32L0xx_HAL_Driver/Src/stm32l0xx_hal_rcc.c ****   * @brief  Initializes the RCC Oscillators according to the specified parameters in the
 324:Drivers/STM32L0xx_HAL_Driver/Src/stm32l0xx_hal_rcc.c ****   *         RCC_OscInitTypeDef.
 325:Drivers/STM32L0xx_HAL_Driver/Src/stm32l0xx_hal_rcc.c ****   * @param  RCC_OscInitStruct pointer to an RCC_OscInitTypeDef structure that
 326:Drivers/STM32L0xx_HAL_Driver/Src/stm32l0xx_hal_rcc.c ****   *         contains the configuration information for the RCC Oscillators.
 327:Drivers/STM32L0xx_HAL_Driver/Src/stm32l0xx_hal_rcc.c ****   * @note   The PLL is not disabled when used as system clock.
 328:Drivers/STM32L0xx_HAL_Driver/Src/stm32l0xx_hal_rcc.c ****   * @note   Transitions LSE Bypass to LSE On and LSE On to LSE Bypass are not
 329:Drivers/STM32L0xx_HAL_Driver/Src/stm32l0xx_hal_rcc.c ****   *         supported by this macro. User should request a transition to LSE Off
 330:Drivers/STM32L0xx_HAL_Driver/Src/stm32l0xx_hal_rcc.c ****   *         first and then LSE On or LSE Bypass.
 331:Drivers/STM32L0xx_HAL_Driver/Src/stm32l0xx_hal_rcc.c ****   * @note   Transition HSE Bypass to HSE On and HSE On to HSE Bypass are not
 332:Drivers/STM32L0xx_HAL_Driver/Src/stm32l0xx_hal_rcc.c ****   *         supported by this macro. User should request a transition to HSE Off
 333:Drivers/STM32L0xx_HAL_Driver/Src/stm32l0xx_hal_rcc.c ****   *         first and then HSE On or HSE Bypass.
 334:Drivers/STM32L0xx_HAL_Driver/Src/stm32l0xx_hal_rcc.c ****   * @retval HAL status
 335:Drivers/STM32L0xx_HAL_Driver/Src/stm32l0xx_hal_rcc.c ****   */
 336:Drivers/STM32L0xx_HAL_Driver/Src/stm32l0xx_hal_rcc.c **** HAL_StatusTypeDef HAL_RCC_OscConfig(RCC_OscInitTypeDef  *RCC_OscInitStruct)
 337:Drivers/STM32L0xx_HAL_Driver/Src/stm32l0xx_hal_rcc.c **** {
 338:Drivers/STM32L0xx_HAL_Driver/Src/stm32l0xx_hal_rcc.c ****   uint32_t tickstart;
 339:Drivers/STM32L0xx_HAL_Driver/Src/stm32l0xx_hal_rcc.c ****   uint32_t hsi_state;
 340:Drivers/STM32L0xx_HAL_Driver/Src/stm32l0xx_hal_rcc.c ****   HAL_StatusTypeDef status;
 341:Drivers/STM32L0xx_HAL_Driver/Src/stm32l0xx_hal_rcc.c ****   uint32_t sysclk_source, pll_config;
 342:Drivers/STM32L0xx_HAL_Driver/Src/stm32l0xx_hal_rcc.c **** 
 343:Drivers/STM32L0xx_HAL_Driver/Src/stm32l0xx_hal_rcc.c ****   /* Check Null pointer */
 344:Drivers/STM32L0xx_HAL_Driver/Src/stm32l0xx_hal_rcc.c ****   if(RCC_OscInitStruct == NULL)
 345:Drivers/STM32L0xx_HAL_Driver/Src/stm32l0xx_hal_rcc.c ****   {
 346:Drivers/STM32L0xx_HAL_Driver/Src/stm32l0xx_hal_rcc.c ****     return HAL_ERROR;
 347:Drivers/STM32L0xx_HAL_Driver/Src/stm32l0xx_hal_rcc.c ****   }
ARM GAS  /tmp/ccOARe22.s 			page 12


 348:Drivers/STM32L0xx_HAL_Driver/Src/stm32l0xx_hal_rcc.c **** 
 349:Drivers/STM32L0xx_HAL_Driver/Src/stm32l0xx_hal_rcc.c ****   /* Check the parameters */
 350:Drivers/STM32L0xx_HAL_Driver/Src/stm32l0xx_hal_rcc.c ****   assert_param(IS_RCC_OSCILLATORTYPE(RCC_OscInitStruct->OscillatorType));
 351:Drivers/STM32L0xx_HAL_Driver/Src/stm32l0xx_hal_rcc.c **** 
 352:Drivers/STM32L0xx_HAL_Driver/Src/stm32l0xx_hal_rcc.c ****   sysclk_source = __HAL_RCC_GET_SYSCLK_SOURCE();
 353:Drivers/STM32L0xx_HAL_Driver/Src/stm32l0xx_hal_rcc.c ****   pll_config = __HAL_RCC_GET_PLL_OSCSOURCE();
 354:Drivers/STM32L0xx_HAL_Driver/Src/stm32l0xx_hal_rcc.c **** 
 355:Drivers/STM32L0xx_HAL_Driver/Src/stm32l0xx_hal_rcc.c ****   /*------------------------------- HSE Configuration ------------------------*/
 356:Drivers/STM32L0xx_HAL_Driver/Src/stm32l0xx_hal_rcc.c ****   if(((RCC_OscInitStruct->OscillatorType) & RCC_OSCILLATORTYPE_HSE) == RCC_OSCILLATORTYPE_HSE)
 357:Drivers/STM32L0xx_HAL_Driver/Src/stm32l0xx_hal_rcc.c ****   {
 358:Drivers/STM32L0xx_HAL_Driver/Src/stm32l0xx_hal_rcc.c ****     /* Check the parameters */
 359:Drivers/STM32L0xx_HAL_Driver/Src/stm32l0xx_hal_rcc.c ****     assert_param(IS_RCC_HSE(RCC_OscInitStruct->HSEState));
 360:Drivers/STM32L0xx_HAL_Driver/Src/stm32l0xx_hal_rcc.c **** 
 361:Drivers/STM32L0xx_HAL_Driver/Src/stm32l0xx_hal_rcc.c ****     /* When the HSE is used as system clock or clock source for PLL in these cases it is not allowe
 362:Drivers/STM32L0xx_HAL_Driver/Src/stm32l0xx_hal_rcc.c ****     if((sysclk_source == RCC_SYSCLKSOURCE_STATUS_HSE)
 363:Drivers/STM32L0xx_HAL_Driver/Src/stm32l0xx_hal_rcc.c ****        || ((sysclk_source == RCC_SYSCLKSOURCE_STATUS_PLLCLK) && (pll_config == RCC_PLLSOURCE_HSE)))
 364:Drivers/STM32L0xx_HAL_Driver/Src/stm32l0xx_hal_rcc.c ****     {
 365:Drivers/STM32L0xx_HAL_Driver/Src/stm32l0xx_hal_rcc.c ****       if((__HAL_RCC_GET_FLAG(RCC_FLAG_HSERDY) != 0U) && (RCC_OscInitStruct->HSEState == RCC_HSE_OFF
 366:Drivers/STM32L0xx_HAL_Driver/Src/stm32l0xx_hal_rcc.c ****       {
 367:Drivers/STM32L0xx_HAL_Driver/Src/stm32l0xx_hal_rcc.c ****         return HAL_ERROR;
 368:Drivers/STM32L0xx_HAL_Driver/Src/stm32l0xx_hal_rcc.c ****       }
 369:Drivers/STM32L0xx_HAL_Driver/Src/stm32l0xx_hal_rcc.c ****     }
 370:Drivers/STM32L0xx_HAL_Driver/Src/stm32l0xx_hal_rcc.c ****     else
 371:Drivers/STM32L0xx_HAL_Driver/Src/stm32l0xx_hal_rcc.c ****     {
 372:Drivers/STM32L0xx_HAL_Driver/Src/stm32l0xx_hal_rcc.c ****       /* Set the new HSE configuration ---------------------------------------*/
 373:Drivers/STM32L0xx_HAL_Driver/Src/stm32l0xx_hal_rcc.c ****       __HAL_RCC_HSE_CONFIG(RCC_OscInitStruct->HSEState);
 374:Drivers/STM32L0xx_HAL_Driver/Src/stm32l0xx_hal_rcc.c **** 
 375:Drivers/STM32L0xx_HAL_Driver/Src/stm32l0xx_hal_rcc.c ****       /* Check the HSE State */
 376:Drivers/STM32L0xx_HAL_Driver/Src/stm32l0xx_hal_rcc.c ****       if(RCC_OscInitStruct->HSEState != RCC_HSE_OFF)
 377:Drivers/STM32L0xx_HAL_Driver/Src/stm32l0xx_hal_rcc.c ****       {
 378:Drivers/STM32L0xx_HAL_Driver/Src/stm32l0xx_hal_rcc.c ****         /* Get Start Tick */
 379:Drivers/STM32L0xx_HAL_Driver/Src/stm32l0xx_hal_rcc.c ****         tickstart = HAL_GetTick();
 380:Drivers/STM32L0xx_HAL_Driver/Src/stm32l0xx_hal_rcc.c **** 
 381:Drivers/STM32L0xx_HAL_Driver/Src/stm32l0xx_hal_rcc.c ****         /* Wait till HSE is ready */
 382:Drivers/STM32L0xx_HAL_Driver/Src/stm32l0xx_hal_rcc.c ****         while(__HAL_RCC_GET_FLAG(RCC_FLAG_HSERDY) == 0U)
 383:Drivers/STM32L0xx_HAL_Driver/Src/stm32l0xx_hal_rcc.c ****         {
 384:Drivers/STM32L0xx_HAL_Driver/Src/stm32l0xx_hal_rcc.c ****           if((HAL_GetTick() - tickstart ) > HSE_TIMEOUT_VALUE)
 385:Drivers/STM32L0xx_HAL_Driver/Src/stm32l0xx_hal_rcc.c ****           {
 386:Drivers/STM32L0xx_HAL_Driver/Src/stm32l0xx_hal_rcc.c ****             return HAL_TIMEOUT;
 387:Drivers/STM32L0xx_HAL_Driver/Src/stm32l0xx_hal_rcc.c ****           }
 388:Drivers/STM32L0xx_HAL_Driver/Src/stm32l0xx_hal_rcc.c ****         }
 389:Drivers/STM32L0xx_HAL_Driver/Src/stm32l0xx_hal_rcc.c ****       }
 390:Drivers/STM32L0xx_HAL_Driver/Src/stm32l0xx_hal_rcc.c ****       else
 391:Drivers/STM32L0xx_HAL_Driver/Src/stm32l0xx_hal_rcc.c ****       {
 392:Drivers/STM32L0xx_HAL_Driver/Src/stm32l0xx_hal_rcc.c ****         /* Get Start Tick */
 393:Drivers/STM32L0xx_HAL_Driver/Src/stm32l0xx_hal_rcc.c ****         tickstart = HAL_GetTick();
 394:Drivers/STM32L0xx_HAL_Driver/Src/stm32l0xx_hal_rcc.c **** 
 395:Drivers/STM32L0xx_HAL_Driver/Src/stm32l0xx_hal_rcc.c ****         /* Wait till HSE is disabled */
 396:Drivers/STM32L0xx_HAL_Driver/Src/stm32l0xx_hal_rcc.c ****         while(__HAL_RCC_GET_FLAG(RCC_FLAG_HSERDY) != 0U)
 397:Drivers/STM32L0xx_HAL_Driver/Src/stm32l0xx_hal_rcc.c ****         {
 398:Drivers/STM32L0xx_HAL_Driver/Src/stm32l0xx_hal_rcc.c ****            if((HAL_GetTick() - tickstart ) > HSE_TIMEOUT_VALUE)
 399:Drivers/STM32L0xx_HAL_Driver/Src/stm32l0xx_hal_rcc.c ****           {
 400:Drivers/STM32L0xx_HAL_Driver/Src/stm32l0xx_hal_rcc.c ****             return HAL_TIMEOUT;
 401:Drivers/STM32L0xx_HAL_Driver/Src/stm32l0xx_hal_rcc.c ****           }
 402:Drivers/STM32L0xx_HAL_Driver/Src/stm32l0xx_hal_rcc.c ****         }
 403:Drivers/STM32L0xx_HAL_Driver/Src/stm32l0xx_hal_rcc.c ****       }
 404:Drivers/STM32L0xx_HAL_Driver/Src/stm32l0xx_hal_rcc.c ****     }
ARM GAS  /tmp/ccOARe22.s 			page 13


 405:Drivers/STM32L0xx_HAL_Driver/Src/stm32l0xx_hal_rcc.c ****   }
 406:Drivers/STM32L0xx_HAL_Driver/Src/stm32l0xx_hal_rcc.c ****   /*----------------------------- HSI Configuration --------------------------*/
 407:Drivers/STM32L0xx_HAL_Driver/Src/stm32l0xx_hal_rcc.c ****   if(((RCC_OscInitStruct->OscillatorType) & RCC_OSCILLATORTYPE_HSI) == RCC_OSCILLATORTYPE_HSI)
 408:Drivers/STM32L0xx_HAL_Driver/Src/stm32l0xx_hal_rcc.c ****   {
 409:Drivers/STM32L0xx_HAL_Driver/Src/stm32l0xx_hal_rcc.c ****     /* Check the parameters */
 410:Drivers/STM32L0xx_HAL_Driver/Src/stm32l0xx_hal_rcc.c ****     assert_param(IS_RCC_HSI(RCC_OscInitStruct->HSIState));
 411:Drivers/STM32L0xx_HAL_Driver/Src/stm32l0xx_hal_rcc.c ****     assert_param(IS_RCC_CALIBRATION_VALUE(RCC_OscInitStruct->HSICalibrationValue));
 412:Drivers/STM32L0xx_HAL_Driver/Src/stm32l0xx_hal_rcc.c **** 
 413:Drivers/STM32L0xx_HAL_Driver/Src/stm32l0xx_hal_rcc.c ****     hsi_state = RCC_OscInitStruct->HSIState;
 414:Drivers/STM32L0xx_HAL_Driver/Src/stm32l0xx_hal_rcc.c **** 
 415:Drivers/STM32L0xx_HAL_Driver/Src/stm32l0xx_hal_rcc.c **** #if defined(RCC_CR_HSIOUTEN)
 416:Drivers/STM32L0xx_HAL_Driver/Src/stm32l0xx_hal_rcc.c ****     if((hsi_state & RCC_HSI_OUTEN) != 0U)
 417:Drivers/STM32L0xx_HAL_Driver/Src/stm32l0xx_hal_rcc.c ****     {
 418:Drivers/STM32L0xx_HAL_Driver/Src/stm32l0xx_hal_rcc.c ****       /* HSI Output enable for timer requested */
 419:Drivers/STM32L0xx_HAL_Driver/Src/stm32l0xx_hal_rcc.c ****       SET_BIT(RCC->CR, RCC_CR_HSIOUTEN);
 420:Drivers/STM32L0xx_HAL_Driver/Src/stm32l0xx_hal_rcc.c **** 
 421:Drivers/STM32L0xx_HAL_Driver/Src/stm32l0xx_hal_rcc.c ****       hsi_state &= ~RCC_CR_HSIOUTEN;
 422:Drivers/STM32L0xx_HAL_Driver/Src/stm32l0xx_hal_rcc.c ****     }
 423:Drivers/STM32L0xx_HAL_Driver/Src/stm32l0xx_hal_rcc.c **** #endif
 424:Drivers/STM32L0xx_HAL_Driver/Src/stm32l0xx_hal_rcc.c **** 
 425:Drivers/STM32L0xx_HAL_Driver/Src/stm32l0xx_hal_rcc.c ****     /* Check if HSI is used as system clock or as PLL source when PLL is selected as system clock *
 426:Drivers/STM32L0xx_HAL_Driver/Src/stm32l0xx_hal_rcc.c ****     if((sysclk_source == RCC_SYSCLKSOURCE_STATUS_HSI)
 427:Drivers/STM32L0xx_HAL_Driver/Src/stm32l0xx_hal_rcc.c ****        || ((sysclk_source == RCC_SYSCLKSOURCE_STATUS_PLLCLK) && (pll_config == RCC_PLLSOURCE_HSI)))
 428:Drivers/STM32L0xx_HAL_Driver/Src/stm32l0xx_hal_rcc.c ****     {
 429:Drivers/STM32L0xx_HAL_Driver/Src/stm32l0xx_hal_rcc.c ****       /* When HSI is used as system clock it will not disabled */
 430:Drivers/STM32L0xx_HAL_Driver/Src/stm32l0xx_hal_rcc.c ****       if((__HAL_RCC_GET_FLAG(RCC_FLAG_HSIRDY) != 0U) && (hsi_state == RCC_HSI_OFF))
 431:Drivers/STM32L0xx_HAL_Driver/Src/stm32l0xx_hal_rcc.c ****       {
 432:Drivers/STM32L0xx_HAL_Driver/Src/stm32l0xx_hal_rcc.c ****         return HAL_ERROR;
 433:Drivers/STM32L0xx_HAL_Driver/Src/stm32l0xx_hal_rcc.c ****       }
 434:Drivers/STM32L0xx_HAL_Driver/Src/stm32l0xx_hal_rcc.c ****       /* Otherwise, just the calibration and HSI or HSIdiv4 are allowed */
 435:Drivers/STM32L0xx_HAL_Driver/Src/stm32l0xx_hal_rcc.c ****       else
 436:Drivers/STM32L0xx_HAL_Driver/Src/stm32l0xx_hal_rcc.c ****       {
 437:Drivers/STM32L0xx_HAL_Driver/Src/stm32l0xx_hal_rcc.c ****         /* Adjusts the Internal High Speed oscillator (HSI) calibration value.*/
 438:Drivers/STM32L0xx_HAL_Driver/Src/stm32l0xx_hal_rcc.c ****         __HAL_RCC_HSI_CALIBRATIONVALUE_ADJUST(RCC_OscInitStruct->HSICalibrationValue);
 439:Drivers/STM32L0xx_HAL_Driver/Src/stm32l0xx_hal_rcc.c **** 
 440:Drivers/STM32L0xx_HAL_Driver/Src/stm32l0xx_hal_rcc.c ****         /* Enable the Internal High Speed oscillator (HSI or HSIdiv4) */
 441:Drivers/STM32L0xx_HAL_Driver/Src/stm32l0xx_hal_rcc.c ****         __HAL_RCC_HSI_CONFIG(hsi_state);
 442:Drivers/STM32L0xx_HAL_Driver/Src/stm32l0xx_hal_rcc.c ****       }
 443:Drivers/STM32L0xx_HAL_Driver/Src/stm32l0xx_hal_rcc.c **** 
 444:Drivers/STM32L0xx_HAL_Driver/Src/stm32l0xx_hal_rcc.c ****       /* Update the SystemCoreClock global variable */
 445:Drivers/STM32L0xx_HAL_Driver/Src/stm32l0xx_hal_rcc.c ****       SystemCoreClock = HAL_RCC_GetSysClockFreq() >> AHBPrescTable[(RCC->CFGR & RCC_CFGR_HPRE)>> RC
 446:Drivers/STM32L0xx_HAL_Driver/Src/stm32l0xx_hal_rcc.c **** 
 447:Drivers/STM32L0xx_HAL_Driver/Src/stm32l0xx_hal_rcc.c ****       /* Configure the source of time base considering new system clocks settings*/
 448:Drivers/STM32L0xx_HAL_Driver/Src/stm32l0xx_hal_rcc.c ****       status = HAL_InitTick (uwTickPrio);
 449:Drivers/STM32L0xx_HAL_Driver/Src/stm32l0xx_hal_rcc.c ****       if(status != HAL_OK)
 450:Drivers/STM32L0xx_HAL_Driver/Src/stm32l0xx_hal_rcc.c ****       {
 451:Drivers/STM32L0xx_HAL_Driver/Src/stm32l0xx_hal_rcc.c ****         return status;
 452:Drivers/STM32L0xx_HAL_Driver/Src/stm32l0xx_hal_rcc.c ****       }
 453:Drivers/STM32L0xx_HAL_Driver/Src/stm32l0xx_hal_rcc.c ****     }
 454:Drivers/STM32L0xx_HAL_Driver/Src/stm32l0xx_hal_rcc.c ****     else
 455:Drivers/STM32L0xx_HAL_Driver/Src/stm32l0xx_hal_rcc.c ****     {
 456:Drivers/STM32L0xx_HAL_Driver/Src/stm32l0xx_hal_rcc.c ****       /* Check the HSI State */
 457:Drivers/STM32L0xx_HAL_Driver/Src/stm32l0xx_hal_rcc.c ****       if(hsi_state != RCC_HSI_OFF)
 458:Drivers/STM32L0xx_HAL_Driver/Src/stm32l0xx_hal_rcc.c ****       {
 459:Drivers/STM32L0xx_HAL_Driver/Src/stm32l0xx_hal_rcc.c ****         /* Enable the Internal High Speed oscillator (HSI or HSIdiv4) */
 460:Drivers/STM32L0xx_HAL_Driver/Src/stm32l0xx_hal_rcc.c ****         __HAL_RCC_HSI_CONFIG(hsi_state);
 461:Drivers/STM32L0xx_HAL_Driver/Src/stm32l0xx_hal_rcc.c **** 
ARM GAS  /tmp/ccOARe22.s 			page 14


 462:Drivers/STM32L0xx_HAL_Driver/Src/stm32l0xx_hal_rcc.c ****         /* Get Start Tick */
 463:Drivers/STM32L0xx_HAL_Driver/Src/stm32l0xx_hal_rcc.c ****         tickstart = HAL_GetTick();
 464:Drivers/STM32L0xx_HAL_Driver/Src/stm32l0xx_hal_rcc.c **** 
 465:Drivers/STM32L0xx_HAL_Driver/Src/stm32l0xx_hal_rcc.c ****         /* Wait till HSI is ready */
 466:Drivers/STM32L0xx_HAL_Driver/Src/stm32l0xx_hal_rcc.c ****         while(__HAL_RCC_GET_FLAG(RCC_FLAG_HSIRDY) == 0U)
 467:Drivers/STM32L0xx_HAL_Driver/Src/stm32l0xx_hal_rcc.c ****         {
 468:Drivers/STM32L0xx_HAL_Driver/Src/stm32l0xx_hal_rcc.c ****           if((HAL_GetTick() - tickstart ) > HSI_TIMEOUT_VALUE)
 469:Drivers/STM32L0xx_HAL_Driver/Src/stm32l0xx_hal_rcc.c ****           {
 470:Drivers/STM32L0xx_HAL_Driver/Src/stm32l0xx_hal_rcc.c ****             return HAL_TIMEOUT;
 471:Drivers/STM32L0xx_HAL_Driver/Src/stm32l0xx_hal_rcc.c ****           }
 472:Drivers/STM32L0xx_HAL_Driver/Src/stm32l0xx_hal_rcc.c ****         }
 473:Drivers/STM32L0xx_HAL_Driver/Src/stm32l0xx_hal_rcc.c **** 
 474:Drivers/STM32L0xx_HAL_Driver/Src/stm32l0xx_hal_rcc.c ****         /* Adjusts the Internal High Speed oscillator (HSI) calibration value.*/
 475:Drivers/STM32L0xx_HAL_Driver/Src/stm32l0xx_hal_rcc.c ****         __HAL_RCC_HSI_CALIBRATIONVALUE_ADJUST(RCC_OscInitStruct->HSICalibrationValue);
 476:Drivers/STM32L0xx_HAL_Driver/Src/stm32l0xx_hal_rcc.c ****       }
 477:Drivers/STM32L0xx_HAL_Driver/Src/stm32l0xx_hal_rcc.c ****       else
 478:Drivers/STM32L0xx_HAL_Driver/Src/stm32l0xx_hal_rcc.c ****       {
 479:Drivers/STM32L0xx_HAL_Driver/Src/stm32l0xx_hal_rcc.c ****         /* Disable the Internal High Speed oscillator (HSI). */
 480:Drivers/STM32L0xx_HAL_Driver/Src/stm32l0xx_hal_rcc.c ****         __HAL_RCC_HSI_DISABLE();
 481:Drivers/STM32L0xx_HAL_Driver/Src/stm32l0xx_hal_rcc.c **** 
 482:Drivers/STM32L0xx_HAL_Driver/Src/stm32l0xx_hal_rcc.c ****         /* Get Start Tick */
 483:Drivers/STM32L0xx_HAL_Driver/Src/stm32l0xx_hal_rcc.c ****         tickstart = HAL_GetTick();
 484:Drivers/STM32L0xx_HAL_Driver/Src/stm32l0xx_hal_rcc.c **** 
 485:Drivers/STM32L0xx_HAL_Driver/Src/stm32l0xx_hal_rcc.c ****         /* Wait till HSI is disabled */
 486:Drivers/STM32L0xx_HAL_Driver/Src/stm32l0xx_hal_rcc.c ****         while(__HAL_RCC_GET_FLAG(RCC_FLAG_HSIRDY) != 0U)
 487:Drivers/STM32L0xx_HAL_Driver/Src/stm32l0xx_hal_rcc.c ****         {
 488:Drivers/STM32L0xx_HAL_Driver/Src/stm32l0xx_hal_rcc.c ****           if((HAL_GetTick() - tickstart ) > HSI_TIMEOUT_VALUE)
 489:Drivers/STM32L0xx_HAL_Driver/Src/stm32l0xx_hal_rcc.c ****           {
 490:Drivers/STM32L0xx_HAL_Driver/Src/stm32l0xx_hal_rcc.c ****             return HAL_TIMEOUT;
 491:Drivers/STM32L0xx_HAL_Driver/Src/stm32l0xx_hal_rcc.c ****           }
 492:Drivers/STM32L0xx_HAL_Driver/Src/stm32l0xx_hal_rcc.c ****         }
 493:Drivers/STM32L0xx_HAL_Driver/Src/stm32l0xx_hal_rcc.c ****       }
 494:Drivers/STM32L0xx_HAL_Driver/Src/stm32l0xx_hal_rcc.c ****     }
 495:Drivers/STM32L0xx_HAL_Driver/Src/stm32l0xx_hal_rcc.c ****   }
 496:Drivers/STM32L0xx_HAL_Driver/Src/stm32l0xx_hal_rcc.c ****   /*----------------------------- MSI Configuration --------------------------*/
 497:Drivers/STM32L0xx_HAL_Driver/Src/stm32l0xx_hal_rcc.c ****   if(((RCC_OscInitStruct->OscillatorType) & RCC_OSCILLATORTYPE_MSI) == RCC_OSCILLATORTYPE_MSI)
 498:Drivers/STM32L0xx_HAL_Driver/Src/stm32l0xx_hal_rcc.c ****   {
 499:Drivers/STM32L0xx_HAL_Driver/Src/stm32l0xx_hal_rcc.c ****     /* When the MSI is used as system clock it will not be disabled */
 500:Drivers/STM32L0xx_HAL_Driver/Src/stm32l0xx_hal_rcc.c ****     if(sysclk_source == RCC_CFGR_SWS_MSI)
 501:Drivers/STM32L0xx_HAL_Driver/Src/stm32l0xx_hal_rcc.c ****     {
 502:Drivers/STM32L0xx_HAL_Driver/Src/stm32l0xx_hal_rcc.c ****       if((__HAL_RCC_GET_FLAG(RCC_FLAG_MSIRDY) != 0U) && (RCC_OscInitStruct->MSIState == RCC_MSI_OFF
 503:Drivers/STM32L0xx_HAL_Driver/Src/stm32l0xx_hal_rcc.c ****       {
 504:Drivers/STM32L0xx_HAL_Driver/Src/stm32l0xx_hal_rcc.c ****         return HAL_ERROR;
 505:Drivers/STM32L0xx_HAL_Driver/Src/stm32l0xx_hal_rcc.c ****       }
 506:Drivers/STM32L0xx_HAL_Driver/Src/stm32l0xx_hal_rcc.c ****       /* Otherwise, just the calibration and MSI range change are allowed */
 507:Drivers/STM32L0xx_HAL_Driver/Src/stm32l0xx_hal_rcc.c ****       else
 508:Drivers/STM32L0xx_HAL_Driver/Src/stm32l0xx_hal_rcc.c ****       {
 509:Drivers/STM32L0xx_HAL_Driver/Src/stm32l0xx_hal_rcc.c ****         /* Check MSICalibrationValue and MSIClockRange input parameters */
 510:Drivers/STM32L0xx_HAL_Driver/Src/stm32l0xx_hal_rcc.c ****         assert_param(IS_RCC_MSICALIBRATION_VALUE(RCC_OscInitStruct->MSICalibrationValue));
 511:Drivers/STM32L0xx_HAL_Driver/Src/stm32l0xx_hal_rcc.c ****         assert_param(IS_RCC_MSI_CLOCK_RANGE(RCC_OscInitStruct->MSIClockRange));
 512:Drivers/STM32L0xx_HAL_Driver/Src/stm32l0xx_hal_rcc.c **** 
 513:Drivers/STM32L0xx_HAL_Driver/Src/stm32l0xx_hal_rcc.c ****         /* Selects the Multiple Speed oscillator (MSI) clock range .*/
 514:Drivers/STM32L0xx_HAL_Driver/Src/stm32l0xx_hal_rcc.c ****         __HAL_RCC_MSI_RANGE_CONFIG(RCC_OscInitStruct->MSIClockRange);
 515:Drivers/STM32L0xx_HAL_Driver/Src/stm32l0xx_hal_rcc.c ****         /* Adjusts the Multiple Speed oscillator (MSI) calibration value.*/
 516:Drivers/STM32L0xx_HAL_Driver/Src/stm32l0xx_hal_rcc.c ****         __HAL_RCC_MSI_CALIBRATIONVALUE_ADJUST(RCC_OscInitStruct->MSICalibrationValue);
 517:Drivers/STM32L0xx_HAL_Driver/Src/stm32l0xx_hal_rcc.c **** 
 518:Drivers/STM32L0xx_HAL_Driver/Src/stm32l0xx_hal_rcc.c **** 
ARM GAS  /tmp/ccOARe22.s 			page 15


 519:Drivers/STM32L0xx_HAL_Driver/Src/stm32l0xx_hal_rcc.c ****         /* Update the SystemCoreClock global variable */
 520:Drivers/STM32L0xx_HAL_Driver/Src/stm32l0xx_hal_rcc.c ****         SystemCoreClock =  (32768U * (1UL << ((RCC_OscInitStruct->MSIClockRange >> RCC_ICSCR_MSIRAN
 521:Drivers/STM32L0xx_HAL_Driver/Src/stm32l0xx_hal_rcc.c ****                            >> AHBPrescTable[((RCC->CFGR & RCC_CFGR_HPRE) >> RCC_CFGR_HPRE_Pos)];
 522:Drivers/STM32L0xx_HAL_Driver/Src/stm32l0xx_hal_rcc.c **** 
 523:Drivers/STM32L0xx_HAL_Driver/Src/stm32l0xx_hal_rcc.c ****         /* Configure the source of time base considering new system clocks settings*/
 524:Drivers/STM32L0xx_HAL_Driver/Src/stm32l0xx_hal_rcc.c ****         status = HAL_InitTick (uwTickPrio);
 525:Drivers/STM32L0xx_HAL_Driver/Src/stm32l0xx_hal_rcc.c ****         if(status != HAL_OK)
 526:Drivers/STM32L0xx_HAL_Driver/Src/stm32l0xx_hal_rcc.c ****         {
 527:Drivers/STM32L0xx_HAL_Driver/Src/stm32l0xx_hal_rcc.c ****           return status;
 528:Drivers/STM32L0xx_HAL_Driver/Src/stm32l0xx_hal_rcc.c ****         }
 529:Drivers/STM32L0xx_HAL_Driver/Src/stm32l0xx_hal_rcc.c ****       }
 530:Drivers/STM32L0xx_HAL_Driver/Src/stm32l0xx_hal_rcc.c ****     }
 531:Drivers/STM32L0xx_HAL_Driver/Src/stm32l0xx_hal_rcc.c ****     else
 532:Drivers/STM32L0xx_HAL_Driver/Src/stm32l0xx_hal_rcc.c ****     {
 533:Drivers/STM32L0xx_HAL_Driver/Src/stm32l0xx_hal_rcc.c ****       /* Check MSI State */
 534:Drivers/STM32L0xx_HAL_Driver/Src/stm32l0xx_hal_rcc.c ****       assert_param(IS_RCC_MSI(RCC_OscInitStruct->MSIState));
 535:Drivers/STM32L0xx_HAL_Driver/Src/stm32l0xx_hal_rcc.c **** 
 536:Drivers/STM32L0xx_HAL_Driver/Src/stm32l0xx_hal_rcc.c ****       /* Check the MSI State */
 537:Drivers/STM32L0xx_HAL_Driver/Src/stm32l0xx_hal_rcc.c ****       if(RCC_OscInitStruct->MSIState != RCC_MSI_OFF)
 538:Drivers/STM32L0xx_HAL_Driver/Src/stm32l0xx_hal_rcc.c ****       {
 539:Drivers/STM32L0xx_HAL_Driver/Src/stm32l0xx_hal_rcc.c ****         /* Enable the Multi Speed oscillator (MSI). */
 540:Drivers/STM32L0xx_HAL_Driver/Src/stm32l0xx_hal_rcc.c ****         __HAL_RCC_MSI_ENABLE();
 541:Drivers/STM32L0xx_HAL_Driver/Src/stm32l0xx_hal_rcc.c **** 
 542:Drivers/STM32L0xx_HAL_Driver/Src/stm32l0xx_hal_rcc.c ****         /* Get Start Tick */
 543:Drivers/STM32L0xx_HAL_Driver/Src/stm32l0xx_hal_rcc.c ****         tickstart = HAL_GetTick();
 544:Drivers/STM32L0xx_HAL_Driver/Src/stm32l0xx_hal_rcc.c **** 
 545:Drivers/STM32L0xx_HAL_Driver/Src/stm32l0xx_hal_rcc.c ****         /* Wait till MSI is ready */
 546:Drivers/STM32L0xx_HAL_Driver/Src/stm32l0xx_hal_rcc.c ****         while(__HAL_RCC_GET_FLAG(RCC_FLAG_MSIRDY) == 0U)
 547:Drivers/STM32L0xx_HAL_Driver/Src/stm32l0xx_hal_rcc.c ****         {
 548:Drivers/STM32L0xx_HAL_Driver/Src/stm32l0xx_hal_rcc.c ****           if((HAL_GetTick() - tickstart) > MSI_TIMEOUT_VALUE)
 549:Drivers/STM32L0xx_HAL_Driver/Src/stm32l0xx_hal_rcc.c ****           {
 550:Drivers/STM32L0xx_HAL_Driver/Src/stm32l0xx_hal_rcc.c ****             return HAL_TIMEOUT;
 551:Drivers/STM32L0xx_HAL_Driver/Src/stm32l0xx_hal_rcc.c ****           }
 552:Drivers/STM32L0xx_HAL_Driver/Src/stm32l0xx_hal_rcc.c ****         }
 553:Drivers/STM32L0xx_HAL_Driver/Src/stm32l0xx_hal_rcc.c ****         /* Check MSICalibrationValue and MSIClockRange input parameters */
 554:Drivers/STM32L0xx_HAL_Driver/Src/stm32l0xx_hal_rcc.c ****         assert_param(IS_RCC_MSICALIBRATION_VALUE(RCC_OscInitStruct->MSICalibrationValue));
 555:Drivers/STM32L0xx_HAL_Driver/Src/stm32l0xx_hal_rcc.c ****         assert_param(IS_RCC_MSI_CLOCK_RANGE(RCC_OscInitStruct->MSIClockRange));
 556:Drivers/STM32L0xx_HAL_Driver/Src/stm32l0xx_hal_rcc.c **** 
 557:Drivers/STM32L0xx_HAL_Driver/Src/stm32l0xx_hal_rcc.c ****         /* Selects the Multiple Speed oscillator (MSI) clock range .*/
 558:Drivers/STM32L0xx_HAL_Driver/Src/stm32l0xx_hal_rcc.c ****         __HAL_RCC_MSI_RANGE_CONFIG(RCC_OscInitStruct->MSIClockRange);
 559:Drivers/STM32L0xx_HAL_Driver/Src/stm32l0xx_hal_rcc.c ****          /* Adjusts the Multiple Speed oscillator (MSI) calibration value.*/
 560:Drivers/STM32L0xx_HAL_Driver/Src/stm32l0xx_hal_rcc.c ****         __HAL_RCC_MSI_CALIBRATIONVALUE_ADJUST(RCC_OscInitStruct->MSICalibrationValue);
 561:Drivers/STM32L0xx_HAL_Driver/Src/stm32l0xx_hal_rcc.c ****       }
 562:Drivers/STM32L0xx_HAL_Driver/Src/stm32l0xx_hal_rcc.c ****       else
 563:Drivers/STM32L0xx_HAL_Driver/Src/stm32l0xx_hal_rcc.c ****       {
 564:Drivers/STM32L0xx_HAL_Driver/Src/stm32l0xx_hal_rcc.c ****         /* Disable the Multi Speed oscillator (MSI). */
 565:Drivers/STM32L0xx_HAL_Driver/Src/stm32l0xx_hal_rcc.c ****         __HAL_RCC_MSI_DISABLE();
 566:Drivers/STM32L0xx_HAL_Driver/Src/stm32l0xx_hal_rcc.c **** 
 567:Drivers/STM32L0xx_HAL_Driver/Src/stm32l0xx_hal_rcc.c ****         /* Get Start Tick */
 568:Drivers/STM32L0xx_HAL_Driver/Src/stm32l0xx_hal_rcc.c ****         tickstart = HAL_GetTick();
 569:Drivers/STM32L0xx_HAL_Driver/Src/stm32l0xx_hal_rcc.c **** 
 570:Drivers/STM32L0xx_HAL_Driver/Src/stm32l0xx_hal_rcc.c ****         /* Wait till MSI is ready */
 571:Drivers/STM32L0xx_HAL_Driver/Src/stm32l0xx_hal_rcc.c ****         while(__HAL_RCC_GET_FLAG(RCC_FLAG_MSIRDY) != 0U)
 572:Drivers/STM32L0xx_HAL_Driver/Src/stm32l0xx_hal_rcc.c ****         {
 573:Drivers/STM32L0xx_HAL_Driver/Src/stm32l0xx_hal_rcc.c ****           if((HAL_GetTick() - tickstart) > MSI_TIMEOUT_VALUE)
 574:Drivers/STM32L0xx_HAL_Driver/Src/stm32l0xx_hal_rcc.c ****           {
 575:Drivers/STM32L0xx_HAL_Driver/Src/stm32l0xx_hal_rcc.c ****             return HAL_TIMEOUT;
ARM GAS  /tmp/ccOARe22.s 			page 16


 576:Drivers/STM32L0xx_HAL_Driver/Src/stm32l0xx_hal_rcc.c ****           }
 577:Drivers/STM32L0xx_HAL_Driver/Src/stm32l0xx_hal_rcc.c ****         }
 578:Drivers/STM32L0xx_HAL_Driver/Src/stm32l0xx_hal_rcc.c ****       }
 579:Drivers/STM32L0xx_HAL_Driver/Src/stm32l0xx_hal_rcc.c ****     }
 580:Drivers/STM32L0xx_HAL_Driver/Src/stm32l0xx_hal_rcc.c ****   }
 581:Drivers/STM32L0xx_HAL_Driver/Src/stm32l0xx_hal_rcc.c ****   /*------------------------------ LSI Configuration -------------------------*/
 582:Drivers/STM32L0xx_HAL_Driver/Src/stm32l0xx_hal_rcc.c ****   if(((RCC_OscInitStruct->OscillatorType) & RCC_OSCILLATORTYPE_LSI) == RCC_OSCILLATORTYPE_LSI)
 583:Drivers/STM32L0xx_HAL_Driver/Src/stm32l0xx_hal_rcc.c ****   {
 584:Drivers/STM32L0xx_HAL_Driver/Src/stm32l0xx_hal_rcc.c ****     /* Check the parameters */
 585:Drivers/STM32L0xx_HAL_Driver/Src/stm32l0xx_hal_rcc.c ****     assert_param(IS_RCC_LSI(RCC_OscInitStruct->LSIState));
 586:Drivers/STM32L0xx_HAL_Driver/Src/stm32l0xx_hal_rcc.c **** 
 587:Drivers/STM32L0xx_HAL_Driver/Src/stm32l0xx_hal_rcc.c ****     /* Check the LSI State */
 588:Drivers/STM32L0xx_HAL_Driver/Src/stm32l0xx_hal_rcc.c ****     if(RCC_OscInitStruct->LSIState != RCC_LSI_OFF)
 589:Drivers/STM32L0xx_HAL_Driver/Src/stm32l0xx_hal_rcc.c ****     {
 590:Drivers/STM32L0xx_HAL_Driver/Src/stm32l0xx_hal_rcc.c ****       /* Enable the Internal Low Speed oscillator (LSI). */
 591:Drivers/STM32L0xx_HAL_Driver/Src/stm32l0xx_hal_rcc.c ****       __HAL_RCC_LSI_ENABLE();
 592:Drivers/STM32L0xx_HAL_Driver/Src/stm32l0xx_hal_rcc.c **** 
 593:Drivers/STM32L0xx_HAL_Driver/Src/stm32l0xx_hal_rcc.c ****       /* Get Start Tick */
 594:Drivers/STM32L0xx_HAL_Driver/Src/stm32l0xx_hal_rcc.c ****       tickstart = HAL_GetTick();
 595:Drivers/STM32L0xx_HAL_Driver/Src/stm32l0xx_hal_rcc.c **** 
 596:Drivers/STM32L0xx_HAL_Driver/Src/stm32l0xx_hal_rcc.c ****       /* Wait till LSI is ready */
 597:Drivers/STM32L0xx_HAL_Driver/Src/stm32l0xx_hal_rcc.c ****       while(__HAL_RCC_GET_FLAG(RCC_FLAG_LSIRDY) == 0U)
 598:Drivers/STM32L0xx_HAL_Driver/Src/stm32l0xx_hal_rcc.c ****       {
 599:Drivers/STM32L0xx_HAL_Driver/Src/stm32l0xx_hal_rcc.c ****         if((HAL_GetTick() - tickstart ) > LSI_TIMEOUT_VALUE)
 600:Drivers/STM32L0xx_HAL_Driver/Src/stm32l0xx_hal_rcc.c ****         {
 601:Drivers/STM32L0xx_HAL_Driver/Src/stm32l0xx_hal_rcc.c ****           return HAL_TIMEOUT;
 602:Drivers/STM32L0xx_HAL_Driver/Src/stm32l0xx_hal_rcc.c ****         }
 603:Drivers/STM32L0xx_HAL_Driver/Src/stm32l0xx_hal_rcc.c ****       }
 604:Drivers/STM32L0xx_HAL_Driver/Src/stm32l0xx_hal_rcc.c ****     }
 605:Drivers/STM32L0xx_HAL_Driver/Src/stm32l0xx_hal_rcc.c ****     else
 606:Drivers/STM32L0xx_HAL_Driver/Src/stm32l0xx_hal_rcc.c ****     {
 607:Drivers/STM32L0xx_HAL_Driver/Src/stm32l0xx_hal_rcc.c ****       /* Disable the Internal Low Speed oscillator (LSI). */
 608:Drivers/STM32L0xx_HAL_Driver/Src/stm32l0xx_hal_rcc.c ****       __HAL_RCC_LSI_DISABLE();
 609:Drivers/STM32L0xx_HAL_Driver/Src/stm32l0xx_hal_rcc.c **** 
 610:Drivers/STM32L0xx_HAL_Driver/Src/stm32l0xx_hal_rcc.c ****       /* Get Start Tick */
 611:Drivers/STM32L0xx_HAL_Driver/Src/stm32l0xx_hal_rcc.c ****       tickstart = HAL_GetTick();
 612:Drivers/STM32L0xx_HAL_Driver/Src/stm32l0xx_hal_rcc.c **** 
 613:Drivers/STM32L0xx_HAL_Driver/Src/stm32l0xx_hal_rcc.c ****       /* Wait till LSI is disabled */
 614:Drivers/STM32L0xx_HAL_Driver/Src/stm32l0xx_hal_rcc.c ****       while(__HAL_RCC_GET_FLAG(RCC_FLAG_LSIRDY) != 0U)
 615:Drivers/STM32L0xx_HAL_Driver/Src/stm32l0xx_hal_rcc.c ****       {
 616:Drivers/STM32L0xx_HAL_Driver/Src/stm32l0xx_hal_rcc.c ****         if((HAL_GetTick() - tickstart ) > LSI_TIMEOUT_VALUE)
 617:Drivers/STM32L0xx_HAL_Driver/Src/stm32l0xx_hal_rcc.c ****         {
 618:Drivers/STM32L0xx_HAL_Driver/Src/stm32l0xx_hal_rcc.c ****           return HAL_TIMEOUT;
 619:Drivers/STM32L0xx_HAL_Driver/Src/stm32l0xx_hal_rcc.c ****         }
 620:Drivers/STM32L0xx_HAL_Driver/Src/stm32l0xx_hal_rcc.c ****       }
 621:Drivers/STM32L0xx_HAL_Driver/Src/stm32l0xx_hal_rcc.c ****     }
 622:Drivers/STM32L0xx_HAL_Driver/Src/stm32l0xx_hal_rcc.c ****   }
 623:Drivers/STM32L0xx_HAL_Driver/Src/stm32l0xx_hal_rcc.c ****   /*------------------------------ LSE Configuration -------------------------*/
 624:Drivers/STM32L0xx_HAL_Driver/Src/stm32l0xx_hal_rcc.c ****   if(((RCC_OscInitStruct->OscillatorType) & RCC_OSCILLATORTYPE_LSE) == RCC_OSCILLATORTYPE_LSE)
 625:Drivers/STM32L0xx_HAL_Driver/Src/stm32l0xx_hal_rcc.c ****   {
 626:Drivers/STM32L0xx_HAL_Driver/Src/stm32l0xx_hal_rcc.c ****     FlagStatus       pwrclkchanged = RESET;
 627:Drivers/STM32L0xx_HAL_Driver/Src/stm32l0xx_hal_rcc.c **** 
 628:Drivers/STM32L0xx_HAL_Driver/Src/stm32l0xx_hal_rcc.c ****     /* Check the parameters */
 629:Drivers/STM32L0xx_HAL_Driver/Src/stm32l0xx_hal_rcc.c ****     assert_param(IS_RCC_LSE(RCC_OscInitStruct->LSEState));
 630:Drivers/STM32L0xx_HAL_Driver/Src/stm32l0xx_hal_rcc.c **** 
 631:Drivers/STM32L0xx_HAL_Driver/Src/stm32l0xx_hal_rcc.c ****     /* Update LSE configuration in Backup Domain control register    */
 632:Drivers/STM32L0xx_HAL_Driver/Src/stm32l0xx_hal_rcc.c ****     /* Requires to enable write access to Backup Domain of necessary */
ARM GAS  /tmp/ccOARe22.s 			page 17


 633:Drivers/STM32L0xx_HAL_Driver/Src/stm32l0xx_hal_rcc.c ****     if(__HAL_RCC_PWR_IS_CLK_DISABLED())
 634:Drivers/STM32L0xx_HAL_Driver/Src/stm32l0xx_hal_rcc.c ****     {
 635:Drivers/STM32L0xx_HAL_Driver/Src/stm32l0xx_hal_rcc.c ****       __HAL_RCC_PWR_CLK_ENABLE();
 636:Drivers/STM32L0xx_HAL_Driver/Src/stm32l0xx_hal_rcc.c ****       pwrclkchanged = SET;
 637:Drivers/STM32L0xx_HAL_Driver/Src/stm32l0xx_hal_rcc.c ****     }
 638:Drivers/STM32L0xx_HAL_Driver/Src/stm32l0xx_hal_rcc.c **** 
 639:Drivers/STM32L0xx_HAL_Driver/Src/stm32l0xx_hal_rcc.c ****     if(HAL_IS_BIT_CLR(PWR->CR, PWR_CR_DBP))
 640:Drivers/STM32L0xx_HAL_Driver/Src/stm32l0xx_hal_rcc.c ****     {
 641:Drivers/STM32L0xx_HAL_Driver/Src/stm32l0xx_hal_rcc.c ****       /* Enable write access to Backup domain */
 642:Drivers/STM32L0xx_HAL_Driver/Src/stm32l0xx_hal_rcc.c ****       SET_BIT(PWR->CR, PWR_CR_DBP);
 643:Drivers/STM32L0xx_HAL_Driver/Src/stm32l0xx_hal_rcc.c **** 
 644:Drivers/STM32L0xx_HAL_Driver/Src/stm32l0xx_hal_rcc.c ****       /* Wait for Backup domain Write protection disable */
 645:Drivers/STM32L0xx_HAL_Driver/Src/stm32l0xx_hal_rcc.c ****       tickstart = HAL_GetTick();
 646:Drivers/STM32L0xx_HAL_Driver/Src/stm32l0xx_hal_rcc.c **** 
 647:Drivers/STM32L0xx_HAL_Driver/Src/stm32l0xx_hal_rcc.c ****       while(HAL_IS_BIT_CLR(PWR->CR, PWR_CR_DBP))
 648:Drivers/STM32L0xx_HAL_Driver/Src/stm32l0xx_hal_rcc.c ****       {
 649:Drivers/STM32L0xx_HAL_Driver/Src/stm32l0xx_hal_rcc.c ****         if((HAL_GetTick() - tickstart) > RCC_DBP_TIMEOUT_VALUE)
 650:Drivers/STM32L0xx_HAL_Driver/Src/stm32l0xx_hal_rcc.c ****         {
 651:Drivers/STM32L0xx_HAL_Driver/Src/stm32l0xx_hal_rcc.c ****           return HAL_TIMEOUT;
 652:Drivers/STM32L0xx_HAL_Driver/Src/stm32l0xx_hal_rcc.c ****         }
 653:Drivers/STM32L0xx_HAL_Driver/Src/stm32l0xx_hal_rcc.c ****       }
 654:Drivers/STM32L0xx_HAL_Driver/Src/stm32l0xx_hal_rcc.c ****     }
 655:Drivers/STM32L0xx_HAL_Driver/Src/stm32l0xx_hal_rcc.c **** 
 656:Drivers/STM32L0xx_HAL_Driver/Src/stm32l0xx_hal_rcc.c ****     /* Set the new LSE configuration -----------------------------------------*/
 657:Drivers/STM32L0xx_HAL_Driver/Src/stm32l0xx_hal_rcc.c ****     __HAL_RCC_LSE_CONFIG(RCC_OscInitStruct->LSEState);
 658:Drivers/STM32L0xx_HAL_Driver/Src/stm32l0xx_hal_rcc.c **** 
 659:Drivers/STM32L0xx_HAL_Driver/Src/stm32l0xx_hal_rcc.c ****     /* Check the LSE State */
 660:Drivers/STM32L0xx_HAL_Driver/Src/stm32l0xx_hal_rcc.c ****     if(RCC_OscInitStruct->LSEState != RCC_LSE_OFF)
 661:Drivers/STM32L0xx_HAL_Driver/Src/stm32l0xx_hal_rcc.c ****     {
 662:Drivers/STM32L0xx_HAL_Driver/Src/stm32l0xx_hal_rcc.c ****       /* Get Start Tick */
 663:Drivers/STM32L0xx_HAL_Driver/Src/stm32l0xx_hal_rcc.c ****       tickstart = HAL_GetTick();
 664:Drivers/STM32L0xx_HAL_Driver/Src/stm32l0xx_hal_rcc.c **** 
 665:Drivers/STM32L0xx_HAL_Driver/Src/stm32l0xx_hal_rcc.c ****       /* Wait till LSE is ready */
 666:Drivers/STM32L0xx_HAL_Driver/Src/stm32l0xx_hal_rcc.c ****       while(__HAL_RCC_GET_FLAG(RCC_FLAG_LSERDY) == 0U)
 667:Drivers/STM32L0xx_HAL_Driver/Src/stm32l0xx_hal_rcc.c ****       {
 668:Drivers/STM32L0xx_HAL_Driver/Src/stm32l0xx_hal_rcc.c ****         if((HAL_GetTick() - tickstart ) > RCC_LSE_TIMEOUT_VALUE)
 669:Drivers/STM32L0xx_HAL_Driver/Src/stm32l0xx_hal_rcc.c ****         {
 670:Drivers/STM32L0xx_HAL_Driver/Src/stm32l0xx_hal_rcc.c ****           return HAL_TIMEOUT;
 671:Drivers/STM32L0xx_HAL_Driver/Src/stm32l0xx_hal_rcc.c ****         }
 672:Drivers/STM32L0xx_HAL_Driver/Src/stm32l0xx_hal_rcc.c ****       }
 673:Drivers/STM32L0xx_HAL_Driver/Src/stm32l0xx_hal_rcc.c ****     }
 674:Drivers/STM32L0xx_HAL_Driver/Src/stm32l0xx_hal_rcc.c ****     else
 675:Drivers/STM32L0xx_HAL_Driver/Src/stm32l0xx_hal_rcc.c ****     {
 676:Drivers/STM32L0xx_HAL_Driver/Src/stm32l0xx_hal_rcc.c ****       /* Get Start Tick */
 677:Drivers/STM32L0xx_HAL_Driver/Src/stm32l0xx_hal_rcc.c ****       tickstart = HAL_GetTick();
 678:Drivers/STM32L0xx_HAL_Driver/Src/stm32l0xx_hal_rcc.c **** 
 679:Drivers/STM32L0xx_HAL_Driver/Src/stm32l0xx_hal_rcc.c ****       /* Wait till LSE is disabled */
 680:Drivers/STM32L0xx_HAL_Driver/Src/stm32l0xx_hal_rcc.c ****       while(__HAL_RCC_GET_FLAG(RCC_FLAG_LSERDY) != 0U)
 681:Drivers/STM32L0xx_HAL_Driver/Src/stm32l0xx_hal_rcc.c ****       {
 682:Drivers/STM32L0xx_HAL_Driver/Src/stm32l0xx_hal_rcc.c ****         if((HAL_GetTick() - tickstart ) > RCC_LSE_TIMEOUT_VALUE)
 683:Drivers/STM32L0xx_HAL_Driver/Src/stm32l0xx_hal_rcc.c ****         {
 684:Drivers/STM32L0xx_HAL_Driver/Src/stm32l0xx_hal_rcc.c ****           return HAL_TIMEOUT;
 685:Drivers/STM32L0xx_HAL_Driver/Src/stm32l0xx_hal_rcc.c ****         }
 686:Drivers/STM32L0xx_HAL_Driver/Src/stm32l0xx_hal_rcc.c ****       }
 687:Drivers/STM32L0xx_HAL_Driver/Src/stm32l0xx_hal_rcc.c ****     }
 688:Drivers/STM32L0xx_HAL_Driver/Src/stm32l0xx_hal_rcc.c **** 
 689:Drivers/STM32L0xx_HAL_Driver/Src/stm32l0xx_hal_rcc.c ****     /* Require to disable power clock if necessary */
ARM GAS  /tmp/ccOARe22.s 			page 18


 690:Drivers/STM32L0xx_HAL_Driver/Src/stm32l0xx_hal_rcc.c ****     if(pwrclkchanged == SET)
 691:Drivers/STM32L0xx_HAL_Driver/Src/stm32l0xx_hal_rcc.c ****     {
 692:Drivers/STM32L0xx_HAL_Driver/Src/stm32l0xx_hal_rcc.c ****       __HAL_RCC_PWR_CLK_DISABLE();
 693:Drivers/STM32L0xx_HAL_Driver/Src/stm32l0xx_hal_rcc.c ****     }
 694:Drivers/STM32L0xx_HAL_Driver/Src/stm32l0xx_hal_rcc.c ****   }
 695:Drivers/STM32L0xx_HAL_Driver/Src/stm32l0xx_hal_rcc.c **** 
 696:Drivers/STM32L0xx_HAL_Driver/Src/stm32l0xx_hal_rcc.c **** #if defined(RCC_HSI48_SUPPORT)
 697:Drivers/STM32L0xx_HAL_Driver/Src/stm32l0xx_hal_rcc.c ****   /*----------------------------- HSI48 Configuration --------------------------*/
 698:Drivers/STM32L0xx_HAL_Driver/Src/stm32l0xx_hal_rcc.c ****   if(((RCC_OscInitStruct->OscillatorType) & RCC_OSCILLATORTYPE_HSI48) == RCC_OSCILLATORTYPE_HSI48)
 699:Drivers/STM32L0xx_HAL_Driver/Src/stm32l0xx_hal_rcc.c ****   {
 700:Drivers/STM32L0xx_HAL_Driver/Src/stm32l0xx_hal_rcc.c ****     /* Check the parameters */
 701:Drivers/STM32L0xx_HAL_Driver/Src/stm32l0xx_hal_rcc.c ****     assert_param(IS_RCC_HSI48(RCC_OscInitStruct->HSI48State));
 702:Drivers/STM32L0xx_HAL_Driver/Src/stm32l0xx_hal_rcc.c **** 
 703:Drivers/STM32L0xx_HAL_Driver/Src/stm32l0xx_hal_rcc.c ****       /* Check the HSI48 State */
 704:Drivers/STM32L0xx_HAL_Driver/Src/stm32l0xx_hal_rcc.c ****       if(RCC_OscInitStruct->HSI48State != RCC_HSI48_OFF)
 705:Drivers/STM32L0xx_HAL_Driver/Src/stm32l0xx_hal_rcc.c ****       {
 706:Drivers/STM32L0xx_HAL_Driver/Src/stm32l0xx_hal_rcc.c ****         /* Enable the Internal High Speed oscillator (HSI48). */
 707:Drivers/STM32L0xx_HAL_Driver/Src/stm32l0xx_hal_rcc.c ****         __HAL_RCC_HSI48_ENABLE();
 708:Drivers/STM32L0xx_HAL_Driver/Src/stm32l0xx_hal_rcc.c **** 
 709:Drivers/STM32L0xx_HAL_Driver/Src/stm32l0xx_hal_rcc.c ****         /* Get Start Tick */
 710:Drivers/STM32L0xx_HAL_Driver/Src/stm32l0xx_hal_rcc.c ****         tickstart = HAL_GetTick();
 711:Drivers/STM32L0xx_HAL_Driver/Src/stm32l0xx_hal_rcc.c **** 
 712:Drivers/STM32L0xx_HAL_Driver/Src/stm32l0xx_hal_rcc.c ****         /* Wait till HSI48 is ready */
 713:Drivers/STM32L0xx_HAL_Driver/Src/stm32l0xx_hal_rcc.c ****         while(__HAL_RCC_GET_FLAG(RCC_FLAG_HSI48RDY) == 0U)
 714:Drivers/STM32L0xx_HAL_Driver/Src/stm32l0xx_hal_rcc.c ****         {
 715:Drivers/STM32L0xx_HAL_Driver/Src/stm32l0xx_hal_rcc.c ****           if((HAL_GetTick() - tickstart) > HSI48_TIMEOUT_VALUE)
 716:Drivers/STM32L0xx_HAL_Driver/Src/stm32l0xx_hal_rcc.c ****           {
 717:Drivers/STM32L0xx_HAL_Driver/Src/stm32l0xx_hal_rcc.c ****             return HAL_TIMEOUT;
 718:Drivers/STM32L0xx_HAL_Driver/Src/stm32l0xx_hal_rcc.c ****           }
 719:Drivers/STM32L0xx_HAL_Driver/Src/stm32l0xx_hal_rcc.c ****         }
 720:Drivers/STM32L0xx_HAL_Driver/Src/stm32l0xx_hal_rcc.c ****       }
 721:Drivers/STM32L0xx_HAL_Driver/Src/stm32l0xx_hal_rcc.c ****       else
 722:Drivers/STM32L0xx_HAL_Driver/Src/stm32l0xx_hal_rcc.c ****       {
 723:Drivers/STM32L0xx_HAL_Driver/Src/stm32l0xx_hal_rcc.c ****         /* Disable the Internal High Speed oscillator (HSI48). */
 724:Drivers/STM32L0xx_HAL_Driver/Src/stm32l0xx_hal_rcc.c ****         __HAL_RCC_HSI48_DISABLE();
 725:Drivers/STM32L0xx_HAL_Driver/Src/stm32l0xx_hal_rcc.c **** 
 726:Drivers/STM32L0xx_HAL_Driver/Src/stm32l0xx_hal_rcc.c ****         /* Get Start Tick */
 727:Drivers/STM32L0xx_HAL_Driver/Src/stm32l0xx_hal_rcc.c ****         tickstart = HAL_GetTick();
 728:Drivers/STM32L0xx_HAL_Driver/Src/stm32l0xx_hal_rcc.c **** 
 729:Drivers/STM32L0xx_HAL_Driver/Src/stm32l0xx_hal_rcc.c ****         /* Wait till HSI48 is ready */
 730:Drivers/STM32L0xx_HAL_Driver/Src/stm32l0xx_hal_rcc.c ****         while(__HAL_RCC_GET_FLAG(RCC_FLAG_HSI48RDY) != 0U)
 731:Drivers/STM32L0xx_HAL_Driver/Src/stm32l0xx_hal_rcc.c ****         {
 732:Drivers/STM32L0xx_HAL_Driver/Src/stm32l0xx_hal_rcc.c ****           if((HAL_GetTick() - tickstart) > HSI48_TIMEOUT_VALUE)
 733:Drivers/STM32L0xx_HAL_Driver/Src/stm32l0xx_hal_rcc.c ****           {
 734:Drivers/STM32L0xx_HAL_Driver/Src/stm32l0xx_hal_rcc.c ****             return HAL_TIMEOUT;
 735:Drivers/STM32L0xx_HAL_Driver/Src/stm32l0xx_hal_rcc.c ****           }
 736:Drivers/STM32L0xx_HAL_Driver/Src/stm32l0xx_hal_rcc.c ****         }
 737:Drivers/STM32L0xx_HAL_Driver/Src/stm32l0xx_hal_rcc.c ****       }
 738:Drivers/STM32L0xx_HAL_Driver/Src/stm32l0xx_hal_rcc.c ****   }
 739:Drivers/STM32L0xx_HAL_Driver/Src/stm32l0xx_hal_rcc.c **** #endif /* RCC_HSI48_SUPPORT */
 740:Drivers/STM32L0xx_HAL_Driver/Src/stm32l0xx_hal_rcc.c **** 
 741:Drivers/STM32L0xx_HAL_Driver/Src/stm32l0xx_hal_rcc.c ****   /*-------------------------------- PLL Configuration -----------------------*/
 742:Drivers/STM32L0xx_HAL_Driver/Src/stm32l0xx_hal_rcc.c ****   /* Check the parameters */
 743:Drivers/STM32L0xx_HAL_Driver/Src/stm32l0xx_hal_rcc.c ****   assert_param(IS_RCC_PLL(RCC_OscInitStruct->PLL.PLLState));
 744:Drivers/STM32L0xx_HAL_Driver/Src/stm32l0xx_hal_rcc.c ****   if ((RCC_OscInitStruct->PLL.PLLState) != RCC_PLL_NONE)
 745:Drivers/STM32L0xx_HAL_Driver/Src/stm32l0xx_hal_rcc.c ****   {
 746:Drivers/STM32L0xx_HAL_Driver/Src/stm32l0xx_hal_rcc.c ****     /* Check if the PLL is used as system clock or not */
ARM GAS  /tmp/ccOARe22.s 			page 19


 747:Drivers/STM32L0xx_HAL_Driver/Src/stm32l0xx_hal_rcc.c ****     if(sysclk_source != RCC_SYSCLKSOURCE_STATUS_PLLCLK)
 748:Drivers/STM32L0xx_HAL_Driver/Src/stm32l0xx_hal_rcc.c ****     {
 749:Drivers/STM32L0xx_HAL_Driver/Src/stm32l0xx_hal_rcc.c ****       if((RCC_OscInitStruct->PLL.PLLState) == RCC_PLL_ON)
 750:Drivers/STM32L0xx_HAL_Driver/Src/stm32l0xx_hal_rcc.c ****       {
 751:Drivers/STM32L0xx_HAL_Driver/Src/stm32l0xx_hal_rcc.c ****         /* Check the parameters */
 752:Drivers/STM32L0xx_HAL_Driver/Src/stm32l0xx_hal_rcc.c ****         assert_param(IS_RCC_PLLSOURCE(RCC_OscInitStruct->PLL.PLLSource));
 753:Drivers/STM32L0xx_HAL_Driver/Src/stm32l0xx_hal_rcc.c ****         assert_param(IS_RCC_PLL_MUL(RCC_OscInitStruct->PLL.PLLMUL));
 754:Drivers/STM32L0xx_HAL_Driver/Src/stm32l0xx_hal_rcc.c ****         assert_param(IS_RCC_PLL_DIV(RCC_OscInitStruct->PLL.PLLDIV));
 755:Drivers/STM32L0xx_HAL_Driver/Src/stm32l0xx_hal_rcc.c **** 
 756:Drivers/STM32L0xx_HAL_Driver/Src/stm32l0xx_hal_rcc.c ****         /* Disable the main PLL. */
 757:Drivers/STM32L0xx_HAL_Driver/Src/stm32l0xx_hal_rcc.c ****         __HAL_RCC_PLL_DISABLE();
 758:Drivers/STM32L0xx_HAL_Driver/Src/stm32l0xx_hal_rcc.c **** 
 759:Drivers/STM32L0xx_HAL_Driver/Src/stm32l0xx_hal_rcc.c ****         /* Get Start Tick */
 760:Drivers/STM32L0xx_HAL_Driver/Src/stm32l0xx_hal_rcc.c ****         tickstart = HAL_GetTick();
 761:Drivers/STM32L0xx_HAL_Driver/Src/stm32l0xx_hal_rcc.c **** 
 762:Drivers/STM32L0xx_HAL_Driver/Src/stm32l0xx_hal_rcc.c ****         /* Wait till PLL is ready */
 763:Drivers/STM32L0xx_HAL_Driver/Src/stm32l0xx_hal_rcc.c ****         while(__HAL_RCC_GET_FLAG(RCC_FLAG_PLLRDY)  != 0U)
 764:Drivers/STM32L0xx_HAL_Driver/Src/stm32l0xx_hal_rcc.c ****         {
 765:Drivers/STM32L0xx_HAL_Driver/Src/stm32l0xx_hal_rcc.c ****           if((HAL_GetTick() - tickstart ) > PLL_TIMEOUT_VALUE)
 766:Drivers/STM32L0xx_HAL_Driver/Src/stm32l0xx_hal_rcc.c ****           {
 767:Drivers/STM32L0xx_HAL_Driver/Src/stm32l0xx_hal_rcc.c ****             return HAL_TIMEOUT;
 768:Drivers/STM32L0xx_HAL_Driver/Src/stm32l0xx_hal_rcc.c ****           }
 769:Drivers/STM32L0xx_HAL_Driver/Src/stm32l0xx_hal_rcc.c ****         }
 770:Drivers/STM32L0xx_HAL_Driver/Src/stm32l0xx_hal_rcc.c **** 
 771:Drivers/STM32L0xx_HAL_Driver/Src/stm32l0xx_hal_rcc.c ****         /* Configure the main PLL clock source, multiplication and division factors. */
 772:Drivers/STM32L0xx_HAL_Driver/Src/stm32l0xx_hal_rcc.c ****         __HAL_RCC_PLL_CONFIG(RCC_OscInitStruct->PLL.PLLSource,
 773:Drivers/STM32L0xx_HAL_Driver/Src/stm32l0xx_hal_rcc.c ****                              RCC_OscInitStruct->PLL.PLLMUL,
 774:Drivers/STM32L0xx_HAL_Driver/Src/stm32l0xx_hal_rcc.c ****                              RCC_OscInitStruct->PLL.PLLDIV);
 775:Drivers/STM32L0xx_HAL_Driver/Src/stm32l0xx_hal_rcc.c ****         /* Enable the main PLL. */
 776:Drivers/STM32L0xx_HAL_Driver/Src/stm32l0xx_hal_rcc.c ****         __HAL_RCC_PLL_ENABLE();
 777:Drivers/STM32L0xx_HAL_Driver/Src/stm32l0xx_hal_rcc.c **** 
 778:Drivers/STM32L0xx_HAL_Driver/Src/stm32l0xx_hal_rcc.c ****         /* Get Start Tick */
 779:Drivers/STM32L0xx_HAL_Driver/Src/stm32l0xx_hal_rcc.c ****         tickstart = HAL_GetTick();
 780:Drivers/STM32L0xx_HAL_Driver/Src/stm32l0xx_hal_rcc.c **** 
 781:Drivers/STM32L0xx_HAL_Driver/Src/stm32l0xx_hal_rcc.c ****         /* Wait till PLL is ready */
 782:Drivers/STM32L0xx_HAL_Driver/Src/stm32l0xx_hal_rcc.c ****         while(__HAL_RCC_GET_FLAG(RCC_FLAG_PLLRDY)  == 0U)
 783:Drivers/STM32L0xx_HAL_Driver/Src/stm32l0xx_hal_rcc.c ****         {
 784:Drivers/STM32L0xx_HAL_Driver/Src/stm32l0xx_hal_rcc.c ****           if((HAL_GetTick() - tickstart ) > PLL_TIMEOUT_VALUE)
 785:Drivers/STM32L0xx_HAL_Driver/Src/stm32l0xx_hal_rcc.c ****           {
 786:Drivers/STM32L0xx_HAL_Driver/Src/stm32l0xx_hal_rcc.c ****             return HAL_TIMEOUT;
 787:Drivers/STM32L0xx_HAL_Driver/Src/stm32l0xx_hal_rcc.c ****           }
 788:Drivers/STM32L0xx_HAL_Driver/Src/stm32l0xx_hal_rcc.c ****         }
 789:Drivers/STM32L0xx_HAL_Driver/Src/stm32l0xx_hal_rcc.c ****       }
 790:Drivers/STM32L0xx_HAL_Driver/Src/stm32l0xx_hal_rcc.c ****       else
 791:Drivers/STM32L0xx_HAL_Driver/Src/stm32l0xx_hal_rcc.c ****       {
 792:Drivers/STM32L0xx_HAL_Driver/Src/stm32l0xx_hal_rcc.c ****         /* Disable the main PLL. */
 793:Drivers/STM32L0xx_HAL_Driver/Src/stm32l0xx_hal_rcc.c ****         __HAL_RCC_PLL_DISABLE();
 794:Drivers/STM32L0xx_HAL_Driver/Src/stm32l0xx_hal_rcc.c **** 
 795:Drivers/STM32L0xx_HAL_Driver/Src/stm32l0xx_hal_rcc.c ****         /* Get Start Tick */
 796:Drivers/STM32L0xx_HAL_Driver/Src/stm32l0xx_hal_rcc.c ****         tickstart = HAL_GetTick();
 797:Drivers/STM32L0xx_HAL_Driver/Src/stm32l0xx_hal_rcc.c **** 
 798:Drivers/STM32L0xx_HAL_Driver/Src/stm32l0xx_hal_rcc.c ****         /* Wait till PLL is disabled */
 799:Drivers/STM32L0xx_HAL_Driver/Src/stm32l0xx_hal_rcc.c ****         while(__HAL_RCC_GET_FLAG(RCC_FLAG_PLLRDY)  != 0U)
 800:Drivers/STM32L0xx_HAL_Driver/Src/stm32l0xx_hal_rcc.c ****         {
 801:Drivers/STM32L0xx_HAL_Driver/Src/stm32l0xx_hal_rcc.c ****           if((HAL_GetTick() - tickstart ) > PLL_TIMEOUT_VALUE)
 802:Drivers/STM32L0xx_HAL_Driver/Src/stm32l0xx_hal_rcc.c ****           {
 803:Drivers/STM32L0xx_HAL_Driver/Src/stm32l0xx_hal_rcc.c ****             return HAL_TIMEOUT;
ARM GAS  /tmp/ccOARe22.s 			page 20


 804:Drivers/STM32L0xx_HAL_Driver/Src/stm32l0xx_hal_rcc.c ****           }
 805:Drivers/STM32L0xx_HAL_Driver/Src/stm32l0xx_hal_rcc.c ****         }
 806:Drivers/STM32L0xx_HAL_Driver/Src/stm32l0xx_hal_rcc.c ****       }
 807:Drivers/STM32L0xx_HAL_Driver/Src/stm32l0xx_hal_rcc.c ****     }
 808:Drivers/STM32L0xx_HAL_Driver/Src/stm32l0xx_hal_rcc.c ****     else
 809:Drivers/STM32L0xx_HAL_Driver/Src/stm32l0xx_hal_rcc.c ****     {
 810:Drivers/STM32L0xx_HAL_Driver/Src/stm32l0xx_hal_rcc.c ****       /* Check if there is a request to disable the PLL used as System clock source */
 811:Drivers/STM32L0xx_HAL_Driver/Src/stm32l0xx_hal_rcc.c ****       if((RCC_OscInitStruct->PLL.PLLState) == RCC_PLL_OFF)
 812:Drivers/STM32L0xx_HAL_Driver/Src/stm32l0xx_hal_rcc.c ****       {
 813:Drivers/STM32L0xx_HAL_Driver/Src/stm32l0xx_hal_rcc.c ****         return HAL_ERROR;
 814:Drivers/STM32L0xx_HAL_Driver/Src/stm32l0xx_hal_rcc.c ****       }
 815:Drivers/STM32L0xx_HAL_Driver/Src/stm32l0xx_hal_rcc.c ****       else
 816:Drivers/STM32L0xx_HAL_Driver/Src/stm32l0xx_hal_rcc.c ****       {
 817:Drivers/STM32L0xx_HAL_Driver/Src/stm32l0xx_hal_rcc.c ****         /* Do not return HAL_ERROR if request repeats the current configuration */
 818:Drivers/STM32L0xx_HAL_Driver/Src/stm32l0xx_hal_rcc.c ****         pll_config = RCC->CFGR;
 819:Drivers/STM32L0xx_HAL_Driver/Src/stm32l0xx_hal_rcc.c ****         if((READ_BIT(pll_config, RCC_CFGR_PLLSRC) != RCC_OscInitStruct->PLL.PLLSource) ||
 820:Drivers/STM32L0xx_HAL_Driver/Src/stm32l0xx_hal_rcc.c ****            (READ_BIT(pll_config, RCC_CFGR_PLLMUL) != RCC_OscInitStruct->PLL.PLLMUL) ||
 821:Drivers/STM32L0xx_HAL_Driver/Src/stm32l0xx_hal_rcc.c ****            (READ_BIT(pll_config, RCC_CFGR_PLLDIV) != RCC_OscInitStruct->PLL.PLLDIV))
 822:Drivers/STM32L0xx_HAL_Driver/Src/stm32l0xx_hal_rcc.c ****         {
 823:Drivers/STM32L0xx_HAL_Driver/Src/stm32l0xx_hal_rcc.c ****           return HAL_ERROR;
 824:Drivers/STM32L0xx_HAL_Driver/Src/stm32l0xx_hal_rcc.c ****         }
 825:Drivers/STM32L0xx_HAL_Driver/Src/stm32l0xx_hal_rcc.c ****       }
 826:Drivers/STM32L0xx_HAL_Driver/Src/stm32l0xx_hal_rcc.c ****     }
 827:Drivers/STM32L0xx_HAL_Driver/Src/stm32l0xx_hal_rcc.c ****   }
 828:Drivers/STM32L0xx_HAL_Driver/Src/stm32l0xx_hal_rcc.c ****   return HAL_OK;
 829:Drivers/STM32L0xx_HAL_Driver/Src/stm32l0xx_hal_rcc.c **** }
 830:Drivers/STM32L0xx_HAL_Driver/Src/stm32l0xx_hal_rcc.c **** 
 831:Drivers/STM32L0xx_HAL_Driver/Src/stm32l0xx_hal_rcc.c **** /**
 832:Drivers/STM32L0xx_HAL_Driver/Src/stm32l0xx_hal_rcc.c ****   * @brief  Initializes the CPU, AHB and APB buses clocks according to the specified
 833:Drivers/STM32L0xx_HAL_Driver/Src/stm32l0xx_hal_rcc.c ****   *         parameters in the RCC_ClkInitStruct.
 834:Drivers/STM32L0xx_HAL_Driver/Src/stm32l0xx_hal_rcc.c ****   * @param  RCC_ClkInitStruct pointer to an RCC_OscInitTypeDef structure that
 835:Drivers/STM32L0xx_HAL_Driver/Src/stm32l0xx_hal_rcc.c ****   *         contains the configuration information for the RCC peripheral.
 836:Drivers/STM32L0xx_HAL_Driver/Src/stm32l0xx_hal_rcc.c ****   * @param  FLatency FLASH Latency
 837:Drivers/STM32L0xx_HAL_Driver/Src/stm32l0xx_hal_rcc.c ****   *          The value of this parameter depend on device used within the same series
 838:Drivers/STM32L0xx_HAL_Driver/Src/stm32l0xx_hal_rcc.c ****   * @note   The SystemCoreClock CMSIS variable is used to store System Clock Frequency
 839:Drivers/STM32L0xx_HAL_Driver/Src/stm32l0xx_hal_rcc.c ****   *         and updated by @ref HAL_RCC_GetHCLKFreq() function called within this function
 840:Drivers/STM32L0xx_HAL_Driver/Src/stm32l0xx_hal_rcc.c ****   *
 841:Drivers/STM32L0xx_HAL_Driver/Src/stm32l0xx_hal_rcc.c ****   * @note   The MSI is used (enabled by hardware) as system clock source after
 842:Drivers/STM32L0xx_HAL_Driver/Src/stm32l0xx_hal_rcc.c ****   *         start-up from Reset, wake-up from STOP and STANDBY mode, or in case
 843:Drivers/STM32L0xx_HAL_Driver/Src/stm32l0xx_hal_rcc.c ****   *         of failure of the HSE used directly or indirectly as system clock
 844:Drivers/STM32L0xx_HAL_Driver/Src/stm32l0xx_hal_rcc.c ****   *         (if the Clock Security System CSS is enabled).
 845:Drivers/STM32L0xx_HAL_Driver/Src/stm32l0xx_hal_rcc.c ****   *
 846:Drivers/STM32L0xx_HAL_Driver/Src/stm32l0xx_hal_rcc.c ****   * @note   A switch from one clock source to another occurs only if the target
 847:Drivers/STM32L0xx_HAL_Driver/Src/stm32l0xx_hal_rcc.c ****   *         clock source is ready (clock stable after start-up delay or PLL locked).
 848:Drivers/STM32L0xx_HAL_Driver/Src/stm32l0xx_hal_rcc.c ****   *         If a clock source which is not yet ready is selected, the switch will
 849:Drivers/STM32L0xx_HAL_Driver/Src/stm32l0xx_hal_rcc.c ****   *         occur when the clock source will be ready.
 850:Drivers/STM32L0xx_HAL_Driver/Src/stm32l0xx_hal_rcc.c ****   *         You can use @ref HAL_RCC_GetClockConfig() function to know which clock is
 851:Drivers/STM32L0xx_HAL_Driver/Src/stm32l0xx_hal_rcc.c ****   *         currently used as system clock source.
 852:Drivers/STM32L0xx_HAL_Driver/Src/stm32l0xx_hal_rcc.c ****   * @note   Depending on the device voltage range, the software has to set correctly
 853:Drivers/STM32L0xx_HAL_Driver/Src/stm32l0xx_hal_rcc.c ****   *         HPRE[3:0] bits to ensure that HCLK not exceed the maximum allowed frequency
 854:Drivers/STM32L0xx_HAL_Driver/Src/stm32l0xx_hal_rcc.c ****   *         (for more details refer to section above "Initialization/de-initialization functions")
 855:Drivers/STM32L0xx_HAL_Driver/Src/stm32l0xx_hal_rcc.c ****   * @retval HAL status
 856:Drivers/STM32L0xx_HAL_Driver/Src/stm32l0xx_hal_rcc.c ****   */
 857:Drivers/STM32L0xx_HAL_Driver/Src/stm32l0xx_hal_rcc.c **** HAL_StatusTypeDef HAL_RCC_ClockConfig(RCC_ClkInitTypeDef  *RCC_ClkInitStruct, uint32_t FLatency)
 858:Drivers/STM32L0xx_HAL_Driver/Src/stm32l0xx_hal_rcc.c **** {
 859:Drivers/STM32L0xx_HAL_Driver/Src/stm32l0xx_hal_rcc.c ****   uint32_t tickstart;
 860:Drivers/STM32L0xx_HAL_Driver/Src/stm32l0xx_hal_rcc.c ****   HAL_StatusTypeDef status;
ARM GAS  /tmp/ccOARe22.s 			page 21


 861:Drivers/STM32L0xx_HAL_Driver/Src/stm32l0xx_hal_rcc.c **** 
 862:Drivers/STM32L0xx_HAL_Driver/Src/stm32l0xx_hal_rcc.c ****   /* Check Null pointer */
 863:Drivers/STM32L0xx_HAL_Driver/Src/stm32l0xx_hal_rcc.c ****   if(RCC_ClkInitStruct == NULL)
 864:Drivers/STM32L0xx_HAL_Driver/Src/stm32l0xx_hal_rcc.c ****   {
 865:Drivers/STM32L0xx_HAL_Driver/Src/stm32l0xx_hal_rcc.c ****     return HAL_ERROR;
 866:Drivers/STM32L0xx_HAL_Driver/Src/stm32l0xx_hal_rcc.c ****   }
 867:Drivers/STM32L0xx_HAL_Driver/Src/stm32l0xx_hal_rcc.c **** 
 868:Drivers/STM32L0xx_HAL_Driver/Src/stm32l0xx_hal_rcc.c ****   /* Check the parameters */
 869:Drivers/STM32L0xx_HAL_Driver/Src/stm32l0xx_hal_rcc.c ****   assert_param(IS_RCC_CLOCKTYPE(RCC_ClkInitStruct->ClockType));
 870:Drivers/STM32L0xx_HAL_Driver/Src/stm32l0xx_hal_rcc.c ****   assert_param(IS_FLASH_LATENCY(FLatency));
 871:Drivers/STM32L0xx_HAL_Driver/Src/stm32l0xx_hal_rcc.c **** 
 872:Drivers/STM32L0xx_HAL_Driver/Src/stm32l0xx_hal_rcc.c ****   /* To correctly read data from FLASH memory, the number of wait states (LATENCY)
 873:Drivers/STM32L0xx_HAL_Driver/Src/stm32l0xx_hal_rcc.c ****   must be correctly programmed according to the frequency of the CPU clock
 874:Drivers/STM32L0xx_HAL_Driver/Src/stm32l0xx_hal_rcc.c ****   (HCLK) and the supply voltage of the device. */
 875:Drivers/STM32L0xx_HAL_Driver/Src/stm32l0xx_hal_rcc.c **** 
 876:Drivers/STM32L0xx_HAL_Driver/Src/stm32l0xx_hal_rcc.c ****   /* Increasing the number of wait states because of higher CPU frequency */
 877:Drivers/STM32L0xx_HAL_Driver/Src/stm32l0xx_hal_rcc.c ****   if(FLatency > __HAL_FLASH_GET_LATENCY())
 878:Drivers/STM32L0xx_HAL_Driver/Src/stm32l0xx_hal_rcc.c ****   {
 879:Drivers/STM32L0xx_HAL_Driver/Src/stm32l0xx_hal_rcc.c ****     /* Program the new number of wait states to the LATENCY bits in the FLASH_ACR register */
 880:Drivers/STM32L0xx_HAL_Driver/Src/stm32l0xx_hal_rcc.c ****     __HAL_FLASH_SET_LATENCY(FLatency);
 881:Drivers/STM32L0xx_HAL_Driver/Src/stm32l0xx_hal_rcc.c **** 
 882:Drivers/STM32L0xx_HAL_Driver/Src/stm32l0xx_hal_rcc.c ****     /* Check that the new number of wait states is taken into account to access the Flash
 883:Drivers/STM32L0xx_HAL_Driver/Src/stm32l0xx_hal_rcc.c ****     memory by polling the FLASH_ACR register */
 884:Drivers/STM32L0xx_HAL_Driver/Src/stm32l0xx_hal_rcc.c ****     tickstart = HAL_GetTick();
 885:Drivers/STM32L0xx_HAL_Driver/Src/stm32l0xx_hal_rcc.c **** 
 886:Drivers/STM32L0xx_HAL_Driver/Src/stm32l0xx_hal_rcc.c ****     while (__HAL_FLASH_GET_LATENCY() != FLatency)
 887:Drivers/STM32L0xx_HAL_Driver/Src/stm32l0xx_hal_rcc.c ****     {
 888:Drivers/STM32L0xx_HAL_Driver/Src/stm32l0xx_hal_rcc.c ****       if ((HAL_GetTick() - tickstart) > CLOCKSWITCH_TIMEOUT_VALUE)
 889:Drivers/STM32L0xx_HAL_Driver/Src/stm32l0xx_hal_rcc.c ****       {
 890:Drivers/STM32L0xx_HAL_Driver/Src/stm32l0xx_hal_rcc.c ****         return HAL_TIMEOUT;
 891:Drivers/STM32L0xx_HAL_Driver/Src/stm32l0xx_hal_rcc.c ****       }
 892:Drivers/STM32L0xx_HAL_Driver/Src/stm32l0xx_hal_rcc.c ****     }
 893:Drivers/STM32L0xx_HAL_Driver/Src/stm32l0xx_hal_rcc.c ****   }
 894:Drivers/STM32L0xx_HAL_Driver/Src/stm32l0xx_hal_rcc.c **** 
 895:Drivers/STM32L0xx_HAL_Driver/Src/stm32l0xx_hal_rcc.c ****   /*-------------------------- HCLK Configuration --------------------------*/
 896:Drivers/STM32L0xx_HAL_Driver/Src/stm32l0xx_hal_rcc.c ****   if(((RCC_ClkInitStruct->ClockType) & RCC_CLOCKTYPE_HCLK) == RCC_CLOCKTYPE_HCLK)
 897:Drivers/STM32L0xx_HAL_Driver/Src/stm32l0xx_hal_rcc.c ****   {
 898:Drivers/STM32L0xx_HAL_Driver/Src/stm32l0xx_hal_rcc.c ****     assert_param(IS_RCC_HCLK(RCC_ClkInitStruct->AHBCLKDivider));
 899:Drivers/STM32L0xx_HAL_Driver/Src/stm32l0xx_hal_rcc.c ****     MODIFY_REG(RCC->CFGR, RCC_CFGR_HPRE, RCC_ClkInitStruct->AHBCLKDivider);
 900:Drivers/STM32L0xx_HAL_Driver/Src/stm32l0xx_hal_rcc.c ****   }
 901:Drivers/STM32L0xx_HAL_Driver/Src/stm32l0xx_hal_rcc.c **** 
 902:Drivers/STM32L0xx_HAL_Driver/Src/stm32l0xx_hal_rcc.c ****   /*------------------------- SYSCLK Configuration ---------------------------*/
 903:Drivers/STM32L0xx_HAL_Driver/Src/stm32l0xx_hal_rcc.c ****   if(((RCC_ClkInitStruct->ClockType) & RCC_CLOCKTYPE_SYSCLK) == RCC_CLOCKTYPE_SYSCLK)
 904:Drivers/STM32L0xx_HAL_Driver/Src/stm32l0xx_hal_rcc.c ****   {
 905:Drivers/STM32L0xx_HAL_Driver/Src/stm32l0xx_hal_rcc.c ****     assert_param(IS_RCC_SYSCLKSOURCE(RCC_ClkInitStruct->SYSCLKSource));
 906:Drivers/STM32L0xx_HAL_Driver/Src/stm32l0xx_hal_rcc.c **** 
 907:Drivers/STM32L0xx_HAL_Driver/Src/stm32l0xx_hal_rcc.c ****     /* HSE is selected as System Clock Source */
 908:Drivers/STM32L0xx_HAL_Driver/Src/stm32l0xx_hal_rcc.c ****     if(RCC_ClkInitStruct->SYSCLKSource == RCC_SYSCLKSOURCE_HSE)
 909:Drivers/STM32L0xx_HAL_Driver/Src/stm32l0xx_hal_rcc.c ****     {
 910:Drivers/STM32L0xx_HAL_Driver/Src/stm32l0xx_hal_rcc.c ****       /* Check the HSE ready flag */
 911:Drivers/STM32L0xx_HAL_Driver/Src/stm32l0xx_hal_rcc.c ****       if(__HAL_RCC_GET_FLAG(RCC_FLAG_HSERDY) == 0U)
 912:Drivers/STM32L0xx_HAL_Driver/Src/stm32l0xx_hal_rcc.c ****       {
 913:Drivers/STM32L0xx_HAL_Driver/Src/stm32l0xx_hal_rcc.c ****         return HAL_ERROR;
 914:Drivers/STM32L0xx_HAL_Driver/Src/stm32l0xx_hal_rcc.c ****       }
 915:Drivers/STM32L0xx_HAL_Driver/Src/stm32l0xx_hal_rcc.c ****     }
 916:Drivers/STM32L0xx_HAL_Driver/Src/stm32l0xx_hal_rcc.c ****     /* PLL is selected as System Clock Source */
 917:Drivers/STM32L0xx_HAL_Driver/Src/stm32l0xx_hal_rcc.c ****     else if(RCC_ClkInitStruct->SYSCLKSource == RCC_SYSCLKSOURCE_PLLCLK)
ARM GAS  /tmp/ccOARe22.s 			page 22


 918:Drivers/STM32L0xx_HAL_Driver/Src/stm32l0xx_hal_rcc.c ****     {
 919:Drivers/STM32L0xx_HAL_Driver/Src/stm32l0xx_hal_rcc.c ****       /* Check the PLL ready flag */
 920:Drivers/STM32L0xx_HAL_Driver/Src/stm32l0xx_hal_rcc.c ****       if(__HAL_RCC_GET_FLAG(RCC_FLAG_PLLRDY) == 0U)
 921:Drivers/STM32L0xx_HAL_Driver/Src/stm32l0xx_hal_rcc.c ****       {
 922:Drivers/STM32L0xx_HAL_Driver/Src/stm32l0xx_hal_rcc.c ****         return HAL_ERROR;
 923:Drivers/STM32L0xx_HAL_Driver/Src/stm32l0xx_hal_rcc.c ****       }
 924:Drivers/STM32L0xx_HAL_Driver/Src/stm32l0xx_hal_rcc.c ****     }
 925:Drivers/STM32L0xx_HAL_Driver/Src/stm32l0xx_hal_rcc.c ****     /* HSI is selected as System Clock Source */
 926:Drivers/STM32L0xx_HAL_Driver/Src/stm32l0xx_hal_rcc.c ****     else if(RCC_ClkInitStruct->SYSCLKSource == RCC_SYSCLKSOURCE_HSI)
 927:Drivers/STM32L0xx_HAL_Driver/Src/stm32l0xx_hal_rcc.c ****     {
 928:Drivers/STM32L0xx_HAL_Driver/Src/stm32l0xx_hal_rcc.c ****       /* Check the HSI ready flag */
 929:Drivers/STM32L0xx_HAL_Driver/Src/stm32l0xx_hal_rcc.c ****       if(__HAL_RCC_GET_FLAG(RCC_FLAG_HSIRDY) == 0U)
 930:Drivers/STM32L0xx_HAL_Driver/Src/stm32l0xx_hal_rcc.c ****       {
 931:Drivers/STM32L0xx_HAL_Driver/Src/stm32l0xx_hal_rcc.c ****         return HAL_ERROR;
 932:Drivers/STM32L0xx_HAL_Driver/Src/stm32l0xx_hal_rcc.c ****       }
 933:Drivers/STM32L0xx_HAL_Driver/Src/stm32l0xx_hal_rcc.c ****     }
 934:Drivers/STM32L0xx_HAL_Driver/Src/stm32l0xx_hal_rcc.c ****     /* MSI is selected as System Clock Source */
 935:Drivers/STM32L0xx_HAL_Driver/Src/stm32l0xx_hal_rcc.c ****     else
 936:Drivers/STM32L0xx_HAL_Driver/Src/stm32l0xx_hal_rcc.c ****     {
 937:Drivers/STM32L0xx_HAL_Driver/Src/stm32l0xx_hal_rcc.c ****       /* Check the MSI ready flag */
 938:Drivers/STM32L0xx_HAL_Driver/Src/stm32l0xx_hal_rcc.c ****       if(__HAL_RCC_GET_FLAG(RCC_FLAG_MSIRDY) == 0U)
 939:Drivers/STM32L0xx_HAL_Driver/Src/stm32l0xx_hal_rcc.c ****       {
 940:Drivers/STM32L0xx_HAL_Driver/Src/stm32l0xx_hal_rcc.c ****         return HAL_ERROR;
 941:Drivers/STM32L0xx_HAL_Driver/Src/stm32l0xx_hal_rcc.c ****       }
 942:Drivers/STM32L0xx_HAL_Driver/Src/stm32l0xx_hal_rcc.c ****     }
 943:Drivers/STM32L0xx_HAL_Driver/Src/stm32l0xx_hal_rcc.c ****     __HAL_RCC_SYSCLK_CONFIG(RCC_ClkInitStruct->SYSCLKSource);
 944:Drivers/STM32L0xx_HAL_Driver/Src/stm32l0xx_hal_rcc.c **** 
 945:Drivers/STM32L0xx_HAL_Driver/Src/stm32l0xx_hal_rcc.c ****     /* Get Start Tick */
 946:Drivers/STM32L0xx_HAL_Driver/Src/stm32l0xx_hal_rcc.c ****     tickstart = HAL_GetTick();
 947:Drivers/STM32L0xx_HAL_Driver/Src/stm32l0xx_hal_rcc.c **** 
 948:Drivers/STM32L0xx_HAL_Driver/Src/stm32l0xx_hal_rcc.c ****     if(RCC_ClkInitStruct->SYSCLKSource == RCC_SYSCLKSOURCE_HSE)
 949:Drivers/STM32L0xx_HAL_Driver/Src/stm32l0xx_hal_rcc.c ****     {
 950:Drivers/STM32L0xx_HAL_Driver/Src/stm32l0xx_hal_rcc.c ****       while (__HAL_RCC_GET_SYSCLK_SOURCE() != RCC_SYSCLKSOURCE_STATUS_HSE)
 951:Drivers/STM32L0xx_HAL_Driver/Src/stm32l0xx_hal_rcc.c ****       {
 952:Drivers/STM32L0xx_HAL_Driver/Src/stm32l0xx_hal_rcc.c ****         if((HAL_GetTick() - tickstart ) > CLOCKSWITCH_TIMEOUT_VALUE)
 953:Drivers/STM32L0xx_HAL_Driver/Src/stm32l0xx_hal_rcc.c ****         {
 954:Drivers/STM32L0xx_HAL_Driver/Src/stm32l0xx_hal_rcc.c ****           return HAL_TIMEOUT;
 955:Drivers/STM32L0xx_HAL_Driver/Src/stm32l0xx_hal_rcc.c ****         }
 956:Drivers/STM32L0xx_HAL_Driver/Src/stm32l0xx_hal_rcc.c ****       }
 957:Drivers/STM32L0xx_HAL_Driver/Src/stm32l0xx_hal_rcc.c ****     }
 958:Drivers/STM32L0xx_HAL_Driver/Src/stm32l0xx_hal_rcc.c ****     else if(RCC_ClkInitStruct->SYSCLKSource == RCC_SYSCLKSOURCE_PLLCLK)
 959:Drivers/STM32L0xx_HAL_Driver/Src/stm32l0xx_hal_rcc.c ****     {
 960:Drivers/STM32L0xx_HAL_Driver/Src/stm32l0xx_hal_rcc.c ****       while (__HAL_RCC_GET_SYSCLK_SOURCE() != RCC_SYSCLKSOURCE_STATUS_PLLCLK)
 961:Drivers/STM32L0xx_HAL_Driver/Src/stm32l0xx_hal_rcc.c ****       {
 962:Drivers/STM32L0xx_HAL_Driver/Src/stm32l0xx_hal_rcc.c ****         if((HAL_GetTick() - tickstart ) > CLOCKSWITCH_TIMEOUT_VALUE)
 963:Drivers/STM32L0xx_HAL_Driver/Src/stm32l0xx_hal_rcc.c ****         {
 964:Drivers/STM32L0xx_HAL_Driver/Src/stm32l0xx_hal_rcc.c ****           return HAL_TIMEOUT;
 965:Drivers/STM32L0xx_HAL_Driver/Src/stm32l0xx_hal_rcc.c ****         }
 966:Drivers/STM32L0xx_HAL_Driver/Src/stm32l0xx_hal_rcc.c ****       }
 967:Drivers/STM32L0xx_HAL_Driver/Src/stm32l0xx_hal_rcc.c ****     }
 968:Drivers/STM32L0xx_HAL_Driver/Src/stm32l0xx_hal_rcc.c ****     else if(RCC_ClkInitStruct->SYSCLKSource == RCC_SYSCLKSOURCE_HSI)
 969:Drivers/STM32L0xx_HAL_Driver/Src/stm32l0xx_hal_rcc.c ****     {
 970:Drivers/STM32L0xx_HAL_Driver/Src/stm32l0xx_hal_rcc.c ****       while (__HAL_RCC_GET_SYSCLK_SOURCE() != RCC_SYSCLKSOURCE_STATUS_HSI)
 971:Drivers/STM32L0xx_HAL_Driver/Src/stm32l0xx_hal_rcc.c ****       {
 972:Drivers/STM32L0xx_HAL_Driver/Src/stm32l0xx_hal_rcc.c ****         if((HAL_GetTick() - tickstart ) > CLOCKSWITCH_TIMEOUT_VALUE)
 973:Drivers/STM32L0xx_HAL_Driver/Src/stm32l0xx_hal_rcc.c ****         {
 974:Drivers/STM32L0xx_HAL_Driver/Src/stm32l0xx_hal_rcc.c ****           return HAL_TIMEOUT;
ARM GAS  /tmp/ccOARe22.s 			page 23


 975:Drivers/STM32L0xx_HAL_Driver/Src/stm32l0xx_hal_rcc.c ****         }
 976:Drivers/STM32L0xx_HAL_Driver/Src/stm32l0xx_hal_rcc.c ****       }
 977:Drivers/STM32L0xx_HAL_Driver/Src/stm32l0xx_hal_rcc.c ****     }
 978:Drivers/STM32L0xx_HAL_Driver/Src/stm32l0xx_hal_rcc.c ****     else
 979:Drivers/STM32L0xx_HAL_Driver/Src/stm32l0xx_hal_rcc.c ****     {
 980:Drivers/STM32L0xx_HAL_Driver/Src/stm32l0xx_hal_rcc.c ****       while(__HAL_RCC_GET_SYSCLK_SOURCE() != RCC_SYSCLKSOURCE_STATUS_MSI)
 981:Drivers/STM32L0xx_HAL_Driver/Src/stm32l0xx_hal_rcc.c ****       {
 982:Drivers/STM32L0xx_HAL_Driver/Src/stm32l0xx_hal_rcc.c ****         if((HAL_GetTick() - tickstart ) > CLOCKSWITCH_TIMEOUT_VALUE)
 983:Drivers/STM32L0xx_HAL_Driver/Src/stm32l0xx_hal_rcc.c ****         {
 984:Drivers/STM32L0xx_HAL_Driver/Src/stm32l0xx_hal_rcc.c ****           return HAL_TIMEOUT;
 985:Drivers/STM32L0xx_HAL_Driver/Src/stm32l0xx_hal_rcc.c ****         }
 986:Drivers/STM32L0xx_HAL_Driver/Src/stm32l0xx_hal_rcc.c ****       }
 987:Drivers/STM32L0xx_HAL_Driver/Src/stm32l0xx_hal_rcc.c ****     }
 988:Drivers/STM32L0xx_HAL_Driver/Src/stm32l0xx_hal_rcc.c ****   }
 989:Drivers/STM32L0xx_HAL_Driver/Src/stm32l0xx_hal_rcc.c ****   /* Decreasing the number of wait states because of lower CPU frequency */
 990:Drivers/STM32L0xx_HAL_Driver/Src/stm32l0xx_hal_rcc.c ****   if(FLatency < __HAL_FLASH_GET_LATENCY())
 991:Drivers/STM32L0xx_HAL_Driver/Src/stm32l0xx_hal_rcc.c ****   {
 992:Drivers/STM32L0xx_HAL_Driver/Src/stm32l0xx_hal_rcc.c ****     /* Program the new number of wait states to the LATENCY bits in the FLASH_ACR register */
 993:Drivers/STM32L0xx_HAL_Driver/Src/stm32l0xx_hal_rcc.c ****     __HAL_FLASH_SET_LATENCY(FLatency);
 994:Drivers/STM32L0xx_HAL_Driver/Src/stm32l0xx_hal_rcc.c **** 
 995:Drivers/STM32L0xx_HAL_Driver/Src/stm32l0xx_hal_rcc.c ****     /* Check that the new number of wait states is taken into account to access the Flash
 996:Drivers/STM32L0xx_HAL_Driver/Src/stm32l0xx_hal_rcc.c ****     memory by polling the FLASH_ACR register */
 997:Drivers/STM32L0xx_HAL_Driver/Src/stm32l0xx_hal_rcc.c ****     tickstart = HAL_GetTick();
 998:Drivers/STM32L0xx_HAL_Driver/Src/stm32l0xx_hal_rcc.c **** 
 999:Drivers/STM32L0xx_HAL_Driver/Src/stm32l0xx_hal_rcc.c ****     while (__HAL_FLASH_GET_LATENCY() != FLatency)
1000:Drivers/STM32L0xx_HAL_Driver/Src/stm32l0xx_hal_rcc.c ****     {
1001:Drivers/STM32L0xx_HAL_Driver/Src/stm32l0xx_hal_rcc.c ****       if ((HAL_GetTick() - tickstart) > CLOCKSWITCH_TIMEOUT_VALUE)
1002:Drivers/STM32L0xx_HAL_Driver/Src/stm32l0xx_hal_rcc.c ****       {
1003:Drivers/STM32L0xx_HAL_Driver/Src/stm32l0xx_hal_rcc.c ****         return HAL_TIMEOUT;
1004:Drivers/STM32L0xx_HAL_Driver/Src/stm32l0xx_hal_rcc.c ****       }
1005:Drivers/STM32L0xx_HAL_Driver/Src/stm32l0xx_hal_rcc.c ****     }
1006:Drivers/STM32L0xx_HAL_Driver/Src/stm32l0xx_hal_rcc.c ****   }
1007:Drivers/STM32L0xx_HAL_Driver/Src/stm32l0xx_hal_rcc.c **** 
1008:Drivers/STM32L0xx_HAL_Driver/Src/stm32l0xx_hal_rcc.c ****   /*-------------------------- PCLK1 Configuration ---------------------------*/
1009:Drivers/STM32L0xx_HAL_Driver/Src/stm32l0xx_hal_rcc.c ****   if(((RCC_ClkInitStruct->ClockType) & RCC_CLOCKTYPE_PCLK1) == RCC_CLOCKTYPE_PCLK1)
1010:Drivers/STM32L0xx_HAL_Driver/Src/stm32l0xx_hal_rcc.c ****   {
1011:Drivers/STM32L0xx_HAL_Driver/Src/stm32l0xx_hal_rcc.c ****     assert_param(IS_RCC_PCLK(RCC_ClkInitStruct->APB1CLKDivider));
1012:Drivers/STM32L0xx_HAL_Driver/Src/stm32l0xx_hal_rcc.c ****     MODIFY_REG(RCC->CFGR, RCC_CFGR_PPRE1, RCC_ClkInitStruct->APB1CLKDivider);
1013:Drivers/STM32L0xx_HAL_Driver/Src/stm32l0xx_hal_rcc.c ****   }
1014:Drivers/STM32L0xx_HAL_Driver/Src/stm32l0xx_hal_rcc.c **** 
1015:Drivers/STM32L0xx_HAL_Driver/Src/stm32l0xx_hal_rcc.c ****   /*-------------------------- PCLK2 Configuration ---------------------------*/
1016:Drivers/STM32L0xx_HAL_Driver/Src/stm32l0xx_hal_rcc.c ****   if(((RCC_ClkInitStruct->ClockType) & RCC_CLOCKTYPE_PCLK2) == RCC_CLOCKTYPE_PCLK2)
1017:Drivers/STM32L0xx_HAL_Driver/Src/stm32l0xx_hal_rcc.c ****   {
1018:Drivers/STM32L0xx_HAL_Driver/Src/stm32l0xx_hal_rcc.c ****     assert_param(IS_RCC_PCLK(RCC_ClkInitStruct->APB2CLKDivider));
1019:Drivers/STM32L0xx_HAL_Driver/Src/stm32l0xx_hal_rcc.c ****     MODIFY_REG(RCC->CFGR, RCC_CFGR_PPRE2, ((RCC_ClkInitStruct->APB2CLKDivider) << 3));
1020:Drivers/STM32L0xx_HAL_Driver/Src/stm32l0xx_hal_rcc.c ****   }
1021:Drivers/STM32L0xx_HAL_Driver/Src/stm32l0xx_hal_rcc.c **** 
1022:Drivers/STM32L0xx_HAL_Driver/Src/stm32l0xx_hal_rcc.c ****   /* Update the SystemCoreClock global variable */
1023:Drivers/STM32L0xx_HAL_Driver/Src/stm32l0xx_hal_rcc.c ****   SystemCoreClock = HAL_RCC_GetSysClockFreq() >> AHBPrescTable[(RCC->CFGR & RCC_CFGR_HPRE)>> RCC_CF
1024:Drivers/STM32L0xx_HAL_Driver/Src/stm32l0xx_hal_rcc.c **** 
1025:Drivers/STM32L0xx_HAL_Driver/Src/stm32l0xx_hal_rcc.c ****   /* Configure the source of time base considering new system clocks settings*/
1026:Drivers/STM32L0xx_HAL_Driver/Src/stm32l0xx_hal_rcc.c ****   status = HAL_InitTick(uwTickPrio);
1027:Drivers/STM32L0xx_HAL_Driver/Src/stm32l0xx_hal_rcc.c ****   if(status != HAL_OK)
1028:Drivers/STM32L0xx_HAL_Driver/Src/stm32l0xx_hal_rcc.c ****   {
1029:Drivers/STM32L0xx_HAL_Driver/Src/stm32l0xx_hal_rcc.c ****     return status;
1030:Drivers/STM32L0xx_HAL_Driver/Src/stm32l0xx_hal_rcc.c ****   }
1031:Drivers/STM32L0xx_HAL_Driver/Src/stm32l0xx_hal_rcc.c **** 
ARM GAS  /tmp/ccOARe22.s 			page 24


1032:Drivers/STM32L0xx_HAL_Driver/Src/stm32l0xx_hal_rcc.c ****   return HAL_OK;
1033:Drivers/STM32L0xx_HAL_Driver/Src/stm32l0xx_hal_rcc.c **** }
1034:Drivers/STM32L0xx_HAL_Driver/Src/stm32l0xx_hal_rcc.c **** 
1035:Drivers/STM32L0xx_HAL_Driver/Src/stm32l0xx_hal_rcc.c **** /**
1036:Drivers/STM32L0xx_HAL_Driver/Src/stm32l0xx_hal_rcc.c ****   * @}
1037:Drivers/STM32L0xx_HAL_Driver/Src/stm32l0xx_hal_rcc.c ****   */
1038:Drivers/STM32L0xx_HAL_Driver/Src/stm32l0xx_hal_rcc.c **** 
1039:Drivers/STM32L0xx_HAL_Driver/Src/stm32l0xx_hal_rcc.c **** /** @defgroup RCC_Exported_Functions_Group2 Peripheral Control functions
1040:Drivers/STM32L0xx_HAL_Driver/Src/stm32l0xx_hal_rcc.c ****   *  @brief   RCC clocks control functions
1041:Drivers/STM32L0xx_HAL_Driver/Src/stm32l0xx_hal_rcc.c ****   *
1042:Drivers/STM32L0xx_HAL_Driver/Src/stm32l0xx_hal_rcc.c ****   @verbatim
1043:Drivers/STM32L0xx_HAL_Driver/Src/stm32l0xx_hal_rcc.c ****   ===============================================================================
1044:Drivers/STM32L0xx_HAL_Driver/Src/stm32l0xx_hal_rcc.c ****                   ##### Peripheral Control functions #####
1045:Drivers/STM32L0xx_HAL_Driver/Src/stm32l0xx_hal_rcc.c ****   ===============================================================================
1046:Drivers/STM32L0xx_HAL_Driver/Src/stm32l0xx_hal_rcc.c ****     [..]
1047:Drivers/STM32L0xx_HAL_Driver/Src/stm32l0xx_hal_rcc.c ****     This subsection provides a set of functions allowing to control the RCC Clocks
1048:Drivers/STM32L0xx_HAL_Driver/Src/stm32l0xx_hal_rcc.c ****     frequencies.
1049:Drivers/STM32L0xx_HAL_Driver/Src/stm32l0xx_hal_rcc.c **** 
1050:Drivers/STM32L0xx_HAL_Driver/Src/stm32l0xx_hal_rcc.c ****   @endverbatim
1051:Drivers/STM32L0xx_HAL_Driver/Src/stm32l0xx_hal_rcc.c ****   * @{
1052:Drivers/STM32L0xx_HAL_Driver/Src/stm32l0xx_hal_rcc.c ****   */
1053:Drivers/STM32L0xx_HAL_Driver/Src/stm32l0xx_hal_rcc.c **** 
1054:Drivers/STM32L0xx_HAL_Driver/Src/stm32l0xx_hal_rcc.c **** /**
1055:Drivers/STM32L0xx_HAL_Driver/Src/stm32l0xx_hal_rcc.c ****   * @brief  Selects the clock source to output on MCO pin.
1056:Drivers/STM32L0xx_HAL_Driver/Src/stm32l0xx_hal_rcc.c ****   * @note   MCO pin should be configured in alternate function mode.
1057:Drivers/STM32L0xx_HAL_Driver/Src/stm32l0xx_hal_rcc.c ****   * @param  RCC_MCOx specifies the output direction for the clock source.
1058:Drivers/STM32L0xx_HAL_Driver/Src/stm32l0xx_hal_rcc.c ****   *          This parameter can be one of the following values:
1059:Drivers/STM32L0xx_HAL_Driver/Src/stm32l0xx_hal_rcc.c ****   *            @arg @ref RCC_MCO1 Clock source to output on MCO1 pin(PA8).
1060:Drivers/STM32L0xx_HAL_Driver/Src/stm32l0xx_hal_rcc.c ****   *            @arg @ref RCC_MCO2 Clock source to output on MCO2 pin(PA9).
1061:Drivers/STM32L0xx_HAL_Driver/Src/stm32l0xx_hal_rcc.c ****   @if STM32L031xx
1062:Drivers/STM32L0xx_HAL_Driver/Src/stm32l0xx_hal_rcc.c ****   *            @arg @ref RCC_MCO3 Clock source to output on MCO3 pin(PB13)
1063:Drivers/STM32L0xx_HAL_Driver/Src/stm32l0xx_hal_rcc.c ****   @elseif STM32L041xx
1064:Drivers/STM32L0xx_HAL_Driver/Src/stm32l0xx_hal_rcc.c ****   *            @arg @ref RCC_MCO3 Clock source to output on MCO3 pin(PB13)
1065:Drivers/STM32L0xx_HAL_Driver/Src/stm32l0xx_hal_rcc.c ****   @elseif STM32L073xx
1066:Drivers/STM32L0xx_HAL_Driver/Src/stm32l0xx_hal_rcc.c ****   *            @arg @ref RCC_MCO3 Clock source to output on MCO3 pin(PB13)
1067:Drivers/STM32L0xx_HAL_Driver/Src/stm32l0xx_hal_rcc.c ****   @elseif STM32L083xx
1068:Drivers/STM32L0xx_HAL_Driver/Src/stm32l0xx_hal_rcc.c ****   *            @arg @ref RCC_MCO3 Clock source to output on MCO3 pin(PB13)
1069:Drivers/STM32L0xx_HAL_Driver/Src/stm32l0xx_hal_rcc.c ****   @elseif STM32L072xx
1070:Drivers/STM32L0xx_HAL_Driver/Src/stm32l0xx_hal_rcc.c ****   *            @arg @ref RCC_MCO3 Clock source to output on MCO3 pin(PB13)
1071:Drivers/STM32L0xx_HAL_Driver/Src/stm32l0xx_hal_rcc.c ****   @elseif STM32L082xx
1072:Drivers/STM32L0xx_HAL_Driver/Src/stm32l0xx_hal_rcc.c ****   *            @arg @ref RCC_MCO3 Clock source to output on MCO3 pin(PB13)
1073:Drivers/STM32L0xx_HAL_Driver/Src/stm32l0xx_hal_rcc.c ****   @elseif STM32L071xx
1074:Drivers/STM32L0xx_HAL_Driver/Src/stm32l0xx_hal_rcc.c ****   *            @arg @ref RCC_MCO3 Clock source to output on MCO3 pin(PB13)
1075:Drivers/STM32L0xx_HAL_Driver/Src/stm32l0xx_hal_rcc.c ****   @elseif STM32L081xx
1076:Drivers/STM32L0xx_HAL_Driver/Src/stm32l0xx_hal_rcc.c ****   *            @arg @ref RCC_MCO3 Clock source to output on MCO3 pin(PB13)
1077:Drivers/STM32L0xx_HAL_Driver/Src/stm32l0xx_hal_rcc.c ****   @elseif STM32L051xx
1078:Drivers/STM32L0xx_HAL_Driver/Src/stm32l0xx_hal_rcc.c ****   *            @arg @ref RCC_MCO3 Clock source to output on MCO3 pin(PB13)
1079:Drivers/STM32L0xx_HAL_Driver/Src/stm32l0xx_hal_rcc.c ****   @elseif STM32L053xx
1080:Drivers/STM32L0xx_HAL_Driver/Src/stm32l0xx_hal_rcc.c ****   *            @arg @ref RCC_MCO3 Clock source to output on MCO3 pin(PB13)
1081:Drivers/STM32L0xx_HAL_Driver/Src/stm32l0xx_hal_rcc.c ****   @endif
1082:Drivers/STM32L0xx_HAL_Driver/Src/stm32l0xx_hal_rcc.c ****   * @param  RCC_MCOSource specifies the clock source to output.
1083:Drivers/STM32L0xx_HAL_Driver/Src/stm32l0xx_hal_rcc.c ****   *          This parameter can be one of the following values:
1084:Drivers/STM32L0xx_HAL_Driver/Src/stm32l0xx_hal_rcc.c ****   *            @arg @ref RCC_MCO1SOURCE_NOCLOCK     No clock selected as MCO clock
1085:Drivers/STM32L0xx_HAL_Driver/Src/stm32l0xx_hal_rcc.c ****   *            @arg @ref RCC_MCO1SOURCE_SYSCLK      System clock selected as MCO clock
1086:Drivers/STM32L0xx_HAL_Driver/Src/stm32l0xx_hal_rcc.c ****   *            @arg @ref RCC_MCO1SOURCE_HSI         HSI selected as MCO clock
1087:Drivers/STM32L0xx_HAL_Driver/Src/stm32l0xx_hal_rcc.c ****   *            @arg @ref RCC_MCO1SOURCE_HSE         HSE selected as MCO clock
1088:Drivers/STM32L0xx_HAL_Driver/Src/stm32l0xx_hal_rcc.c ****   *            @arg @ref RCC_MCO1SOURCE_MSI         MSI oscillator clock selected as MCO clock
ARM GAS  /tmp/ccOARe22.s 			page 25


1089:Drivers/STM32L0xx_HAL_Driver/Src/stm32l0xx_hal_rcc.c ****   *            @arg @ref RCC_MCO1SOURCE_PLLCLK      PLL clock selected as MCO clock
1090:Drivers/STM32L0xx_HAL_Driver/Src/stm32l0xx_hal_rcc.c ****   *            @arg @ref RCC_MCO1SOURCE_LSI         LSI clock selected as MCO clock
1091:Drivers/STM32L0xx_HAL_Driver/Src/stm32l0xx_hal_rcc.c ****   *            @arg @ref RCC_MCO1SOURCE_LSE         LSE clock selected as MCO clock
1092:Drivers/STM32L0xx_HAL_Driver/Src/stm32l0xx_hal_rcc.c ****   @if STM32L052xx
1093:Drivers/STM32L0xx_HAL_Driver/Src/stm32l0xx_hal_rcc.c ****   *            @arg @ref RCC_MCO1SOURCE_HSI48       HSI48 clock selected as MCO clock
1094:Drivers/STM32L0xx_HAL_Driver/Src/stm32l0xx_hal_rcc.c ****   @elseif STM32L053xx
1095:Drivers/STM32L0xx_HAL_Driver/Src/stm32l0xx_hal_rcc.c ****   *            @arg @ref RCC_MCO1SOURCE_HSI48       HSI48 clock selected as MCO clock
1096:Drivers/STM32L0xx_HAL_Driver/Src/stm32l0xx_hal_rcc.c ****   @elseif STM32L062xx
1097:Drivers/STM32L0xx_HAL_Driver/Src/stm32l0xx_hal_rcc.c ****   *            @arg @ref RCC_MCO1SOURCE_HSI48       HSI48 clock selected as MCO clock
1098:Drivers/STM32L0xx_HAL_Driver/Src/stm32l0xx_hal_rcc.c ****   @elseif STM32L063xx
1099:Drivers/STM32L0xx_HAL_Driver/Src/stm32l0xx_hal_rcc.c ****   *            @arg @ref RCC_MCO1SOURCE_HSI48       HSI48 clock selected as MCO clock
1100:Drivers/STM32L0xx_HAL_Driver/Src/stm32l0xx_hal_rcc.c ****   @elseif STM32L072xx
1101:Drivers/STM32L0xx_HAL_Driver/Src/stm32l0xx_hal_rcc.c ****   *            @arg @ref RCC_MCO1SOURCE_HSI48       HSI48 clock selected as MCO clock
1102:Drivers/STM32L0xx_HAL_Driver/Src/stm32l0xx_hal_rcc.c ****   @elseif STM32L073xx
1103:Drivers/STM32L0xx_HAL_Driver/Src/stm32l0xx_hal_rcc.c ****   *            @arg @ref RCC_MCO1SOURCE_HSI48       HSI48 clock selected as MCO clock
1104:Drivers/STM32L0xx_HAL_Driver/Src/stm32l0xx_hal_rcc.c ****   @elseif STM32L082xx
1105:Drivers/STM32L0xx_HAL_Driver/Src/stm32l0xx_hal_rcc.c ****   *            @arg @ref RCC_MCO1SOURCE_HSI48       HSI48 clock selected as MCO clock
1106:Drivers/STM32L0xx_HAL_Driver/Src/stm32l0xx_hal_rcc.c ****   @elseif STM32L083xx
1107:Drivers/STM32L0xx_HAL_Driver/Src/stm32l0xx_hal_rcc.c ****   *            @arg @ref RCC_MCO1SOURCE_HSI48       HSI48 clock selected as MCO clock
1108:Drivers/STM32L0xx_HAL_Driver/Src/stm32l0xx_hal_rcc.c ****   @endif
1109:Drivers/STM32L0xx_HAL_Driver/Src/stm32l0xx_hal_rcc.c ****   * @param  RCC_MCODiv specifies the MCO DIV.
1110:Drivers/STM32L0xx_HAL_Driver/Src/stm32l0xx_hal_rcc.c ****   *          This parameter can be one of the following values:
1111:Drivers/STM32L0xx_HAL_Driver/Src/stm32l0xx_hal_rcc.c ****   *            @arg @ref RCC_MCODIV_1 no division applied to MCO clock
1112:Drivers/STM32L0xx_HAL_Driver/Src/stm32l0xx_hal_rcc.c ****   *            @arg @ref RCC_MCODIV_2  division by 2 applied to MCO clock
1113:Drivers/STM32L0xx_HAL_Driver/Src/stm32l0xx_hal_rcc.c ****   *            @arg @ref RCC_MCODIV_4  division by 4 applied to MCO clock
1114:Drivers/STM32L0xx_HAL_Driver/Src/stm32l0xx_hal_rcc.c ****   *            @arg @ref RCC_MCODIV_8  division by 8 applied to MCO clock
1115:Drivers/STM32L0xx_HAL_Driver/Src/stm32l0xx_hal_rcc.c ****   *            @arg @ref RCC_MCODIV_16 division by 16 applied to MCO clock
1116:Drivers/STM32L0xx_HAL_Driver/Src/stm32l0xx_hal_rcc.c ****   * @retval None
1117:Drivers/STM32L0xx_HAL_Driver/Src/stm32l0xx_hal_rcc.c ****   */
1118:Drivers/STM32L0xx_HAL_Driver/Src/stm32l0xx_hal_rcc.c **** void HAL_RCC_MCOConfig(uint32_t RCC_MCOx, uint32_t RCC_MCOSource, uint32_t RCC_MCODiv)
1119:Drivers/STM32L0xx_HAL_Driver/Src/stm32l0xx_hal_rcc.c **** {
 240              		.loc 1 1119 1 is_stmt 1 view -0
 241              		.cfi_startproc
 242              		@ args = 0, pretend = 0, frame = 32
 243              		@ frame_needed = 0, uses_anonymous_args = 0
 244              		.loc 1 1119 1 is_stmt 0 view .LVU64
 245 0000 70B5     		push	{r4, r5, r6, lr}
 246              		.cfi_def_cfa_offset 16
 247              		.cfi_offset 4, -16
 248              		.cfi_offset 5, -12
 249              		.cfi_offset 6, -8
 250              		.cfi_offset 14, -4
 251 0002 88B0     		sub	sp, sp, #32
 252              		.cfi_def_cfa_offset 48
 253 0004 0500     		movs	r5, r0
 254 0006 0C00     		movs	r4, r1
 255 0008 1600     		movs	r6, r2
1120:Drivers/STM32L0xx_HAL_Driver/Src/stm32l0xx_hal_rcc.c ****   GPIO_InitTypeDef gpio = {0};
 256              		.loc 1 1120 3 is_stmt 1 view .LVU65
 257              		.loc 1 1120 20 is_stmt 0 view .LVU66
 258 000a 1422     		movs	r2, #20
 259              	.LVL17:
 260              		.loc 1 1120 20 view .LVU67
 261 000c 0021     		movs	r1, #0
 262              	.LVL18:
 263              		.loc 1 1120 20 view .LVU68
 264 000e 03A8     		add	r0, sp, #12
ARM GAS  /tmp/ccOARe22.s 			page 26


 265              	.LVL19:
 266              		.loc 1 1120 20 view .LVU69
 267 0010 FFF7FEFF 		bl	memset
 268              	.LVL20:
1121:Drivers/STM32L0xx_HAL_Driver/Src/stm32l0xx_hal_rcc.c **** 
1122:Drivers/STM32L0xx_HAL_Driver/Src/stm32l0xx_hal_rcc.c ****   /* Check the parameters */
1123:Drivers/STM32L0xx_HAL_Driver/Src/stm32l0xx_hal_rcc.c ****   assert_param(IS_RCC_MCO(RCC_MCOx));
 269              		.loc 1 1123 3 is_stmt 1 view .LVU70
1124:Drivers/STM32L0xx_HAL_Driver/Src/stm32l0xx_hal_rcc.c ****   assert_param(IS_RCC_MCODIV(RCC_MCODiv));
 270              		.loc 1 1124 3 view .LVU71
1125:Drivers/STM32L0xx_HAL_Driver/Src/stm32l0xx_hal_rcc.c ****   assert_param(IS_RCC_MCO1SOURCE(RCC_MCOSource));
 271              		.loc 1 1125 3 view .LVU72
1126:Drivers/STM32L0xx_HAL_Driver/Src/stm32l0xx_hal_rcc.c **** 
1127:Drivers/STM32L0xx_HAL_Driver/Src/stm32l0xx_hal_rcc.c ****   /* Configure the MCO1 pin in alternate function mode */
1128:Drivers/STM32L0xx_HAL_Driver/Src/stm32l0xx_hal_rcc.c ****   gpio.Mode      = GPIO_MODE_AF_PP;
 272              		.loc 1 1128 3 view .LVU73
 273              		.loc 1 1128 18 is_stmt 0 view .LVU74
 274 0014 0223     		movs	r3, #2
 275 0016 0493     		str	r3, [sp, #16]
1129:Drivers/STM32L0xx_HAL_Driver/Src/stm32l0xx_hal_rcc.c ****   gpio.Speed     = GPIO_SPEED_FREQ_HIGH;
 276              		.loc 1 1129 3 is_stmt 1 view .LVU75
 277              		.loc 1 1129 18 is_stmt 0 view .LVU76
 278 0018 0693     		str	r3, [sp, #24]
1130:Drivers/STM32L0xx_HAL_Driver/Src/stm32l0xx_hal_rcc.c ****   gpio.Pull      = GPIO_NOPULL;
 279              		.loc 1 1130 3 is_stmt 1 view .LVU77
1131:Drivers/STM32L0xx_HAL_Driver/Src/stm32l0xx_hal_rcc.c ****   if(RCC_MCOx == RCC_MCO1)
 280              		.loc 1 1131 3 view .LVU78
 281              		.loc 1 1131 5 is_stmt 0 view .LVU79
 282 001a 002D     		cmp	r5, #0
 283 001c 1BD0     		beq	.L21
1132:Drivers/STM32L0xx_HAL_Driver/Src/stm32l0xx_hal_rcc.c ****   {
1133:Drivers/STM32L0xx_HAL_Driver/Src/stm32l0xx_hal_rcc.c ****     gpio.Pin       = MCO1_PIN;
1134:Drivers/STM32L0xx_HAL_Driver/Src/stm32l0xx_hal_rcc.c ****     gpio.Alternate = GPIO_AF0_MCO;
1135:Drivers/STM32L0xx_HAL_Driver/Src/stm32l0xx_hal_rcc.c **** 
1136:Drivers/STM32L0xx_HAL_Driver/Src/stm32l0xx_hal_rcc.c ****     /* MCO1 Clock Enable */
1137:Drivers/STM32L0xx_HAL_Driver/Src/stm32l0xx_hal_rcc.c ****     MCO1_CLK_ENABLE();
1138:Drivers/STM32L0xx_HAL_Driver/Src/stm32l0xx_hal_rcc.c ****     HAL_GPIO_Init(MCO1_GPIO_PORT, &gpio);
1139:Drivers/STM32L0xx_HAL_Driver/Src/stm32l0xx_hal_rcc.c ****   }
1140:Drivers/STM32L0xx_HAL_Driver/Src/stm32l0xx_hal_rcc.c **** #if defined(RCC_MCO3_SUPPORT)
1141:Drivers/STM32L0xx_HAL_Driver/Src/stm32l0xx_hal_rcc.c ****   else if (RCC_MCOx == RCC_MCO3)
 284              		.loc 1 1141 8 is_stmt 1 view .LVU80
 285              		.loc 1 1141 11 is_stmt 0 view .LVU81
 286 001e 022D     		cmp	r5, #2
 287 0020 2AD0     		beq	.L22
1142:Drivers/STM32L0xx_HAL_Driver/Src/stm32l0xx_hal_rcc.c ****   {
1143:Drivers/STM32L0xx_HAL_Driver/Src/stm32l0xx_hal_rcc.c ****     gpio.Pin       = MCO3_PIN;
1144:Drivers/STM32L0xx_HAL_Driver/Src/stm32l0xx_hal_rcc.c ****     gpio.Alternate = MCO3_GPIO_AF;
1145:Drivers/STM32L0xx_HAL_Driver/Src/stm32l0xx_hal_rcc.c **** 
1146:Drivers/STM32L0xx_HAL_Driver/Src/stm32l0xx_hal_rcc.c ****     /* MCO3 Clock Enable */
1147:Drivers/STM32L0xx_HAL_Driver/Src/stm32l0xx_hal_rcc.c ****     MCO3_CLK_ENABLE();
1148:Drivers/STM32L0xx_HAL_Driver/Src/stm32l0xx_hal_rcc.c ****     HAL_GPIO_Init(MCO3_GPIO_PORT, &gpio);
1149:Drivers/STM32L0xx_HAL_Driver/Src/stm32l0xx_hal_rcc.c ****   }
1150:Drivers/STM32L0xx_HAL_Driver/Src/stm32l0xx_hal_rcc.c **** #endif /* RCC_MCO3_SUPPORT */
1151:Drivers/STM32L0xx_HAL_Driver/Src/stm32l0xx_hal_rcc.c ****   else
1152:Drivers/STM32L0xx_HAL_Driver/Src/stm32l0xx_hal_rcc.c ****   {
1153:Drivers/STM32L0xx_HAL_Driver/Src/stm32l0xx_hal_rcc.c ****     gpio.Pin       = MCO2_PIN;
 288              		.loc 1 1153 5 is_stmt 1 view .LVU82
ARM GAS  /tmp/ccOARe22.s 			page 27


 289              		.loc 1 1153 20 is_stmt 0 view .LVU83
 290 0022 8023     		movs	r3, #128
 291 0024 9B00     		lsls	r3, r3, #2
 292 0026 0393     		str	r3, [sp, #12]
1154:Drivers/STM32L0xx_HAL_Driver/Src/stm32l0xx_hal_rcc.c ****     gpio.Alternate = GPIO_AF0_MCO;
 293              		.loc 1 1154 5 is_stmt 1 view .LVU84
1155:Drivers/STM32L0xx_HAL_Driver/Src/stm32l0xx_hal_rcc.c **** 
1156:Drivers/STM32L0xx_HAL_Driver/Src/stm32l0xx_hal_rcc.c ****     /* MCO2 Clock Enable */
1157:Drivers/STM32L0xx_HAL_Driver/Src/stm32l0xx_hal_rcc.c ****     MCO2_CLK_ENABLE();
 294              		.loc 1 1157 5 view .LVU85
 295              	.LBB2:
 296              		.loc 1 1157 5 view .LVU86
 297              		.loc 1 1157 5 view .LVU87
 298 0028 1C4A     		ldr	r2, .L23
 299 002a D16A     		ldr	r1, [r2, #44]
 300 002c 0123     		movs	r3, #1
 301 002e 1943     		orrs	r1, r3
 302 0030 D162     		str	r1, [r2, #44]
 303              		.loc 1 1157 5 view .LVU88
 304 0032 D26A     		ldr	r2, [r2, #44]
 305 0034 1340     		ands	r3, r2
 306 0036 0293     		str	r3, [sp, #8]
 307              		.loc 1 1157 5 view .LVU89
 308 0038 029B     		ldr	r3, [sp, #8]
 309              	.LBE2:
 310              		.loc 1 1157 5 view .LVU90
1158:Drivers/STM32L0xx_HAL_Driver/Src/stm32l0xx_hal_rcc.c ****     HAL_GPIO_Init(MCO2_GPIO_PORT, &gpio);
 311              		.loc 1 1158 5 view .LVU91
 312 003a A020     		movs	r0, #160
 313 003c 03A9     		add	r1, sp, #12
 314 003e C005     		lsls	r0, r0, #23
 315 0040 FFF7FEFF 		bl	HAL_GPIO_Init
 316              	.LVL21:
 317              	.L19:
1159:Drivers/STM32L0xx_HAL_Driver/Src/stm32l0xx_hal_rcc.c ****   }
1160:Drivers/STM32L0xx_HAL_Driver/Src/stm32l0xx_hal_rcc.c **** 
1161:Drivers/STM32L0xx_HAL_Driver/Src/stm32l0xx_hal_rcc.c ****   /* Configure the MCO clock source */
1162:Drivers/STM32L0xx_HAL_Driver/Src/stm32l0xx_hal_rcc.c ****   __HAL_RCC_MCO1_CONFIG(RCC_MCOSource, RCC_MCODiv);
 318              		.loc 1 1162 3 view .LVU92
 319 0044 154B     		ldr	r3, .L23
 320 0046 DA68     		ldr	r2, [r3, #12]
 321 0048 1549     		ldr	r1, .L23+4
 322 004a 0A40     		ands	r2, r1
 323 004c 3443     		orrs	r4, r6
 324              	.LVL22:
 325              		.loc 1 1162 3 is_stmt 0 view .LVU93
 326 004e 2243     		orrs	r2, r4
 327 0050 DA60     		str	r2, [r3, #12]
1163:Drivers/STM32L0xx_HAL_Driver/Src/stm32l0xx_hal_rcc.c **** }
 328              		.loc 1 1163 1 view .LVU94
 329 0052 08B0     		add	sp, sp, #32
 330              		@ sp needed
 331              	.LVL23:
 332              	.LVL24:
 333              		.loc 1 1163 1 view .LVU95
 334 0054 70BD     		pop	{r4, r5, r6, pc}
 335              	.LVL25:
ARM GAS  /tmp/ccOARe22.s 			page 28


 336              	.L21:
1133:Drivers/STM32L0xx_HAL_Driver/Src/stm32l0xx_hal_rcc.c ****     gpio.Alternate = GPIO_AF0_MCO;
 337              		.loc 1 1133 5 is_stmt 1 view .LVU96
1133:Drivers/STM32L0xx_HAL_Driver/Src/stm32l0xx_hal_rcc.c ****     gpio.Alternate = GPIO_AF0_MCO;
 338              		.loc 1 1133 20 is_stmt 0 view .LVU97
 339 0056 FE33     		adds	r3, r3, #254
 340 0058 0393     		str	r3, [sp, #12]
1134:Drivers/STM32L0xx_HAL_Driver/Src/stm32l0xx_hal_rcc.c **** 
 341              		.loc 1 1134 5 is_stmt 1 view .LVU98
1137:Drivers/STM32L0xx_HAL_Driver/Src/stm32l0xx_hal_rcc.c ****     HAL_GPIO_Init(MCO1_GPIO_PORT, &gpio);
 342              		.loc 1 1137 5 view .LVU99
 343              	.LBB3:
1137:Drivers/STM32L0xx_HAL_Driver/Src/stm32l0xx_hal_rcc.c ****     HAL_GPIO_Init(MCO1_GPIO_PORT, &gpio);
 344              		.loc 1 1137 5 view .LVU100
1137:Drivers/STM32L0xx_HAL_Driver/Src/stm32l0xx_hal_rcc.c ****     HAL_GPIO_Init(MCO1_GPIO_PORT, &gpio);
 345              		.loc 1 1137 5 view .LVU101
 346 005a 104A     		ldr	r2, .L23
 347 005c D16A     		ldr	r1, [r2, #44]
 348 005e FF3B     		subs	r3, r3, #255
 349 0060 1943     		orrs	r1, r3
 350 0062 D162     		str	r1, [r2, #44]
1137:Drivers/STM32L0xx_HAL_Driver/Src/stm32l0xx_hal_rcc.c ****     HAL_GPIO_Init(MCO1_GPIO_PORT, &gpio);
 351              		.loc 1 1137 5 view .LVU102
 352 0064 D26A     		ldr	r2, [r2, #44]
 353 0066 1340     		ands	r3, r2
 354 0068 0093     		str	r3, [sp]
1137:Drivers/STM32L0xx_HAL_Driver/Src/stm32l0xx_hal_rcc.c ****     HAL_GPIO_Init(MCO1_GPIO_PORT, &gpio);
 355              		.loc 1 1137 5 view .LVU103
 356 006a 009B     		ldr	r3, [sp]
 357              	.LBE3:
1137:Drivers/STM32L0xx_HAL_Driver/Src/stm32l0xx_hal_rcc.c ****     HAL_GPIO_Init(MCO1_GPIO_PORT, &gpio);
 358              		.loc 1 1137 5 view .LVU104
1138:Drivers/STM32L0xx_HAL_Driver/Src/stm32l0xx_hal_rcc.c ****   }
 359              		.loc 1 1138 5 view .LVU105
 360 006c A020     		movs	r0, #160
 361 006e 03A9     		add	r1, sp, #12
 362 0070 C005     		lsls	r0, r0, #23
 363 0072 FFF7FEFF 		bl	HAL_GPIO_Init
 364              	.LVL26:
 365 0076 E5E7     		b	.L19
 366              	.L22:
1143:Drivers/STM32L0xx_HAL_Driver/Src/stm32l0xx_hal_rcc.c ****     gpio.Alternate = MCO3_GPIO_AF;
 367              		.loc 1 1143 5 view .LVU106
1143:Drivers/STM32L0xx_HAL_Driver/Src/stm32l0xx_hal_rcc.c ****     gpio.Alternate = MCO3_GPIO_AF;
 368              		.loc 1 1143 20 is_stmt 0 view .LVU107
 369 0078 8023     		movs	r3, #128
 370 007a 9B01     		lsls	r3, r3, #6
 371 007c 0393     		str	r3, [sp, #12]
1144:Drivers/STM32L0xx_HAL_Driver/Src/stm32l0xx_hal_rcc.c **** 
 372              		.loc 1 1144 5 is_stmt 1 view .LVU108
1144:Drivers/STM32L0xx_HAL_Driver/Src/stm32l0xx_hal_rcc.c **** 
 373              		.loc 1 1144 20 is_stmt 0 view .LVU109
 374 007e 0223     		movs	r3, #2
 375 0080 0793     		str	r3, [sp, #28]
1147:Drivers/STM32L0xx_HAL_Driver/Src/stm32l0xx_hal_rcc.c ****     HAL_GPIO_Init(MCO3_GPIO_PORT, &gpio);
 376              		.loc 1 1147 5 is_stmt 1 view .LVU110
 377              	.LBB4:
ARM GAS  /tmp/ccOARe22.s 			page 29


1147:Drivers/STM32L0xx_HAL_Driver/Src/stm32l0xx_hal_rcc.c ****     HAL_GPIO_Init(MCO3_GPIO_PORT, &gpio);
 378              		.loc 1 1147 5 view .LVU111
1147:Drivers/STM32L0xx_HAL_Driver/Src/stm32l0xx_hal_rcc.c ****     HAL_GPIO_Init(MCO3_GPIO_PORT, &gpio);
 379              		.loc 1 1147 5 view .LVU112
 380 0082 064A     		ldr	r2, .L23
 381 0084 D16A     		ldr	r1, [r2, #44]
 382 0086 1943     		orrs	r1, r3
 383 0088 D162     		str	r1, [r2, #44]
1147:Drivers/STM32L0xx_HAL_Driver/Src/stm32l0xx_hal_rcc.c ****     HAL_GPIO_Init(MCO3_GPIO_PORT, &gpio);
 384              		.loc 1 1147 5 view .LVU113
 385 008a D26A     		ldr	r2, [r2, #44]
 386 008c 1340     		ands	r3, r2
 387 008e 0193     		str	r3, [sp, #4]
1147:Drivers/STM32L0xx_HAL_Driver/Src/stm32l0xx_hal_rcc.c ****     HAL_GPIO_Init(MCO3_GPIO_PORT, &gpio);
 388              		.loc 1 1147 5 view .LVU114
 389 0090 019B     		ldr	r3, [sp, #4]
 390              	.LBE4:
1147:Drivers/STM32L0xx_HAL_Driver/Src/stm32l0xx_hal_rcc.c ****     HAL_GPIO_Init(MCO3_GPIO_PORT, &gpio);
 391              		.loc 1 1147 5 view .LVU115
1148:Drivers/STM32L0xx_HAL_Driver/Src/stm32l0xx_hal_rcc.c ****   }
 392              		.loc 1 1148 5 view .LVU116
 393 0092 03A9     		add	r1, sp, #12
 394 0094 0348     		ldr	r0, .L23+8
 395 0096 FFF7FEFF 		bl	HAL_GPIO_Init
 396              	.LVL27:
 397 009a D3E7     		b	.L19
 398              	.L24:
 399              		.align	2
 400              	.L23:
 401 009c 00100240 		.word	1073876992
 402 00a0 FFFFFF80 		.word	-2130706433
 403 00a4 00040050 		.word	1342178304
 404              		.cfi_endproc
 405              	.LFE43:
 407              		.section	.text.HAL_RCC_EnableCSS,"ax",%progbits
 408              		.align	1
 409              		.global	HAL_RCC_EnableCSS
 410              		.syntax unified
 411              		.code	16
 412              		.thumb_func
 414              	HAL_RCC_EnableCSS:
 415              	.LFB44:
1164:Drivers/STM32L0xx_HAL_Driver/Src/stm32l0xx_hal_rcc.c **** 
1165:Drivers/STM32L0xx_HAL_Driver/Src/stm32l0xx_hal_rcc.c **** #if defined(RCC_HSECSS_SUPPORT)
1166:Drivers/STM32L0xx_HAL_Driver/Src/stm32l0xx_hal_rcc.c **** /**
1167:Drivers/STM32L0xx_HAL_Driver/Src/stm32l0xx_hal_rcc.c ****   * @brief  Enables the Clock Security System.
1168:Drivers/STM32L0xx_HAL_Driver/Src/stm32l0xx_hal_rcc.c ****   * @note   If a failure is detected on the HSE oscillator clock, this oscillator
1169:Drivers/STM32L0xx_HAL_Driver/Src/stm32l0xx_hal_rcc.c ****   *         is automatically disabled and an interrupt is generated to inform the
1170:Drivers/STM32L0xx_HAL_Driver/Src/stm32l0xx_hal_rcc.c ****   *         software about the failure (Clock Security System Interrupt, CSSI),
1171:Drivers/STM32L0xx_HAL_Driver/Src/stm32l0xx_hal_rcc.c ****   *         allowing the MCU to perform rescue operations. The CSSI is linked to
1172:Drivers/STM32L0xx_HAL_Driver/Src/stm32l0xx_hal_rcc.c ****   *         the Cortex-M0+ NMI (Non-Maskable Interrupt) exception vector.
1173:Drivers/STM32L0xx_HAL_Driver/Src/stm32l0xx_hal_rcc.c ****   * @retval None
1174:Drivers/STM32L0xx_HAL_Driver/Src/stm32l0xx_hal_rcc.c ****   */
1175:Drivers/STM32L0xx_HAL_Driver/Src/stm32l0xx_hal_rcc.c **** void HAL_RCC_EnableCSS(void)
1176:Drivers/STM32L0xx_HAL_Driver/Src/stm32l0xx_hal_rcc.c **** {
 416              		.loc 1 1176 1 view -0
 417              		.cfi_startproc
ARM GAS  /tmp/ccOARe22.s 			page 30


 418              		@ args = 0, pretend = 0, frame = 0
 419              		@ frame_needed = 0, uses_anonymous_args = 0
 420              		@ link register save eliminated.
1177:Drivers/STM32L0xx_HAL_Driver/Src/stm32l0xx_hal_rcc.c ****   SET_BIT(RCC->CR, RCC_CR_CSSON) ;
 421              		.loc 1 1177 3 view .LVU118
 422 0000 034A     		ldr	r2, .L26
 423 0002 1168     		ldr	r1, [r2]
 424 0004 8023     		movs	r3, #128
 425 0006 1B03     		lsls	r3, r3, #12
 426 0008 0B43     		orrs	r3, r1
 427 000a 1360     		str	r3, [r2]
1178:Drivers/STM32L0xx_HAL_Driver/Src/stm32l0xx_hal_rcc.c **** }
 428              		.loc 1 1178 1 is_stmt 0 view .LVU119
 429              		@ sp needed
 430 000c 7047     		bx	lr
 431              	.L27:
 432 000e C046     		.align	2
 433              	.L26:
 434 0010 00100240 		.word	1073876992
 435              		.cfi_endproc
 436              	.LFE44:
 438              		.global	__aeabi_lmul
 439              		.global	__aeabi_uldivmod
 440              		.section	.text.HAL_RCC_GetSysClockFreq,"ax",%progbits
 441              		.align	1
 442              		.global	HAL_RCC_GetSysClockFreq
 443              		.syntax unified
 444              		.code	16
 445              		.thumb_func
 447              	HAL_RCC_GetSysClockFreq:
 448              	.LFB45:
1179:Drivers/STM32L0xx_HAL_Driver/Src/stm32l0xx_hal_rcc.c **** 
1180:Drivers/STM32L0xx_HAL_Driver/Src/stm32l0xx_hal_rcc.c **** #endif /* RCC_HSECSS_SUPPORT */
1181:Drivers/STM32L0xx_HAL_Driver/Src/stm32l0xx_hal_rcc.c **** /**
1182:Drivers/STM32L0xx_HAL_Driver/Src/stm32l0xx_hal_rcc.c ****   * @brief  Returns the SYSCLK frequency
1183:Drivers/STM32L0xx_HAL_Driver/Src/stm32l0xx_hal_rcc.c ****   * @note   The system frequency computed by this function is not the real
1184:Drivers/STM32L0xx_HAL_Driver/Src/stm32l0xx_hal_rcc.c ****   *         frequency in the chip. It is calculated based on the predefined
1185:Drivers/STM32L0xx_HAL_Driver/Src/stm32l0xx_hal_rcc.c ****   *         constant and the selected clock source:
1186:Drivers/STM32L0xx_HAL_Driver/Src/stm32l0xx_hal_rcc.c ****   * @note     If SYSCLK source is MSI, function returns a value based on MSI
1187:Drivers/STM32L0xx_HAL_Driver/Src/stm32l0xx_hal_rcc.c ****   *             Value as defined by the MSI range.
1188:Drivers/STM32L0xx_HAL_Driver/Src/stm32l0xx_hal_rcc.c ****   * @note     If SYSCLK source is HSI, function returns values based on HSI_VALUE(*)
1189:Drivers/STM32L0xx_HAL_Driver/Src/stm32l0xx_hal_rcc.c ****   * @note     If SYSCLK source is HSE, function returns a value based on HSE_VALUE(**)
1190:Drivers/STM32L0xx_HAL_Driver/Src/stm32l0xx_hal_rcc.c ****   * @note     If SYSCLK source is PLL, function returns a value based on HSE_VALUE(**)
1191:Drivers/STM32L0xx_HAL_Driver/Src/stm32l0xx_hal_rcc.c ****   *           or HSI_VALUE(*) multiplied/divided by the PLL factors.
1192:Drivers/STM32L0xx_HAL_Driver/Src/stm32l0xx_hal_rcc.c ****   * @note     (*) HSI_VALUE is a constant defined in stm32l0xx_hal_conf.h file (default value
1193:Drivers/STM32L0xx_HAL_Driver/Src/stm32l0xx_hal_rcc.c ****   *               16 MHz) but the real value may vary depending on the variations
1194:Drivers/STM32L0xx_HAL_Driver/Src/stm32l0xx_hal_rcc.c ****   *               in voltage and temperature.
1195:Drivers/STM32L0xx_HAL_Driver/Src/stm32l0xx_hal_rcc.c ****   * @note     (**) HSE_VALUE is a constant defined in stm32l0xx_hal_conf.h file (default value
1196:Drivers/STM32L0xx_HAL_Driver/Src/stm32l0xx_hal_rcc.c ****   *                8 MHz), user has to ensure that HSE_VALUE is same as the real
1197:Drivers/STM32L0xx_HAL_Driver/Src/stm32l0xx_hal_rcc.c ****   *                frequency of the crystal used. Otherwise, this function may
1198:Drivers/STM32L0xx_HAL_Driver/Src/stm32l0xx_hal_rcc.c ****   *                have wrong result.
1199:Drivers/STM32L0xx_HAL_Driver/Src/stm32l0xx_hal_rcc.c ****   *
1200:Drivers/STM32L0xx_HAL_Driver/Src/stm32l0xx_hal_rcc.c ****   * @note   The result of this function could be not correct when using fractional
1201:Drivers/STM32L0xx_HAL_Driver/Src/stm32l0xx_hal_rcc.c ****   *         value for HSE crystal.
1202:Drivers/STM32L0xx_HAL_Driver/Src/stm32l0xx_hal_rcc.c ****   *
1203:Drivers/STM32L0xx_HAL_Driver/Src/stm32l0xx_hal_rcc.c ****   * @note   This function can be used by the user application to compute the
1204:Drivers/STM32L0xx_HAL_Driver/Src/stm32l0xx_hal_rcc.c ****   *         baud-rate for the communication peripherals or configure other parameters.
ARM GAS  /tmp/ccOARe22.s 			page 31


1205:Drivers/STM32L0xx_HAL_Driver/Src/stm32l0xx_hal_rcc.c ****   *
1206:Drivers/STM32L0xx_HAL_Driver/Src/stm32l0xx_hal_rcc.c ****   * @note   Each time SYSCLK changes, this function must be called to update the
1207:Drivers/STM32L0xx_HAL_Driver/Src/stm32l0xx_hal_rcc.c ****   *         right SYSCLK value. Otherwise, any configuration based on this function will be incorre
1208:Drivers/STM32L0xx_HAL_Driver/Src/stm32l0xx_hal_rcc.c ****   *
1209:Drivers/STM32L0xx_HAL_Driver/Src/stm32l0xx_hal_rcc.c ****   * @retval SYSCLK frequency
1210:Drivers/STM32L0xx_HAL_Driver/Src/stm32l0xx_hal_rcc.c ****   */
1211:Drivers/STM32L0xx_HAL_Driver/Src/stm32l0xx_hal_rcc.c **** uint32_t HAL_RCC_GetSysClockFreq(void)
1212:Drivers/STM32L0xx_HAL_Driver/Src/stm32l0xx_hal_rcc.c **** {
 449              		.loc 1 1212 1 is_stmt 1 view -0
 450              		.cfi_startproc
 451              		@ args = 0, pretend = 0, frame = 0
 452              		@ frame_needed = 0, uses_anonymous_args = 0
 453 0000 10B5     		push	{r4, lr}
 454              		.cfi_def_cfa_offset 8
 455              		.cfi_offset 4, -8
 456              		.cfi_offset 14, -4
1213:Drivers/STM32L0xx_HAL_Driver/Src/stm32l0xx_hal_rcc.c ****   uint32_t tmpreg, pllm, plld, pllvco, msiclkrange;    /* no init needed */
 457              		.loc 1 1213 3 view .LVU121
1214:Drivers/STM32L0xx_HAL_Driver/Src/stm32l0xx_hal_rcc.c ****   uint32_t sysclockfreq;
 458              		.loc 1 1214 3 view .LVU122
1215:Drivers/STM32L0xx_HAL_Driver/Src/stm32l0xx_hal_rcc.c **** 
1216:Drivers/STM32L0xx_HAL_Driver/Src/stm32l0xx_hal_rcc.c ****   tmpreg = RCC->CFGR;
 459              		.loc 1 1216 3 view .LVU123
 460              		.loc 1 1216 10 is_stmt 0 view .LVU124
 461 0002 264B     		ldr	r3, .L36
 462 0004 DA68     		ldr	r2, [r3, #12]
 463              	.LVL28:
1217:Drivers/STM32L0xx_HAL_Driver/Src/stm32l0xx_hal_rcc.c **** 
1218:Drivers/STM32L0xx_HAL_Driver/Src/stm32l0xx_hal_rcc.c ****   /* Get SYSCLK source -------------------------------------------------------*/
1219:Drivers/STM32L0xx_HAL_Driver/Src/stm32l0xx_hal_rcc.c ****   switch (tmpreg & RCC_CFGR_SWS)
 464              		.loc 1 1219 3 is_stmt 1 view .LVU125
 465              		.loc 1 1219 18 is_stmt 0 view .LVU126
 466 0006 0C23     		movs	r3, #12
 467 0008 1340     		ands	r3, r2
 468              		.loc 1 1219 3 view .LVU127
 469 000a 082B     		cmp	r3, #8
 470 000c 42D0     		beq	.L34
 471 000e 0C2B     		cmp	r3, #12
 472 0010 07D0     		beq	.L30
 473 0012 042B     		cmp	r3, #4
 474 0014 34D1     		bne	.L31
1220:Drivers/STM32L0xx_HAL_Driver/Src/stm32l0xx_hal_rcc.c ****   {
1221:Drivers/STM32L0xx_HAL_Driver/Src/stm32l0xx_hal_rcc.c ****     case RCC_SYSCLKSOURCE_STATUS_HSI:  /* HSI used as system clock source */
1222:Drivers/STM32L0xx_HAL_Driver/Src/stm32l0xx_hal_rcc.c ****     {
1223:Drivers/STM32L0xx_HAL_Driver/Src/stm32l0xx_hal_rcc.c ****       if ((RCC->CR & RCC_CR_HSIDIVF) != 0U)
 475              		.loc 1 1223 7 is_stmt 1 view .LVU128
 476              		.loc 1 1223 15 is_stmt 0 view .LVU129
 477 0016 214B     		ldr	r3, .L36
 478 0018 1B68     		ldr	r3, [r3]
 479              		.loc 1 1223 10 view .LVU130
 480 001a DB06     		lsls	r3, r3, #27
 481 001c 3CD5     		bpl	.L35
1224:Drivers/STM32L0xx_HAL_Driver/Src/stm32l0xx_hal_rcc.c ****       {
1225:Drivers/STM32L0xx_HAL_Driver/Src/stm32l0xx_hal_rcc.c ****         sysclockfreq =  (HSI_VALUE >> 2);
 482              		.loc 1 1225 22 view .LVU131
 483 001e 2048     		ldr	r0, .L36+4
 484 0020 37E0     		b	.L28
ARM GAS  /tmp/ccOARe22.s 			page 32


 485              	.L30:
1226:Drivers/STM32L0xx_HAL_Driver/Src/stm32l0xx_hal_rcc.c ****       }
1227:Drivers/STM32L0xx_HAL_Driver/Src/stm32l0xx_hal_rcc.c ****       else
1228:Drivers/STM32L0xx_HAL_Driver/Src/stm32l0xx_hal_rcc.c ****       {
1229:Drivers/STM32L0xx_HAL_Driver/Src/stm32l0xx_hal_rcc.c ****         sysclockfreq =  HSI_VALUE;
1230:Drivers/STM32L0xx_HAL_Driver/Src/stm32l0xx_hal_rcc.c ****       }
1231:Drivers/STM32L0xx_HAL_Driver/Src/stm32l0xx_hal_rcc.c ****       break;
1232:Drivers/STM32L0xx_HAL_Driver/Src/stm32l0xx_hal_rcc.c ****     }
1233:Drivers/STM32L0xx_HAL_Driver/Src/stm32l0xx_hal_rcc.c ****     case RCC_SYSCLKSOURCE_STATUS_HSE:  /* HSE used as system clock */
1234:Drivers/STM32L0xx_HAL_Driver/Src/stm32l0xx_hal_rcc.c ****     {
1235:Drivers/STM32L0xx_HAL_Driver/Src/stm32l0xx_hal_rcc.c ****       sysclockfreq = HSE_VALUE;
1236:Drivers/STM32L0xx_HAL_Driver/Src/stm32l0xx_hal_rcc.c ****       break;
1237:Drivers/STM32L0xx_HAL_Driver/Src/stm32l0xx_hal_rcc.c ****     }
1238:Drivers/STM32L0xx_HAL_Driver/Src/stm32l0xx_hal_rcc.c ****     case RCC_SYSCLKSOURCE_STATUS_PLLCLK:  /* PLL used as system clock */
1239:Drivers/STM32L0xx_HAL_Driver/Src/stm32l0xx_hal_rcc.c ****     {
1240:Drivers/STM32L0xx_HAL_Driver/Src/stm32l0xx_hal_rcc.c ****       pllm = PLLMulTable[(uint32_t)(tmpreg & RCC_CFGR_PLLMUL) >> RCC_CFGR_PLLMUL_Pos];
 486              		.loc 1 1240 7 is_stmt 1 view .LVU132
 487              		.loc 1 1240 63 is_stmt 0 view .LVU133
 488 0022 910C     		lsrs	r1, r2, #18
 489 0024 0F23     		movs	r3, #15
 490 0026 0B40     		ands	r3, r1
 491              		.loc 1 1240 25 view .LVU134
 492 0028 1E49     		ldr	r1, .L36+8
 493 002a C85C     		ldrb	r0, [r1, r3]
 494              	.LVL29:
1241:Drivers/STM32L0xx_HAL_Driver/Src/stm32l0xx_hal_rcc.c ****       plld = ((uint32_t)(tmpreg & RCC_CFGR_PLLDIV) >> RCC_CFGR_PLLDIV_Pos) + 1U;
 495              		.loc 1 1241 7 is_stmt 1 view .LVU135
 496              		.loc 1 1241 52 is_stmt 0 view .LVU136
 497 002c 920D     		lsrs	r2, r2, #22
 498              	.LVL30:
 499              		.loc 1 1241 52 view .LVU137
 500 002e 0323     		movs	r3, #3
 501 0030 1A40     		ands	r2, r3
 502              		.loc 1 1241 12 view .LVU138
 503 0032 541C     		adds	r4, r2, #1
 504              	.LVL31:
1242:Drivers/STM32L0xx_HAL_Driver/Src/stm32l0xx_hal_rcc.c ****       if (__HAL_RCC_GET_PLL_OSCSOURCE() != RCC_PLLSOURCE_HSI)
 505              		.loc 1 1242 7 is_stmt 1 view .LVU139
 506              		.loc 1 1242 11 is_stmt 0 view .LVU140
 507 0034 194B     		ldr	r3, .L36
 508 0036 DB68     		ldr	r3, [r3, #12]
 509              		.loc 1 1242 10 view .LVU141
 510 0038 DB03     		lsls	r3, r3, #15
 511 003a 09D5     		bpl	.L32
1243:Drivers/STM32L0xx_HAL_Driver/Src/stm32l0xx_hal_rcc.c ****       {
1244:Drivers/STM32L0xx_HAL_Driver/Src/stm32l0xx_hal_rcc.c ****         /* HSE used as PLL clock source */
1245:Drivers/STM32L0xx_HAL_Driver/Src/stm32l0xx_hal_rcc.c ****         pllvco = (uint32_t)(((uint64_t)HSE_VALUE * (uint64_t)pllm) / (uint64_t)plld);
 512              		.loc 1 1245 9 is_stmt 1 view .LVU142
 513              		.loc 1 1245 50 is_stmt 0 view .LVU143
 514 003c 1A4A     		ldr	r2, .L36+12
 515 003e 0023     		movs	r3, #0
 516 0040 0021     		movs	r1, #0
 517 0042 FFF7FEFF 		bl	__aeabi_lmul
 518              	.LVL32:
 519              		.loc 1 1245 68 view .LVU144
 520 0046 2200     		movs	r2, r4
 521 0048 0023     		movs	r3, #0
ARM GAS  /tmp/ccOARe22.s 			page 33


 522 004a FFF7FEFF 		bl	__aeabi_uldivmod
 523              	.LVL33:
 524              		.loc 1 1245 68 view .LVU145
 525 004e 20E0     		b	.L28
 526              	.LVL34:
 527              	.L32:
1246:Drivers/STM32L0xx_HAL_Driver/Src/stm32l0xx_hal_rcc.c ****       }
1247:Drivers/STM32L0xx_HAL_Driver/Src/stm32l0xx_hal_rcc.c ****       else
1248:Drivers/STM32L0xx_HAL_Driver/Src/stm32l0xx_hal_rcc.c ****       {
1249:Drivers/STM32L0xx_HAL_Driver/Src/stm32l0xx_hal_rcc.c ****         if ((RCC->CR & RCC_CR_HSIDIVF) != 0U)
 528              		.loc 1 1249 9 is_stmt 1 view .LVU146
 529              		.loc 1 1249 17 is_stmt 0 view .LVU147
 530 0050 124B     		ldr	r3, .L36
 531 0052 1B68     		ldr	r3, [r3]
 532              		.loc 1 1249 12 view .LVU148
 533 0054 DB06     		lsls	r3, r3, #27
 534 0056 09D5     		bpl	.L33
1250:Drivers/STM32L0xx_HAL_Driver/Src/stm32l0xx_hal_rcc.c ****         {
1251:Drivers/STM32L0xx_HAL_Driver/Src/stm32l0xx_hal_rcc.c ****           pllvco = (uint32_t)((((uint64_t)(HSI_VALUE >> 2)) * (uint64_t)pllm) / (uint64_t)plld);
 535              		.loc 1 1251 11 is_stmt 1 view .LVU149
 536              		.loc 1 1251 61 is_stmt 0 view .LVU150
 537 0058 114A     		ldr	r2, .L36+4
 538 005a 0023     		movs	r3, #0
 539 005c 0021     		movs	r1, #0
 540 005e FFF7FEFF 		bl	__aeabi_lmul
 541              	.LVL35:
 542              		.loc 1 1251 79 view .LVU151
 543 0062 2200     		movs	r2, r4
 544 0064 0023     		movs	r3, #0
 545 0066 FFF7FEFF 		bl	__aeabi_uldivmod
 546              	.LVL36:
 547              		.loc 1 1251 79 view .LVU152
 548 006a 12E0     		b	.L28
 549              	.LVL37:
 550              	.L33:
1252:Drivers/STM32L0xx_HAL_Driver/Src/stm32l0xx_hal_rcc.c ****         }
1253:Drivers/STM32L0xx_HAL_Driver/Src/stm32l0xx_hal_rcc.c ****         else
1254:Drivers/STM32L0xx_HAL_Driver/Src/stm32l0xx_hal_rcc.c ****         {
1255:Drivers/STM32L0xx_HAL_Driver/Src/stm32l0xx_hal_rcc.c ****          pllvco = (uint32_t)(((uint64_t)HSI_VALUE * (uint64_t)pllm) / (uint64_t)plld);
 551              		.loc 1 1255 10 is_stmt 1 view .LVU153
 552              		.loc 1 1255 51 is_stmt 0 view .LVU154
 553 006c 0F4A     		ldr	r2, .L36+16
 554 006e 0023     		movs	r3, #0
 555 0070 0021     		movs	r1, #0
 556 0072 FFF7FEFF 		bl	__aeabi_lmul
 557              	.LVL38:
 558              		.loc 1 1255 69 view .LVU155
 559 0076 2200     		movs	r2, r4
 560 0078 0023     		movs	r3, #0
 561 007a FFF7FEFF 		bl	__aeabi_uldivmod
 562              	.LVL39:
 563              		.loc 1 1255 69 view .LVU156
 564 007e 08E0     		b	.L28
 565              	.LVL40:
 566              	.L31:
1256:Drivers/STM32L0xx_HAL_Driver/Src/stm32l0xx_hal_rcc.c ****         }
1257:Drivers/STM32L0xx_HAL_Driver/Src/stm32l0xx_hal_rcc.c ****       }
ARM GAS  /tmp/ccOARe22.s 			page 34


1258:Drivers/STM32L0xx_HAL_Driver/Src/stm32l0xx_hal_rcc.c ****       sysclockfreq = pllvco;
1259:Drivers/STM32L0xx_HAL_Driver/Src/stm32l0xx_hal_rcc.c ****       break;
1260:Drivers/STM32L0xx_HAL_Driver/Src/stm32l0xx_hal_rcc.c ****     }
1261:Drivers/STM32L0xx_HAL_Driver/Src/stm32l0xx_hal_rcc.c ****     case RCC_SYSCLKSOURCE_STATUS_MSI:  /* MSI used as system clock source */
1262:Drivers/STM32L0xx_HAL_Driver/Src/stm32l0xx_hal_rcc.c ****     default: /* MSI used as system clock */
1263:Drivers/STM32L0xx_HAL_Driver/Src/stm32l0xx_hal_rcc.c ****     {
1264:Drivers/STM32L0xx_HAL_Driver/Src/stm32l0xx_hal_rcc.c ****       msiclkrange = (RCC->ICSCR & RCC_ICSCR_MSIRANGE ) >> RCC_ICSCR_MSIRANGE_Pos;
 567              		.loc 1 1264 7 is_stmt 1 view .LVU157
 568              		.loc 1 1264 25 is_stmt 0 view .LVU158
 569 0080 064B     		ldr	r3, .L36
 570 0082 5A68     		ldr	r2, [r3, #4]
 571              	.LVL41:
 572              		.loc 1 1264 56 view .LVU159
 573 0084 520B     		lsrs	r2, r2, #13
 574              		.loc 1 1264 19 view .LVU160
 575 0086 0723     		movs	r3, #7
 576 0088 1340     		ands	r3, r2
 577              	.LVL42:
1265:Drivers/STM32L0xx_HAL_Driver/Src/stm32l0xx_hal_rcc.c ****       sysclockfreq = (32768U * (1UL << (msiclkrange + 1U)));
 578              		.loc 1 1265 7 is_stmt 1 view .LVU161
 579              		.loc 1 1265 53 is_stmt 0 view .LVU162
 580 008a 0133     		adds	r3, r3, #1
 581              	.LVL43:
 582              		.loc 1 1265 20 view .LVU163
 583 008c 8020     		movs	r0, #128
 584 008e 0002     		lsls	r0, r0, #8
 585 0090 9840     		lsls	r0, r0, r3
 586              	.LVL44:
1266:Drivers/STM32L0xx_HAL_Driver/Src/stm32l0xx_hal_rcc.c ****       break;
 587              		.loc 1 1266 7 is_stmt 1 view .LVU164
 588              	.L28:
1267:Drivers/STM32L0xx_HAL_Driver/Src/stm32l0xx_hal_rcc.c ****     }
1268:Drivers/STM32L0xx_HAL_Driver/Src/stm32l0xx_hal_rcc.c ****   }
1269:Drivers/STM32L0xx_HAL_Driver/Src/stm32l0xx_hal_rcc.c ****   return sysclockfreq;
1270:Drivers/STM32L0xx_HAL_Driver/Src/stm32l0xx_hal_rcc.c **** }
 589              		.loc 1 1270 1 is_stmt 0 view .LVU165
 590              		@ sp needed
 591 0092 10BD     		pop	{r4, pc}
 592              	.LVL45:
 593              	.L34:
1219:Drivers/STM32L0xx_HAL_Driver/Src/stm32l0xx_hal_rcc.c ****   {
 594              		.loc 1 1219 3 view .LVU166
 595 0094 0448     		ldr	r0, .L36+12
 596 0096 FCE7     		b	.L28
 597              	.L35:
1229:Drivers/STM32L0xx_HAL_Driver/Src/stm32l0xx_hal_rcc.c ****       }
 598              		.loc 1 1229 22 view .LVU167
 599 0098 0448     		ldr	r0, .L36+16
 600              	.LVL46:
1269:Drivers/STM32L0xx_HAL_Driver/Src/stm32l0xx_hal_rcc.c **** }
 601              		.loc 1 1269 3 is_stmt 1 view .LVU168
1269:Drivers/STM32L0xx_HAL_Driver/Src/stm32l0xx_hal_rcc.c **** }
 602              		.loc 1 1269 10 is_stmt 0 view .LVU169
 603 009a FAE7     		b	.L28
 604              	.L37:
 605              		.align	2
 606              	.L36:
ARM GAS  /tmp/ccOARe22.s 			page 35


 607 009c 00100240 		.word	1073876992
 608 00a0 00093D00 		.word	4000000
 609 00a4 00000000 		.word	PLLMulTable
 610 00a8 00127A00 		.word	8000000
 611 00ac 0024F400 		.word	16000000
 612              		.cfi_endproc
 613              	.LFE45:
 615              		.section	.text.HAL_RCC_OscConfig,"ax",%progbits
 616              		.align	1
 617              		.global	HAL_RCC_OscConfig
 618              		.syntax unified
 619              		.code	16
 620              		.thumb_func
 622              	HAL_RCC_OscConfig:
 623              	.LVL47:
 624              	.LFB41:
 337:Drivers/STM32L0xx_HAL_Driver/Src/stm32l0xx_hal_rcc.c ****   uint32_t tickstart;
 625              		.loc 1 337 1 is_stmt 1 view -0
 626              		.cfi_startproc
 627              		@ args = 0, pretend = 0, frame = 8
 628              		@ frame_needed = 0, uses_anonymous_args = 0
 337:Drivers/STM32L0xx_HAL_Driver/Src/stm32l0xx_hal_rcc.c ****   uint32_t tickstart;
 629              		.loc 1 337 1 is_stmt 0 view .LVU171
 630 0000 F0B5     		push	{r4, r5, r6, r7, lr}
 631              		.cfi_def_cfa_offset 20
 632              		.cfi_offset 4, -20
 633              		.cfi_offset 5, -16
 634              		.cfi_offset 6, -12
 635              		.cfi_offset 7, -8
 636              		.cfi_offset 14, -4
 637 0002 83B0     		sub	sp, sp, #12
 638              		.cfi_def_cfa_offset 32
 639 0004 041E     		subs	r4, r0, #0
 338:Drivers/STM32L0xx_HAL_Driver/Src/stm32l0xx_hal_rcc.c ****   uint32_t hsi_state;
 640              		.loc 1 338 3 is_stmt 1 view .LVU172
 339:Drivers/STM32L0xx_HAL_Driver/Src/stm32l0xx_hal_rcc.c ****   HAL_StatusTypeDef status;
 641              		.loc 1 339 3 view .LVU173
 340:Drivers/STM32L0xx_HAL_Driver/Src/stm32l0xx_hal_rcc.c ****   uint32_t sysclk_source, pll_config;
 642              		.loc 1 340 3 view .LVU174
 341:Drivers/STM32L0xx_HAL_Driver/Src/stm32l0xx_hal_rcc.c **** 
 643              		.loc 1 341 3 view .LVU175
 344:Drivers/STM32L0xx_HAL_Driver/Src/stm32l0xx_hal_rcc.c ****   {
 644              		.loc 1 344 3 view .LVU176
 344:Drivers/STM32L0xx_HAL_Driver/Src/stm32l0xx_hal_rcc.c ****   {
 645              		.loc 1 344 5 is_stmt 0 view .LVU177
 646 0006 00D1     		bne	.LCB576
 647 0008 65E2     		b	.L98	@long jump
 648              	.LCB576:
 350:Drivers/STM32L0xx_HAL_Driver/Src/stm32l0xx_hal_rcc.c **** 
 649              		.loc 1 350 3 is_stmt 1 view .LVU178
 352:Drivers/STM32L0xx_HAL_Driver/Src/stm32l0xx_hal_rcc.c ****   pll_config = __HAL_RCC_GET_PLL_OSCSOURCE();
 650              		.loc 1 352 3 view .LVU179
 352:Drivers/STM32L0xx_HAL_Driver/Src/stm32l0xx_hal_rcc.c ****   pll_config = __HAL_RCC_GET_PLL_OSCSOURCE();
 651              		.loc 1 352 19 is_stmt 0 view .LVU180
 652 000a C54B     		ldr	r3, .L147
 653 000c DA68     		ldr	r2, [r3, #12]
 352:Drivers/STM32L0xx_HAL_Driver/Src/stm32l0xx_hal_rcc.c ****   pll_config = __HAL_RCC_GET_PLL_OSCSOURCE();
ARM GAS  /tmp/ccOARe22.s 			page 36


 654              		.loc 1 352 17 view .LVU181
 655 000e 0C25     		movs	r5, #12
 656 0010 1540     		ands	r5, r2
 657              	.LVL48:
 353:Drivers/STM32L0xx_HAL_Driver/Src/stm32l0xx_hal_rcc.c **** 
 658              		.loc 1 353 3 is_stmt 1 view .LVU182
 353:Drivers/STM32L0xx_HAL_Driver/Src/stm32l0xx_hal_rcc.c **** 
 659              		.loc 1 353 16 is_stmt 0 view .LVU183
 660 0012 DE68     		ldr	r6, [r3, #12]
 353:Drivers/STM32L0xx_HAL_Driver/Src/stm32l0xx_hal_rcc.c **** 
 661              		.loc 1 353 14 view .LVU184
 662 0014 8023     		movs	r3, #128
 663 0016 5B02     		lsls	r3, r3, #9
 664 0018 1E40     		ands	r6, r3
 665              	.LVL49:
 356:Drivers/STM32L0xx_HAL_Driver/Src/stm32l0xx_hal_rcc.c ****   {
 666              		.loc 1 356 3 is_stmt 1 view .LVU185
 356:Drivers/STM32L0xx_HAL_Driver/Src/stm32l0xx_hal_rcc.c ****   {
 667              		.loc 1 356 25 is_stmt 0 view .LVU186
 668 001a 0368     		ldr	r3, [r0]
 356:Drivers/STM32L0xx_HAL_Driver/Src/stm32l0xx_hal_rcc.c ****   {
 669              		.loc 1 356 5 view .LVU187
 670 001c DB07     		lsls	r3, r3, #31
 671 001e 36D5     		bpl	.L40
 359:Drivers/STM32L0xx_HAL_Driver/Src/stm32l0xx_hal_rcc.c **** 
 672              		.loc 1 359 5 is_stmt 1 view .LVU188
 362:Drivers/STM32L0xx_HAL_Driver/Src/stm32l0xx_hal_rcc.c ****        || ((sysclk_source == RCC_SYSCLKSOURCE_STATUS_PLLCLK) && (pll_config == RCC_PLLSOURCE_HSE)))
 673              		.loc 1 362 5 view .LVU189
 362:Drivers/STM32L0xx_HAL_Driver/Src/stm32l0xx_hal_rcc.c ****        || ((sysclk_source == RCC_SYSCLKSOURCE_STATUS_PLLCLK) && (pll_config == RCC_PLLSOURCE_HSE)))
 674              		.loc 1 362 7 is_stmt 0 view .LVU190
 675 0020 082D     		cmp	r5, #8
 676 0022 2CD0     		beq	.L41
 363:Drivers/STM32L0xx_HAL_Driver/Src/stm32l0xx_hal_rcc.c ****     {
 677              		.loc 1 363 8 view .LVU191
 678 0024 0C2D     		cmp	r5, #12
 679 0026 28D0     		beq	.L132
 680              	.L42:
 373:Drivers/STM32L0xx_HAL_Driver/Src/stm32l0xx_hal_rcc.c **** 
 681              		.loc 1 373 7 is_stmt 1 view .LVU192
 682              	.LBB5:
 373:Drivers/STM32L0xx_HAL_Driver/Src/stm32l0xx_hal_rcc.c **** 
 683              		.loc 1 373 7 view .LVU193
 373:Drivers/STM32L0xx_HAL_Driver/Src/stm32l0xx_hal_rcc.c **** 
 684              		.loc 1 373 7 view .LVU194
 685 0028 6368     		ldr	r3, [r4, #4]
 686 002a 8022     		movs	r2, #128
 687 002c 5202     		lsls	r2, r2, #9
 688 002e 9342     		cmp	r3, r2
 689 0030 55D0     		beq	.L133
 373:Drivers/STM32L0xx_HAL_Driver/Src/stm32l0xx_hal_rcc.c **** 
 690              		.loc 1 373 7 discriminator 2 view .LVU195
 691 0032 A022     		movs	r2, #160
 692 0034 D202     		lsls	r2, r2, #11
 693 0036 9342     		cmp	r3, r2
 694 0038 58D0     		beq	.L134
 373:Drivers/STM32L0xx_HAL_Driver/Src/stm32l0xx_hal_rcc.c **** 
 695              		.loc 1 373 7 discriminator 5 view .LVU196
ARM GAS  /tmp/ccOARe22.s 			page 37


 696 003a B94B     		ldr	r3, .L147
 697 003c 1A68     		ldr	r2, [r3]
 698 003e B949     		ldr	r1, .L147+4
 699 0040 0A40     		ands	r2, r1
 700 0042 1A60     		str	r2, [r3]
 373:Drivers/STM32L0xx_HAL_Driver/Src/stm32l0xx_hal_rcc.c **** 
 701              		.loc 1 373 7 discriminator 5 view .LVU197
 702 0044 1A68     		ldr	r2, [r3]
 703 0046 8021     		movs	r1, #128
 704 0048 4902     		lsls	r1, r1, #9
 705 004a 0A40     		ands	r2, r1
 706 004c 0192     		str	r2, [sp, #4]
 373:Drivers/STM32L0xx_HAL_Driver/Src/stm32l0xx_hal_rcc.c **** 
 707              		.loc 1 373 7 discriminator 5 view .LVU198
 708 004e 019A     		ldr	r2, [sp, #4]
 373:Drivers/STM32L0xx_HAL_Driver/Src/stm32l0xx_hal_rcc.c **** 
 709              		.loc 1 373 7 discriminator 5 view .LVU199
 710 0050 1A68     		ldr	r2, [r3]
 711 0052 B549     		ldr	r1, .L147+8
 712 0054 0A40     		ands	r2, r1
 713 0056 1A60     		str	r2, [r3]
 714              	.L44:
 715              	.LBE5:
 373:Drivers/STM32L0xx_HAL_Driver/Src/stm32l0xx_hal_rcc.c **** 
 716              		.loc 1 373 7 discriminator 7 view .LVU200
 376:Drivers/STM32L0xx_HAL_Driver/Src/stm32l0xx_hal_rcc.c ****       {
 717              		.loc 1 376 7 view .LVU201
 376:Drivers/STM32L0xx_HAL_Driver/Src/stm32l0xx_hal_rcc.c ****       {
 718              		.loc 1 376 27 is_stmt 0 view .LVU202
 719 0058 6368     		ldr	r3, [r4, #4]
 376:Drivers/STM32L0xx_HAL_Driver/Src/stm32l0xx_hal_rcc.c ****       {
 720              		.loc 1 376 9 view .LVU203
 721 005a 002B     		cmp	r3, #0
 722 005c 52D0     		beq	.L46
 379:Drivers/STM32L0xx_HAL_Driver/Src/stm32l0xx_hal_rcc.c **** 
 723              		.loc 1 379 9 is_stmt 1 view .LVU204
 379:Drivers/STM32L0xx_HAL_Driver/Src/stm32l0xx_hal_rcc.c **** 
 724              		.loc 1 379 21 is_stmt 0 view .LVU205
 725 005e FFF7FEFF 		bl	HAL_GetTick
 726              	.LVL50:
 379:Drivers/STM32L0xx_HAL_Driver/Src/stm32l0xx_hal_rcc.c **** 
 727              		.loc 1 379 21 view .LVU206
 728 0062 0700     		movs	r7, r0
 729              	.LVL51:
 382:Drivers/STM32L0xx_HAL_Driver/Src/stm32l0xx_hal_rcc.c ****         {
 730              		.loc 1 382 9 is_stmt 1 view .LVU207
 731              	.L47:
 382:Drivers/STM32L0xx_HAL_Driver/Src/stm32l0xx_hal_rcc.c ****         {
 732              		.loc 1 382 51 view .LVU208
 382:Drivers/STM32L0xx_HAL_Driver/Src/stm32l0xx_hal_rcc.c ****         {
 733              		.loc 1 382 15 is_stmt 0 view .LVU209
 734 0064 AE4B     		ldr	r3, .L147
 735 0066 1B68     		ldr	r3, [r3]
 382:Drivers/STM32L0xx_HAL_Driver/Src/stm32l0xx_hal_rcc.c ****         {
 736              		.loc 1 382 51 view .LVU210
 737 0068 9B03     		lsls	r3, r3, #14
 738 006a 10D4     		bmi	.L40
ARM GAS  /tmp/ccOARe22.s 			page 38


 384:Drivers/STM32L0xx_HAL_Driver/Src/stm32l0xx_hal_rcc.c ****           {
 739              		.loc 1 384 11 is_stmt 1 view .LVU211
 384:Drivers/STM32L0xx_HAL_Driver/Src/stm32l0xx_hal_rcc.c ****           {
 740              		.loc 1 384 15 is_stmt 0 view .LVU212
 741 006c FFF7FEFF 		bl	HAL_GetTick
 742              	.LVL52:
 384:Drivers/STM32L0xx_HAL_Driver/Src/stm32l0xx_hal_rcc.c ****           {
 743              		.loc 1 384 29 discriminator 1 view .LVU213
 744 0070 C01B     		subs	r0, r0, r7
 384:Drivers/STM32L0xx_HAL_Driver/Src/stm32l0xx_hal_rcc.c ****           {
 745              		.loc 1 384 13 discriminator 1 view .LVU214
 746 0072 6428     		cmp	r0, #100
 747 0074 F6D9     		bls	.L47
 386:Drivers/STM32L0xx_HAL_Driver/Src/stm32l0xx_hal_rcc.c ****           }
 748              		.loc 1 386 20 view .LVU215
 749 0076 0320     		movs	r0, #3
 750 0078 2EE2     		b	.L39
 751              	.LVL53:
 752              	.L132:
 363:Drivers/STM32L0xx_HAL_Driver/Src/stm32l0xx_hal_rcc.c ****     {
 753              		.loc 1 363 62 discriminator 1 view .LVU216
 754 007a 002E     		cmp	r6, #0
 755 007c D4D0     		beq	.L42
 756              	.L41:
 365:Drivers/STM32L0xx_HAL_Driver/Src/stm32l0xx_hal_rcc.c ****       {
 757              		.loc 1 365 7 is_stmt 1 view .LVU217
 365:Drivers/STM32L0xx_HAL_Driver/Src/stm32l0xx_hal_rcc.c ****       {
 758              		.loc 1 365 11 is_stmt 0 view .LVU218
 759 007e A84B     		ldr	r3, .L147
 760 0080 1B68     		ldr	r3, [r3]
 365:Drivers/STM32L0xx_HAL_Driver/Src/stm32l0xx_hal_rcc.c ****       {
 761              		.loc 1 365 9 view .LVU219
 762 0082 9B03     		lsls	r3, r3, #14
 763 0084 03D5     		bpl	.L40
 365:Drivers/STM32L0xx_HAL_Driver/Src/stm32l0xx_hal_rcc.c ****       {
 764              		.loc 1 365 75 discriminator 1 view .LVU220
 765 0086 6368     		ldr	r3, [r4, #4]
 365:Drivers/STM32L0xx_HAL_Driver/Src/stm32l0xx_hal_rcc.c ****       {
 766              		.loc 1 365 54 discriminator 1 view .LVU221
 767 0088 002B     		cmp	r3, #0
 768 008a 00D1     		bne	.LCB685
 769 008c 26E2     		b	.L135	@long jump
 770              	.LCB685:
 771              	.LVL54:
 772              	.L40:
 407:Drivers/STM32L0xx_HAL_Driver/Src/stm32l0xx_hal_rcc.c ****   {
 773              		.loc 1 407 3 is_stmt 1 view .LVU222
 407:Drivers/STM32L0xx_HAL_Driver/Src/stm32l0xx_hal_rcc.c ****   {
 774              		.loc 1 407 25 is_stmt 0 view .LVU223
 775 008e 2368     		ldr	r3, [r4]
 407:Drivers/STM32L0xx_HAL_Driver/Src/stm32l0xx_hal_rcc.c ****   {
 776              		.loc 1 407 5 view .LVU224
 777 0090 9B07     		lsls	r3, r3, #30
 778 0092 6DD5     		bpl	.L51
 410:Drivers/STM32L0xx_HAL_Driver/Src/stm32l0xx_hal_rcc.c ****     assert_param(IS_RCC_CALIBRATION_VALUE(RCC_OscInitStruct->HSICalibrationValue));
 779              		.loc 1 410 5 is_stmt 1 view .LVU225
 411:Drivers/STM32L0xx_HAL_Driver/Src/stm32l0xx_hal_rcc.c **** 
ARM GAS  /tmp/ccOARe22.s 			page 39


 780              		.loc 1 411 5 view .LVU226
 413:Drivers/STM32L0xx_HAL_Driver/Src/stm32l0xx_hal_rcc.c **** 
 781              		.loc 1 413 5 view .LVU227
 413:Drivers/STM32L0xx_HAL_Driver/Src/stm32l0xx_hal_rcc.c **** 
 782              		.loc 1 413 15 is_stmt 0 view .LVU228
 783 0094 E368     		ldr	r3, [r4, #12]
 784              	.LVL55:
 416:Drivers/STM32L0xx_HAL_Driver/Src/stm32l0xx_hal_rcc.c ****     {
 785              		.loc 1 416 5 is_stmt 1 view .LVU229
 416:Drivers/STM32L0xx_HAL_Driver/Src/stm32l0xx_hal_rcc.c ****     {
 786              		.loc 1 416 7 is_stmt 0 view .LVU230
 787 0096 9A06     		lsls	r2, r3, #26
 788 0098 05D5     		bpl	.L52
 419:Drivers/STM32L0xx_HAL_Driver/Src/stm32l0xx_hal_rcc.c **** 
 789              		.loc 1 419 7 is_stmt 1 view .LVU231
 790 009a A148     		ldr	r0, .L147
 791 009c 0268     		ldr	r2, [r0]
 792 009e 2021     		movs	r1, #32
 793 00a0 0A43     		orrs	r2, r1
 794 00a2 0260     		str	r2, [r0]
 421:Drivers/STM32L0xx_HAL_Driver/Src/stm32l0xx_hal_rcc.c ****     }
 795              		.loc 1 421 7 view .LVU232
 421:Drivers/STM32L0xx_HAL_Driver/Src/stm32l0xx_hal_rcc.c ****     }
 796              		.loc 1 421 17 is_stmt 0 view .LVU233
 797 00a4 8B43     		bics	r3, r1
 798              	.LVL56:
 799              	.L52:
 426:Drivers/STM32L0xx_HAL_Driver/Src/stm32l0xx_hal_rcc.c ****        || ((sysclk_source == RCC_SYSCLKSOURCE_STATUS_PLLCLK) && (pll_config == RCC_PLLSOURCE_HSI)))
 800              		.loc 1 426 5 is_stmt 1 view .LVU234
 426:Drivers/STM32L0xx_HAL_Driver/Src/stm32l0xx_hal_rcc.c ****        || ((sysclk_source == RCC_SYSCLKSOURCE_STATUS_PLLCLK) && (pll_config == RCC_PLLSOURCE_HSI)))
 801              		.loc 1 426 7 is_stmt 0 view .LVU235
 802 00a6 042D     		cmp	r5, #4
 803 00a8 3CD0     		beq	.L53
 427:Drivers/STM32L0xx_HAL_Driver/Src/stm32l0xx_hal_rcc.c ****     {
 804              		.loc 1 427 8 view .LVU236
 805 00aa 0C2D     		cmp	r5, #12
 806 00ac 38D0     		beq	.L136
 807              	.L54:
 457:Drivers/STM32L0xx_HAL_Driver/Src/stm32l0xx_hal_rcc.c ****       {
 808              		.loc 1 457 7 is_stmt 1 view .LVU237
 457:Drivers/STM32L0xx_HAL_Driver/Src/stm32l0xx_hal_rcc.c ****       {
 809              		.loc 1 457 9 is_stmt 0 view .LVU238
 810 00ae 002B     		cmp	r3, #0
 811 00b0 00D1     		bne	.LCB727
 812 00b2 B0E0     		b	.L56	@long jump
 813              	.LCB727:
 460:Drivers/STM32L0xx_HAL_Driver/Src/stm32l0xx_hal_rcc.c **** 
 814              		.loc 1 460 9 is_stmt 1 view .LVU239
 815 00b4 9A49     		ldr	r1, .L147
 816 00b6 0A68     		ldr	r2, [r1]
 817 00b8 0920     		movs	r0, #9
 818 00ba 8243     		bics	r2, r0
 819 00bc 1343     		orrs	r3, r2
 820              	.LVL57:
 460:Drivers/STM32L0xx_HAL_Driver/Src/stm32l0xx_hal_rcc.c **** 
 821              		.loc 1 460 9 is_stmt 0 view .LVU240
 822 00be 0B60     		str	r3, [r1]
ARM GAS  /tmp/ccOARe22.s 			page 40


 463:Drivers/STM32L0xx_HAL_Driver/Src/stm32l0xx_hal_rcc.c **** 
 823              		.loc 1 463 9 is_stmt 1 view .LVU241
 463:Drivers/STM32L0xx_HAL_Driver/Src/stm32l0xx_hal_rcc.c **** 
 824              		.loc 1 463 21 is_stmt 0 view .LVU242
 825 00c0 FFF7FEFF 		bl	HAL_GetTick
 826              	.LVL58:
 827 00c4 0600     		movs	r6, r0
 828              	.LVL59:
 466:Drivers/STM32L0xx_HAL_Driver/Src/stm32l0xx_hal_rcc.c ****         {
 829              		.loc 1 466 9 is_stmt 1 view .LVU243
 830              	.L57:
 466:Drivers/STM32L0xx_HAL_Driver/Src/stm32l0xx_hal_rcc.c ****         {
 831              		.loc 1 466 51 view .LVU244
 466:Drivers/STM32L0xx_HAL_Driver/Src/stm32l0xx_hal_rcc.c ****         {
 832              		.loc 1 466 15 is_stmt 0 view .LVU245
 833 00c6 964B     		ldr	r3, .L147
 834 00c8 1B68     		ldr	r3, [r3]
 466:Drivers/STM32L0xx_HAL_Driver/Src/stm32l0xx_hal_rcc.c ****         {
 835              		.loc 1 466 51 view .LVU246
 836 00ca 5B07     		lsls	r3, r3, #29
 837 00cc 00D5     		bpl	.LCB751
 838 00ce 99E0     		b	.L137	@long jump
 839              	.LCB751:
 468:Drivers/STM32L0xx_HAL_Driver/Src/stm32l0xx_hal_rcc.c ****           {
 840              		.loc 1 468 11 is_stmt 1 view .LVU247
 468:Drivers/STM32L0xx_HAL_Driver/Src/stm32l0xx_hal_rcc.c ****           {
 841              		.loc 1 468 15 is_stmt 0 view .LVU248
 842 00d0 FFF7FEFF 		bl	HAL_GetTick
 843              	.LVL60:
 468:Drivers/STM32L0xx_HAL_Driver/Src/stm32l0xx_hal_rcc.c ****           {
 844              		.loc 1 468 29 discriminator 1 view .LVU249
 845 00d4 801B     		subs	r0, r0, r6
 468:Drivers/STM32L0xx_HAL_Driver/Src/stm32l0xx_hal_rcc.c ****           {
 846              		.loc 1 468 13 discriminator 1 view .LVU250
 847 00d6 0228     		cmp	r0, #2
 848 00d8 F5D9     		bls	.L57
 470:Drivers/STM32L0xx_HAL_Driver/Src/stm32l0xx_hal_rcc.c ****           }
 849              		.loc 1 470 20 view .LVU251
 850 00da 0320     		movs	r0, #3
 851 00dc FCE1     		b	.L39
 852              	.LVL61:
 853              	.L133:
 854              	.LBB6:
 373:Drivers/STM32L0xx_HAL_Driver/Src/stm32l0xx_hal_rcc.c **** 
 855              		.loc 1 373 7 is_stmt 1 discriminator 1 view .LVU252
 856 00de 904A     		ldr	r2, .L147
 857 00e0 1168     		ldr	r1, [r2]
 858 00e2 8023     		movs	r3, #128
 859 00e4 5B02     		lsls	r3, r3, #9
 860 00e6 0B43     		orrs	r3, r1
 861 00e8 1360     		str	r3, [r2]
 862 00ea B5E7     		b	.L44
 863              	.L134:
 373:Drivers/STM32L0xx_HAL_Driver/Src/stm32l0xx_hal_rcc.c **** 
 864              		.loc 1 373 7 discriminator 4 view .LVU253
 865 00ec 8C4B     		ldr	r3, .L147
 866 00ee 1968     		ldr	r1, [r3]
ARM GAS  /tmp/ccOARe22.s 			page 41


 867 00f0 8022     		movs	r2, #128
 868 00f2 D202     		lsls	r2, r2, #11
 869 00f4 0A43     		orrs	r2, r1
 870 00f6 1A60     		str	r2, [r3]
 373:Drivers/STM32L0xx_HAL_Driver/Src/stm32l0xx_hal_rcc.c **** 
 871              		.loc 1 373 7 discriminator 4 view .LVU254
 872 00f8 1968     		ldr	r1, [r3]
 873 00fa 8022     		movs	r2, #128
 874 00fc 5202     		lsls	r2, r2, #9
 875 00fe 0A43     		orrs	r2, r1
 876 0100 1A60     		str	r2, [r3]
 877 0102 A9E7     		b	.L44
 878              	.L46:
 373:Drivers/STM32L0xx_HAL_Driver/Src/stm32l0xx_hal_rcc.c **** 
 879              		.loc 1 373 7 is_stmt 0 discriminator 4 view .LVU255
 880              	.LBE6:
 393:Drivers/STM32L0xx_HAL_Driver/Src/stm32l0xx_hal_rcc.c **** 
 881              		.loc 1 393 9 is_stmt 1 view .LVU256
 393:Drivers/STM32L0xx_HAL_Driver/Src/stm32l0xx_hal_rcc.c **** 
 882              		.loc 1 393 21 is_stmt 0 view .LVU257
 883 0104 FFF7FEFF 		bl	HAL_GetTick
 884              	.LVL62:
 393:Drivers/STM32L0xx_HAL_Driver/Src/stm32l0xx_hal_rcc.c **** 
 885              		.loc 1 393 21 view .LVU258
 886 0108 0700     		movs	r7, r0
 887              	.LVL63:
 396:Drivers/STM32L0xx_HAL_Driver/Src/stm32l0xx_hal_rcc.c ****         {
 888              		.loc 1 396 9 is_stmt 1 view .LVU259
 889              	.L49:
 396:Drivers/STM32L0xx_HAL_Driver/Src/stm32l0xx_hal_rcc.c ****         {
 890              		.loc 1 396 51 view .LVU260
 396:Drivers/STM32L0xx_HAL_Driver/Src/stm32l0xx_hal_rcc.c ****         {
 891              		.loc 1 396 15 is_stmt 0 view .LVU261
 892 010a 854B     		ldr	r3, .L147
 893 010c 1B68     		ldr	r3, [r3]
 396:Drivers/STM32L0xx_HAL_Driver/Src/stm32l0xx_hal_rcc.c ****         {
 894              		.loc 1 396 51 view .LVU262
 895 010e 9B03     		lsls	r3, r3, #14
 896 0110 BDD5     		bpl	.L40
 398:Drivers/STM32L0xx_HAL_Driver/Src/stm32l0xx_hal_rcc.c ****           {
 897              		.loc 1 398 12 is_stmt 1 view .LVU263
 398:Drivers/STM32L0xx_HAL_Driver/Src/stm32l0xx_hal_rcc.c ****           {
 898              		.loc 1 398 16 is_stmt 0 view .LVU264
 899 0112 FFF7FEFF 		bl	HAL_GetTick
 900              	.LVL64:
 398:Drivers/STM32L0xx_HAL_Driver/Src/stm32l0xx_hal_rcc.c ****           {
 901              		.loc 1 398 30 discriminator 1 view .LVU265
 902 0116 C01B     		subs	r0, r0, r7
 398:Drivers/STM32L0xx_HAL_Driver/Src/stm32l0xx_hal_rcc.c ****           {
 903              		.loc 1 398 14 discriminator 1 view .LVU266
 904 0118 6428     		cmp	r0, #100
 905 011a F6D9     		bls	.L49
 400:Drivers/STM32L0xx_HAL_Driver/Src/stm32l0xx_hal_rcc.c ****           }
 906              		.loc 1 400 20 view .LVU267
 907 011c 0320     		movs	r0, #3
 908 011e DBE1     		b	.L39
 909              	.LVL65:
ARM GAS  /tmp/ccOARe22.s 			page 42


 910              	.L136:
 427:Drivers/STM32L0xx_HAL_Driver/Src/stm32l0xx_hal_rcc.c ****     {
 911              		.loc 1 427 62 discriminator 1 view .LVU268
 912 0120 002E     		cmp	r6, #0
 913 0122 C4D1     		bne	.L54
 914              	.L53:
 430:Drivers/STM32L0xx_HAL_Driver/Src/stm32l0xx_hal_rcc.c ****       {
 915              		.loc 1 430 7 is_stmt 1 view .LVU269
 430:Drivers/STM32L0xx_HAL_Driver/Src/stm32l0xx_hal_rcc.c ****       {
 916              		.loc 1 430 11 is_stmt 0 view .LVU270
 917 0124 7E4A     		ldr	r2, .L147
 918 0126 1268     		ldr	r2, [r2]
 430:Drivers/STM32L0xx_HAL_Driver/Src/stm32l0xx_hal_rcc.c ****       {
 919              		.loc 1 430 9 view .LVU271
 920 0128 5207     		lsls	r2, r2, #29
 921 012a 02D5     		bpl	.L55
 430:Drivers/STM32L0xx_HAL_Driver/Src/stm32l0xx_hal_rcc.c ****       {
 922              		.loc 1 430 54 discriminator 1 view .LVU272
 923 012c 002B     		cmp	r3, #0
 924 012e 00D1     		bne	.LCB839
 925 0130 D6E1     		b	.L102	@long jump
 926              	.LCB839:
 927              	.L55:
 438:Drivers/STM32L0xx_HAL_Driver/Src/stm32l0xx_hal_rcc.c **** 
 928              		.loc 1 438 9 is_stmt 1 view .LVU273
 929 0132 7B4E     		ldr	r6, .L147
 930              	.LVL66:
 438:Drivers/STM32L0xx_HAL_Driver/Src/stm32l0xx_hal_rcc.c **** 
 931              		.loc 1 438 9 is_stmt 0 view .LVU274
 932 0134 7268     		ldr	r2, [r6, #4]
 933 0136 7D49     		ldr	r1, .L147+12
 934 0138 0A40     		ands	r2, r1
 935 013a 2169     		ldr	r1, [r4, #16]
 936 013c 0902     		lsls	r1, r1, #8
 937 013e 0A43     		orrs	r2, r1
 938 0140 7260     		str	r2, [r6, #4]
 441:Drivers/STM32L0xx_HAL_Driver/Src/stm32l0xx_hal_rcc.c ****       }
 939              		.loc 1 441 9 is_stmt 1 view .LVU275
 940 0142 3268     		ldr	r2, [r6]
 941 0144 0921     		movs	r1, #9
 942 0146 8A43     		bics	r2, r1
 943 0148 1343     		orrs	r3, r2
 944              	.LVL67:
 441:Drivers/STM32L0xx_HAL_Driver/Src/stm32l0xx_hal_rcc.c ****       }
 945              		.loc 1 441 9 is_stmt 0 view .LVU276
 946 014a 3360     		str	r3, [r6]
 445:Drivers/STM32L0xx_HAL_Driver/Src/stm32l0xx_hal_rcc.c **** 
 947              		.loc 1 445 7 is_stmt 1 view .LVU277
 445:Drivers/STM32L0xx_HAL_Driver/Src/stm32l0xx_hal_rcc.c **** 
 948              		.loc 1 445 25 is_stmt 0 view .LVU278
 949 014c FFF7FEFF 		bl	HAL_RCC_GetSysClockFreq
 950              	.LVL68:
 445:Drivers/STM32L0xx_HAL_Driver/Src/stm32l0xx_hal_rcc.c **** 
 951              		.loc 1 445 72 discriminator 1 view .LVU279
 952 0150 F268     		ldr	r2, [r6, #12]
 445:Drivers/STM32L0xx_HAL_Driver/Src/stm32l0xx_hal_rcc.c **** 
 953              		.loc 1 445 95 discriminator 1 view .LVU280
ARM GAS  /tmp/ccOARe22.s 			page 43


 954 0152 1209     		lsrs	r2, r2, #4
 955 0154 0F23     		movs	r3, #15
 956 0156 1340     		ands	r3, r2
 445:Drivers/STM32L0xx_HAL_Driver/Src/stm32l0xx_hal_rcc.c **** 
 957              		.loc 1 445 67 discriminator 1 view .LVU281
 958 0158 754A     		ldr	r2, .L147+16
 959 015a D35C     		ldrb	r3, [r2, r3]
 445:Drivers/STM32L0xx_HAL_Driver/Src/stm32l0xx_hal_rcc.c **** 
 960              		.loc 1 445 51 discriminator 1 view .LVU282
 961 015c D840     		lsrs	r0, r0, r3
 445:Drivers/STM32L0xx_HAL_Driver/Src/stm32l0xx_hal_rcc.c **** 
 962              		.loc 1 445 23 discriminator 1 view .LVU283
 963 015e 754B     		ldr	r3, .L147+20
 964 0160 1860     		str	r0, [r3]
 448:Drivers/STM32L0xx_HAL_Driver/Src/stm32l0xx_hal_rcc.c ****       if(status != HAL_OK)
 965              		.loc 1 448 7 is_stmt 1 view .LVU284
 448:Drivers/STM32L0xx_HAL_Driver/Src/stm32l0xx_hal_rcc.c ****       if(status != HAL_OK)
 966              		.loc 1 448 16 is_stmt 0 view .LVU285
 967 0162 754B     		ldr	r3, .L147+24
 968 0164 1868     		ldr	r0, [r3]
 969 0166 FFF7FEFF 		bl	HAL_InitTick
 970              	.LVL69:
 449:Drivers/STM32L0xx_HAL_Driver/Src/stm32l0xx_hal_rcc.c ****       {
 971              		.loc 1 449 7 is_stmt 1 view .LVU286
 449:Drivers/STM32L0xx_HAL_Driver/Src/stm32l0xx_hal_rcc.c ****       {
 972              		.loc 1 449 9 is_stmt 0 view .LVU287
 973 016a 0028     		cmp	r0, #0
 974 016c 00D0     		beq	.LCB878
 975 016e B3E1     		b	.L39	@long jump
 976              	.LCB878:
 977              	.LVL70:
 978              	.L51:
 497:Drivers/STM32L0xx_HAL_Driver/Src/stm32l0xx_hal_rcc.c ****   {
 979              		.loc 1 497 3 is_stmt 1 view .LVU288
 497:Drivers/STM32L0xx_HAL_Driver/Src/stm32l0xx_hal_rcc.c ****   {
 980              		.loc 1 497 25 is_stmt 0 view .LVU289
 981 0170 2368     		ldr	r3, [r4]
 497:Drivers/STM32L0xx_HAL_Driver/Src/stm32l0xx_hal_rcc.c ****   {
 982              		.loc 1 497 5 view .LVU290
 983 0172 DB06     		lsls	r3, r3, #27
 984 0174 2DD5     		bpl	.L61
 500:Drivers/STM32L0xx_HAL_Driver/Src/stm32l0xx_hal_rcc.c ****     {
 985              		.loc 1 500 5 is_stmt 1 view .LVU291
 500:Drivers/STM32L0xx_HAL_Driver/Src/stm32l0xx_hal_rcc.c ****     {
 986              		.loc 1 500 7 is_stmt 0 view .LVU292
 987 0176 002D     		cmp	r5, #0
 988 0178 60D1     		bne	.L62
 502:Drivers/STM32L0xx_HAL_Driver/Src/stm32l0xx_hal_rcc.c ****       {
 989              		.loc 1 502 7 is_stmt 1 view .LVU293
 502:Drivers/STM32L0xx_HAL_Driver/Src/stm32l0xx_hal_rcc.c ****       {
 990              		.loc 1 502 11 is_stmt 0 view .LVU294
 991 017a 694B     		ldr	r3, .L147
 992 017c 1B68     		ldr	r3, [r3]
 502:Drivers/STM32L0xx_HAL_Driver/Src/stm32l0xx_hal_rcc.c ****       {
 993              		.loc 1 502 9 view .LVU295
 994 017e 9B05     		lsls	r3, r3, #22
 995 0180 03D5     		bpl	.L63
ARM GAS  /tmp/ccOARe22.s 			page 44


 502:Drivers/STM32L0xx_HAL_Driver/Src/stm32l0xx_hal_rcc.c ****       {
 996              		.loc 1 502 75 discriminator 1 view .LVU296
 997 0182 A369     		ldr	r3, [r4, #24]
 502:Drivers/STM32L0xx_HAL_Driver/Src/stm32l0xx_hal_rcc.c ****       {
 998              		.loc 1 502 54 discriminator 1 view .LVU297
 999 0184 002B     		cmp	r3, #0
 1000 0186 00D1     		bne	.LCB901
 1001 0188 ACE1     		b	.L105	@long jump
 1002              	.LCB901:
 1003              	.L63:
 510:Drivers/STM32L0xx_HAL_Driver/Src/stm32l0xx_hal_rcc.c ****         assert_param(IS_RCC_MSI_CLOCK_RANGE(RCC_OscInitStruct->MSIClockRange));
 1004              		.loc 1 510 9 is_stmt 1 view .LVU298
 511:Drivers/STM32L0xx_HAL_Driver/Src/stm32l0xx_hal_rcc.c **** 
 1005              		.loc 1 511 9 view .LVU299
 514:Drivers/STM32L0xx_HAL_Driver/Src/stm32l0xx_hal_rcc.c ****         /* Adjusts the Multiple Speed oscillator (MSI) calibration value.*/
 1006              		.loc 1 514 9 view .LVU300
 1007 018a 654A     		ldr	r2, .L147
 1008 018c 5368     		ldr	r3, [r2, #4]
 1009 018e 6B49     		ldr	r1, .L147+28
 1010 0190 0B40     		ands	r3, r1
 1011 0192 216A     		ldr	r1, [r4, #32]
 1012 0194 0B43     		orrs	r3, r1
 1013 0196 5360     		str	r3, [r2, #4]
 516:Drivers/STM32L0xx_HAL_Driver/Src/stm32l0xx_hal_rcc.c **** 
 1014              		.loc 1 516 9 view .LVU301
 1015 0198 5368     		ldr	r3, [r2, #4]
 1016 019a 1B02     		lsls	r3, r3, #8
 1017 019c 1B0A     		lsrs	r3, r3, #8
 1018 019e E169     		ldr	r1, [r4, #28]
 1019 01a0 0906     		lsls	r1, r1, #24
 1020 01a2 0B43     		orrs	r3, r1
 1021 01a4 5360     		str	r3, [r2, #4]
 520:Drivers/STM32L0xx_HAL_Driver/Src/stm32l0xx_hal_rcc.c ****                            >> AHBPrescTable[((RCC->CFGR & RCC_CFGR_HPRE) >> RCC_CFGR_HPRE_Pos)];
 1022              		.loc 1 520 9 view .LVU302
 520:Drivers/STM32L0xx_HAL_Driver/Src/stm32l0xx_hal_rcc.c ****                            >> AHBPrescTable[((RCC->CFGR & RCC_CFGR_HPRE) >> RCC_CFGR_HPRE_Pos)];
 1023              		.loc 1 520 65 is_stmt 0 view .LVU303
 1024 01a6 216A     		ldr	r1, [r4, #32]
 520:Drivers/STM32L0xx_HAL_Driver/Src/stm32l0xx_hal_rcc.c ****                            >> AHBPrescTable[((RCC->CFGR & RCC_CFGR_HPRE) >> RCC_CFGR_HPRE_Pos)];
 1025              		.loc 1 520 81 view .LVU304
 1026 01a8 490B     		lsrs	r1, r1, #13
 520:Drivers/STM32L0xx_HAL_Driver/Src/stm32l0xx_hal_rcc.c ****                            >> AHBPrescTable[((RCC->CFGR & RCC_CFGR_HPRE) >> RCC_CFGR_HPRE_Pos)];
 1027              		.loc 1 520 108 view .LVU305
 1028 01aa 0131     		adds	r1, r1, #1
 520:Drivers/STM32L0xx_HAL_Driver/Src/stm32l0xx_hal_rcc.c ****                            >> AHBPrescTable[((RCC->CFGR & RCC_CFGR_HPRE) >> RCC_CFGR_HPRE_Pos)];
 1029              		.loc 1 520 36 view .LVU306
 1030 01ac 8023     		movs	r3, #128
 1031 01ae 1B02     		lsls	r3, r3, #8
 1032 01b0 8B40     		lsls	r3, r3, r1
 521:Drivers/STM32L0xx_HAL_Driver/Src/stm32l0xx_hal_rcc.c **** 
 1033              		.loc 1 521 50 view .LVU307
 1034 01b2 D168     		ldr	r1, [r2, #12]
 521:Drivers/STM32L0xx_HAL_Driver/Src/stm32l0xx_hal_rcc.c **** 
 1035              		.loc 1 521 74 view .LVU308
 1036 01b4 0909     		lsrs	r1, r1, #4
 1037 01b6 0F22     		movs	r2, #15
 1038 01b8 0A40     		ands	r2, r1
 521:Drivers/STM32L0xx_HAL_Driver/Src/stm32l0xx_hal_rcc.c **** 
ARM GAS  /tmp/ccOARe22.s 			page 45


 1039              		.loc 1 521 44 view .LVU309
 1040 01ba 5D49     		ldr	r1, .L147+16
 1041 01bc 8A5C     		ldrb	r2, [r1, r2]
 521:Drivers/STM32L0xx_HAL_Driver/Src/stm32l0xx_hal_rcc.c **** 
 1042              		.loc 1 521 28 view .LVU310
 1043 01be D340     		lsrs	r3, r3, r2
 520:Drivers/STM32L0xx_HAL_Driver/Src/stm32l0xx_hal_rcc.c ****                            >> AHBPrescTable[((RCC->CFGR & RCC_CFGR_HPRE) >> RCC_CFGR_HPRE_Pos)];
 1044              		.loc 1 520 25 view .LVU311
 1045 01c0 5C4A     		ldr	r2, .L147+20
 1046 01c2 1360     		str	r3, [r2]
 524:Drivers/STM32L0xx_HAL_Driver/Src/stm32l0xx_hal_rcc.c ****         if(status != HAL_OK)
 1047              		.loc 1 524 9 is_stmt 1 view .LVU312
 524:Drivers/STM32L0xx_HAL_Driver/Src/stm32l0xx_hal_rcc.c ****         if(status != HAL_OK)
 1048              		.loc 1 524 18 is_stmt 0 view .LVU313
 1049 01c4 5C4B     		ldr	r3, .L147+24
 1050 01c6 1868     		ldr	r0, [r3]
 1051 01c8 FFF7FEFF 		bl	HAL_InitTick
 1052              	.LVL71:
 525:Drivers/STM32L0xx_HAL_Driver/Src/stm32l0xx_hal_rcc.c ****         {
 1053              		.loc 1 525 9 is_stmt 1 view .LVU314
 525:Drivers/STM32L0xx_HAL_Driver/Src/stm32l0xx_hal_rcc.c ****         {
 1054              		.loc 1 525 11 is_stmt 0 view .LVU315
 1055 01cc 0028     		cmp	r0, #0
 1056 01ce 00D0     		beq	.LCB945
 1057 01d0 82E1     		b	.L39	@long jump
 1058              	.LCB945:
 1059              	.LVL72:
 1060              	.L61:
 582:Drivers/STM32L0xx_HAL_Driver/Src/stm32l0xx_hal_rcc.c ****   {
 1061              		.loc 1 582 3 is_stmt 1 view .LVU316
 582:Drivers/STM32L0xx_HAL_Driver/Src/stm32l0xx_hal_rcc.c ****   {
 1062              		.loc 1 582 25 is_stmt 0 view .LVU317
 1063 01d2 2368     		ldr	r3, [r4]
 582:Drivers/STM32L0xx_HAL_Driver/Src/stm32l0xx_hal_rcc.c ****   {
 1064              		.loc 1 582 5 view .LVU318
 1065 01d4 1B07     		lsls	r3, r3, #28
 1066 01d6 7DD5     		bpl	.L69
 585:Drivers/STM32L0xx_HAL_Driver/Src/stm32l0xx_hal_rcc.c **** 
 1067              		.loc 1 585 5 is_stmt 1 view .LVU319
 588:Drivers/STM32L0xx_HAL_Driver/Src/stm32l0xx_hal_rcc.c ****     {
 1068              		.loc 1 588 5 view .LVU320
 588:Drivers/STM32L0xx_HAL_Driver/Src/stm32l0xx_hal_rcc.c ****     {
 1069              		.loc 1 588 25 is_stmt 0 view .LVU321
 1070 01d8 6369     		ldr	r3, [r4, #20]
 588:Drivers/STM32L0xx_HAL_Driver/Src/stm32l0xx_hal_rcc.c ****     {
 1071              		.loc 1 588 7 view .LVU322
 1072 01da 002B     		cmp	r3, #0
 1073 01dc 67D0     		beq	.L70
 591:Drivers/STM32L0xx_HAL_Driver/Src/stm32l0xx_hal_rcc.c **** 
 1074              		.loc 1 591 7 is_stmt 1 view .LVU323
 1075 01de 504A     		ldr	r2, .L147
 1076 01e0 136D     		ldr	r3, [r2, #80]
 1077 01e2 0121     		movs	r1, #1
 1078 01e4 0B43     		orrs	r3, r1
 1079 01e6 1365     		str	r3, [r2, #80]
 594:Drivers/STM32L0xx_HAL_Driver/Src/stm32l0xx_hal_rcc.c **** 
 1080              		.loc 1 594 7 view .LVU324
ARM GAS  /tmp/ccOARe22.s 			page 46


 594:Drivers/STM32L0xx_HAL_Driver/Src/stm32l0xx_hal_rcc.c **** 
 1081              		.loc 1 594 19 is_stmt 0 view .LVU325
 1082 01e8 FFF7FEFF 		bl	HAL_GetTick
 1083              	.LVL73:
 1084 01ec 0600     		movs	r6, r0
 1085              	.LVL74:
 597:Drivers/STM32L0xx_HAL_Driver/Src/stm32l0xx_hal_rcc.c ****       {
 1086              		.loc 1 597 7 is_stmt 1 view .LVU326
 1087              	.L71:
 597:Drivers/STM32L0xx_HAL_Driver/Src/stm32l0xx_hal_rcc.c ****       {
 1088              		.loc 1 597 49 view .LVU327
 597:Drivers/STM32L0xx_HAL_Driver/Src/stm32l0xx_hal_rcc.c ****       {
 1089              		.loc 1 597 13 is_stmt 0 view .LVU328
 1090 01ee 4C4B     		ldr	r3, .L147
 1091 01f0 1B6D     		ldr	r3, [r3, #80]
 597:Drivers/STM32L0xx_HAL_Driver/Src/stm32l0xx_hal_rcc.c ****       {
 1092              		.loc 1 597 49 view .LVU329
 1093 01f2 9B07     		lsls	r3, r3, #30
 1094 01f4 6ED4     		bmi	.L69
 599:Drivers/STM32L0xx_HAL_Driver/Src/stm32l0xx_hal_rcc.c ****         {
 1095              		.loc 1 599 9 is_stmt 1 view .LVU330
 599:Drivers/STM32L0xx_HAL_Driver/Src/stm32l0xx_hal_rcc.c ****         {
 1096              		.loc 1 599 13 is_stmt 0 view .LVU331
 1097 01f6 FFF7FEFF 		bl	HAL_GetTick
 1098              	.LVL75:
 599:Drivers/STM32L0xx_HAL_Driver/Src/stm32l0xx_hal_rcc.c ****         {
 1099              		.loc 1 599 27 discriminator 1 view .LVU332
 1100 01fa 801B     		subs	r0, r0, r6
 599:Drivers/STM32L0xx_HAL_Driver/Src/stm32l0xx_hal_rcc.c ****         {
 1101              		.loc 1 599 11 discriminator 1 view .LVU333
 1102 01fc 0228     		cmp	r0, #2
 1103 01fe F6D9     		bls	.L71
 601:Drivers/STM32L0xx_HAL_Driver/Src/stm32l0xx_hal_rcc.c ****         }
 1104              		.loc 1 601 18 view .LVU334
 1105 0200 0320     		movs	r0, #3
 1106 0202 69E1     		b	.L39
 1107              	.LVL76:
 1108              	.L137:
 475:Drivers/STM32L0xx_HAL_Driver/Src/stm32l0xx_hal_rcc.c ****       }
 1109              		.loc 1 475 9 is_stmt 1 view .LVU335
 1110 0204 4649     		ldr	r1, .L147
 1111 0206 4B68     		ldr	r3, [r1, #4]
 1112 0208 484A     		ldr	r2, .L147+12
 1113 020a 1340     		ands	r3, r2
 1114 020c 2269     		ldr	r2, [r4, #16]
 1115 020e 1202     		lsls	r2, r2, #8
 1116 0210 1343     		orrs	r3, r2
 1117 0212 4B60     		str	r3, [r1, #4]
 1118 0214 ACE7     		b	.L51
 1119              	.LVL77:
 1120              	.L56:
 480:Drivers/STM32L0xx_HAL_Driver/Src/stm32l0xx_hal_rcc.c **** 
 1121              		.loc 1 480 9 view .LVU336
 1122 0216 424A     		ldr	r2, .L147
 1123 0218 1368     		ldr	r3, [r2]
 1124              	.LVL78:
 480:Drivers/STM32L0xx_HAL_Driver/Src/stm32l0xx_hal_rcc.c **** 
ARM GAS  /tmp/ccOARe22.s 			page 47


 1125              		.loc 1 480 9 is_stmt 0 view .LVU337
 1126 021a 0121     		movs	r1, #1
 1127 021c 8B43     		bics	r3, r1
 1128 021e 1360     		str	r3, [r2]
 483:Drivers/STM32L0xx_HAL_Driver/Src/stm32l0xx_hal_rcc.c **** 
 1129              		.loc 1 483 9 is_stmt 1 view .LVU338
 483:Drivers/STM32L0xx_HAL_Driver/Src/stm32l0xx_hal_rcc.c **** 
 1130              		.loc 1 483 21 is_stmt 0 view .LVU339
 1131 0220 FFF7FEFF 		bl	HAL_GetTick
 1132              	.LVL79:
 1133 0224 0600     		movs	r6, r0
 1134              	.LVL80:
 486:Drivers/STM32L0xx_HAL_Driver/Src/stm32l0xx_hal_rcc.c ****         {
 1135              		.loc 1 486 9 is_stmt 1 view .LVU340
 1136              	.L59:
 486:Drivers/STM32L0xx_HAL_Driver/Src/stm32l0xx_hal_rcc.c ****         {
 1137              		.loc 1 486 51 view .LVU341
 486:Drivers/STM32L0xx_HAL_Driver/Src/stm32l0xx_hal_rcc.c ****         {
 1138              		.loc 1 486 15 is_stmt 0 view .LVU342
 1139 0226 3E4B     		ldr	r3, .L147
 1140 0228 1B68     		ldr	r3, [r3]
 486:Drivers/STM32L0xx_HAL_Driver/Src/stm32l0xx_hal_rcc.c ****         {
 1141              		.loc 1 486 51 view .LVU343
 1142 022a 5B07     		lsls	r3, r3, #29
 1143 022c A0D5     		bpl	.L51
 488:Drivers/STM32L0xx_HAL_Driver/Src/stm32l0xx_hal_rcc.c ****           {
 1144              		.loc 1 488 11 is_stmt 1 view .LVU344
 488:Drivers/STM32L0xx_HAL_Driver/Src/stm32l0xx_hal_rcc.c ****           {
 1145              		.loc 1 488 15 is_stmt 0 view .LVU345
 1146 022e FFF7FEFF 		bl	HAL_GetTick
 1147              	.LVL81:
 488:Drivers/STM32L0xx_HAL_Driver/Src/stm32l0xx_hal_rcc.c ****           {
 1148              		.loc 1 488 29 discriminator 1 view .LVU346
 1149 0232 801B     		subs	r0, r0, r6
 488:Drivers/STM32L0xx_HAL_Driver/Src/stm32l0xx_hal_rcc.c ****           {
 1150              		.loc 1 488 13 discriminator 1 view .LVU347
 1151 0234 0228     		cmp	r0, #2
 1152 0236 F6D9     		bls	.L59
 490:Drivers/STM32L0xx_HAL_Driver/Src/stm32l0xx_hal_rcc.c ****           }
 1153              		.loc 1 490 20 view .LVU348
 1154 0238 0320     		movs	r0, #3
 1155 023a 4DE1     		b	.L39
 1156              	.LVL82:
 1157              	.L62:
 534:Drivers/STM32L0xx_HAL_Driver/Src/stm32l0xx_hal_rcc.c **** 
 1158              		.loc 1 534 7 is_stmt 1 view .LVU349
 537:Drivers/STM32L0xx_HAL_Driver/Src/stm32l0xx_hal_rcc.c ****       {
 1159              		.loc 1 537 7 view .LVU350
 537:Drivers/STM32L0xx_HAL_Driver/Src/stm32l0xx_hal_rcc.c ****       {
 1160              		.loc 1 537 27 is_stmt 0 view .LVU351
 1161 023c A369     		ldr	r3, [r4, #24]
 537:Drivers/STM32L0xx_HAL_Driver/Src/stm32l0xx_hal_rcc.c ****       {
 1162              		.loc 1 537 9 view .LVU352
 1163 023e 002B     		cmp	r3, #0
 1164 0240 22D0     		beq	.L64
 540:Drivers/STM32L0xx_HAL_Driver/Src/stm32l0xx_hal_rcc.c **** 
 1165              		.loc 1 540 9 is_stmt 1 view .LVU353
ARM GAS  /tmp/ccOARe22.s 			page 48


 1166 0242 374A     		ldr	r2, .L147
 1167 0244 1168     		ldr	r1, [r2]
 1168 0246 8023     		movs	r3, #128
 1169 0248 5B00     		lsls	r3, r3, #1
 1170 024a 0B43     		orrs	r3, r1
 1171 024c 1360     		str	r3, [r2]
 543:Drivers/STM32L0xx_HAL_Driver/Src/stm32l0xx_hal_rcc.c **** 
 1172              		.loc 1 543 9 view .LVU354
 543:Drivers/STM32L0xx_HAL_Driver/Src/stm32l0xx_hal_rcc.c **** 
 1173              		.loc 1 543 21 is_stmt 0 view .LVU355
 1174 024e FFF7FEFF 		bl	HAL_GetTick
 1175              	.LVL83:
 1176 0252 0600     		movs	r6, r0
 1177              	.LVL84:
 546:Drivers/STM32L0xx_HAL_Driver/Src/stm32l0xx_hal_rcc.c ****         {
 1178              		.loc 1 546 9 is_stmt 1 view .LVU356
 1179              	.L65:
 546:Drivers/STM32L0xx_HAL_Driver/Src/stm32l0xx_hal_rcc.c ****         {
 1180              		.loc 1 546 51 view .LVU357
 546:Drivers/STM32L0xx_HAL_Driver/Src/stm32l0xx_hal_rcc.c ****         {
 1181              		.loc 1 546 15 is_stmt 0 view .LVU358
 1182 0254 324B     		ldr	r3, .L147
 1183 0256 1B68     		ldr	r3, [r3]
 546:Drivers/STM32L0xx_HAL_Driver/Src/stm32l0xx_hal_rcc.c ****         {
 1184              		.loc 1 546 51 view .LVU359
 1185 0258 9B05     		lsls	r3, r3, #22
 1186 025a 06D4     		bmi	.L138
 548:Drivers/STM32L0xx_HAL_Driver/Src/stm32l0xx_hal_rcc.c ****           {
 1187              		.loc 1 548 11 is_stmt 1 view .LVU360
 548:Drivers/STM32L0xx_HAL_Driver/Src/stm32l0xx_hal_rcc.c ****           {
 1188              		.loc 1 548 15 is_stmt 0 view .LVU361
 1189 025c FFF7FEFF 		bl	HAL_GetTick
 1190              	.LVL85:
 548:Drivers/STM32L0xx_HAL_Driver/Src/stm32l0xx_hal_rcc.c ****           {
 1191              		.loc 1 548 29 discriminator 1 view .LVU362
 1192 0260 801B     		subs	r0, r0, r6
 548:Drivers/STM32L0xx_HAL_Driver/Src/stm32l0xx_hal_rcc.c ****           {
 1193              		.loc 1 548 13 discriminator 1 view .LVU363
 1194 0262 0228     		cmp	r0, #2
 1195 0264 F6D9     		bls	.L65
 550:Drivers/STM32L0xx_HAL_Driver/Src/stm32l0xx_hal_rcc.c ****           }
 1196              		.loc 1 550 20 view .LVU364
 1197 0266 0320     		movs	r0, #3
 1198 0268 36E1     		b	.L39
 1199              	.L138:
 554:Drivers/STM32L0xx_HAL_Driver/Src/stm32l0xx_hal_rcc.c ****         assert_param(IS_RCC_MSI_CLOCK_RANGE(RCC_OscInitStruct->MSIClockRange));
 1200              		.loc 1 554 9 is_stmt 1 view .LVU365
 555:Drivers/STM32L0xx_HAL_Driver/Src/stm32l0xx_hal_rcc.c **** 
 1201              		.loc 1 555 9 view .LVU366
 558:Drivers/STM32L0xx_HAL_Driver/Src/stm32l0xx_hal_rcc.c ****          /* Adjusts the Multiple Speed oscillator (MSI) calibration value.*/
 1202              		.loc 1 558 9 view .LVU367
 1203 026a 2D4A     		ldr	r2, .L147
 1204 026c 5368     		ldr	r3, [r2, #4]
 1205 026e 3349     		ldr	r1, .L147+28
 1206 0270 0B40     		ands	r3, r1
 1207 0272 216A     		ldr	r1, [r4, #32]
 1208 0274 0B43     		orrs	r3, r1
ARM GAS  /tmp/ccOARe22.s 			page 49


 1209 0276 5360     		str	r3, [r2, #4]
 560:Drivers/STM32L0xx_HAL_Driver/Src/stm32l0xx_hal_rcc.c ****       }
 1210              		.loc 1 560 9 view .LVU368
 1211 0278 5368     		ldr	r3, [r2, #4]
 1212 027a 1B02     		lsls	r3, r3, #8
 1213 027c 1B0A     		lsrs	r3, r3, #8
 1214 027e E169     		ldr	r1, [r4, #28]
 1215 0280 0906     		lsls	r1, r1, #24
 1216 0282 0B43     		orrs	r3, r1
 1217 0284 5360     		str	r3, [r2, #4]
 1218 0286 A4E7     		b	.L61
 1219              	.LVL86:
 1220              	.L64:
 565:Drivers/STM32L0xx_HAL_Driver/Src/stm32l0xx_hal_rcc.c **** 
 1221              		.loc 1 565 9 view .LVU369
 1222 0288 254A     		ldr	r2, .L147
 1223 028a 1368     		ldr	r3, [r2]
 1224 028c 2C49     		ldr	r1, .L147+32
 1225 028e 0B40     		ands	r3, r1
 1226 0290 1360     		str	r3, [r2]
 568:Drivers/STM32L0xx_HAL_Driver/Src/stm32l0xx_hal_rcc.c **** 
 1227              		.loc 1 568 9 view .LVU370
 568:Drivers/STM32L0xx_HAL_Driver/Src/stm32l0xx_hal_rcc.c **** 
 1228              		.loc 1 568 21 is_stmt 0 view .LVU371
 1229 0292 FFF7FEFF 		bl	HAL_GetTick
 1230              	.LVL87:
 1231 0296 0600     		movs	r6, r0
 1232              	.LVL88:
 571:Drivers/STM32L0xx_HAL_Driver/Src/stm32l0xx_hal_rcc.c ****         {
 1233              		.loc 1 571 9 is_stmt 1 view .LVU372
 1234              	.L67:
 571:Drivers/STM32L0xx_HAL_Driver/Src/stm32l0xx_hal_rcc.c ****         {
 1235              		.loc 1 571 51 view .LVU373
 571:Drivers/STM32L0xx_HAL_Driver/Src/stm32l0xx_hal_rcc.c ****         {
 1236              		.loc 1 571 15 is_stmt 0 view .LVU374
 1237 0298 214B     		ldr	r3, .L147
 1238 029a 1B68     		ldr	r3, [r3]
 571:Drivers/STM32L0xx_HAL_Driver/Src/stm32l0xx_hal_rcc.c ****         {
 1239              		.loc 1 571 51 view .LVU375
 1240 029c 9B05     		lsls	r3, r3, #22
 1241 029e 98D5     		bpl	.L61
 573:Drivers/STM32L0xx_HAL_Driver/Src/stm32l0xx_hal_rcc.c ****           {
 1242              		.loc 1 573 11 is_stmt 1 view .LVU376
 573:Drivers/STM32L0xx_HAL_Driver/Src/stm32l0xx_hal_rcc.c ****           {
 1243              		.loc 1 573 15 is_stmt 0 view .LVU377
 1244 02a0 FFF7FEFF 		bl	HAL_GetTick
 1245              	.LVL89:
 573:Drivers/STM32L0xx_HAL_Driver/Src/stm32l0xx_hal_rcc.c ****           {
 1246              		.loc 1 573 29 discriminator 1 view .LVU378
 1247 02a4 801B     		subs	r0, r0, r6
 573:Drivers/STM32L0xx_HAL_Driver/Src/stm32l0xx_hal_rcc.c ****           {
 1248              		.loc 1 573 13 discriminator 1 view .LVU379
 1249 02a6 0228     		cmp	r0, #2
 1250 02a8 F6D9     		bls	.L67
 575:Drivers/STM32L0xx_HAL_Driver/Src/stm32l0xx_hal_rcc.c ****           }
 1251              		.loc 1 575 20 view .LVU380
 1252 02aa 0320     		movs	r0, #3
ARM GAS  /tmp/ccOARe22.s 			page 50


 1253 02ac 14E1     		b	.L39
 1254              	.LVL90:
 1255              	.L70:
 608:Drivers/STM32L0xx_HAL_Driver/Src/stm32l0xx_hal_rcc.c **** 
 1256              		.loc 1 608 7 is_stmt 1 view .LVU381
 1257 02ae 1C4A     		ldr	r2, .L147
 1258 02b0 136D     		ldr	r3, [r2, #80]
 1259 02b2 0121     		movs	r1, #1
 1260 02b4 8B43     		bics	r3, r1
 1261 02b6 1365     		str	r3, [r2, #80]
 611:Drivers/STM32L0xx_HAL_Driver/Src/stm32l0xx_hal_rcc.c **** 
 1262              		.loc 1 611 7 view .LVU382
 611:Drivers/STM32L0xx_HAL_Driver/Src/stm32l0xx_hal_rcc.c **** 
 1263              		.loc 1 611 19 is_stmt 0 view .LVU383
 1264 02b8 FFF7FEFF 		bl	HAL_GetTick
 1265              	.LVL91:
 1266 02bc 0600     		movs	r6, r0
 1267              	.LVL92:
 614:Drivers/STM32L0xx_HAL_Driver/Src/stm32l0xx_hal_rcc.c ****       {
 1268              		.loc 1 614 7 is_stmt 1 view .LVU384
 1269              	.L73:
 614:Drivers/STM32L0xx_HAL_Driver/Src/stm32l0xx_hal_rcc.c ****       {
 1270              		.loc 1 614 49 view .LVU385
 614:Drivers/STM32L0xx_HAL_Driver/Src/stm32l0xx_hal_rcc.c ****       {
 1271              		.loc 1 614 13 is_stmt 0 view .LVU386
 1272 02be 184B     		ldr	r3, .L147
 1273 02c0 1B6D     		ldr	r3, [r3, #80]
 614:Drivers/STM32L0xx_HAL_Driver/Src/stm32l0xx_hal_rcc.c ****       {
 1274              		.loc 1 614 49 view .LVU387
 1275 02c2 9B07     		lsls	r3, r3, #30
 1276 02c4 06D5     		bpl	.L69
 616:Drivers/STM32L0xx_HAL_Driver/Src/stm32l0xx_hal_rcc.c ****         {
 1277              		.loc 1 616 9 is_stmt 1 view .LVU388
 616:Drivers/STM32L0xx_HAL_Driver/Src/stm32l0xx_hal_rcc.c ****         {
 1278              		.loc 1 616 13 is_stmt 0 view .LVU389
 1279 02c6 FFF7FEFF 		bl	HAL_GetTick
 1280              	.LVL93:
 616:Drivers/STM32L0xx_HAL_Driver/Src/stm32l0xx_hal_rcc.c ****         {
 1281              		.loc 1 616 27 discriminator 1 view .LVU390
 1282 02ca 801B     		subs	r0, r0, r6
 616:Drivers/STM32L0xx_HAL_Driver/Src/stm32l0xx_hal_rcc.c ****         {
 1283              		.loc 1 616 11 discriminator 1 view .LVU391
 1284 02cc 0228     		cmp	r0, #2
 1285 02ce F6D9     		bls	.L73
 618:Drivers/STM32L0xx_HAL_Driver/Src/stm32l0xx_hal_rcc.c ****         }
 1286              		.loc 1 618 18 view .LVU392
 1287 02d0 0320     		movs	r0, #3
 1288 02d2 01E1     		b	.L39
 1289              	.LVL94:
 1290              	.L69:
 624:Drivers/STM32L0xx_HAL_Driver/Src/stm32l0xx_hal_rcc.c ****   {
 1291              		.loc 1 624 3 is_stmt 1 view .LVU393
 624:Drivers/STM32L0xx_HAL_Driver/Src/stm32l0xx_hal_rcc.c ****   {
 1292              		.loc 1 624 25 is_stmt 0 view .LVU394
 1293 02d4 2368     		ldr	r3, [r4]
 624:Drivers/STM32L0xx_HAL_Driver/Src/stm32l0xx_hal_rcc.c ****   {
 1294              		.loc 1 624 5 view .LVU395
ARM GAS  /tmp/ccOARe22.s 			page 51


 1295 02d6 5B07     		lsls	r3, r3, #29
 1296 02d8 00D4     		bmi	.LCB1184
 1297 02da 8EE0     		b	.L75	@long jump
 1298              	.LCB1184:
 1299              	.LBB7:
 626:Drivers/STM32L0xx_HAL_Driver/Src/stm32l0xx_hal_rcc.c **** 
 1300              		.loc 1 626 5 is_stmt 1 view .LVU396
 1301              	.LVL95:
 629:Drivers/STM32L0xx_HAL_Driver/Src/stm32l0xx_hal_rcc.c **** 
 1302              		.loc 1 629 5 view .LVU397
 633:Drivers/STM32L0xx_HAL_Driver/Src/stm32l0xx_hal_rcc.c ****     {
 1303              		.loc 1 633 5 view .LVU398
 633:Drivers/STM32L0xx_HAL_Driver/Src/stm32l0xx_hal_rcc.c ****     {
 1304              		.loc 1 633 8 is_stmt 0 view .LVU399
 1305 02dc 104B     		ldr	r3, .L147
 1306 02de 9B6B     		ldr	r3, [r3, #56]
 633:Drivers/STM32L0xx_HAL_Driver/Src/stm32l0xx_hal_rcc.c ****     {
 1307              		.loc 1 633 7 view .LVU400
 1308 02e0 DB00     		lsls	r3, r3, #3
 1309 02e2 1BD4     		bmi	.L110
 635:Drivers/STM32L0xx_HAL_Driver/Src/stm32l0xx_hal_rcc.c ****       pwrclkchanged = SET;
 1310              		.loc 1 635 7 is_stmt 1 view .LVU401
 1311 02e4 0E4A     		ldr	r2, .L147
 1312 02e6 916B     		ldr	r1, [r2, #56]
 1313 02e8 8023     		movs	r3, #128
 1314 02ea 5B05     		lsls	r3, r3, #21
 1315 02ec 0B43     		orrs	r3, r1
 1316 02ee 9363     		str	r3, [r2, #56]
 636:Drivers/STM32L0xx_HAL_Driver/Src/stm32l0xx_hal_rcc.c ****     }
 1317              		.loc 1 636 7 view .LVU402
 1318              	.LVL96:
 636:Drivers/STM32L0xx_HAL_Driver/Src/stm32l0xx_hal_rcc.c ****     }
 1319              		.loc 1 636 21 is_stmt 0 view .LVU403
 1320 02f0 0126     		movs	r6, #1
 1321              	.LVL97:
 1322              	.L76:
 639:Drivers/STM32L0xx_HAL_Driver/Src/stm32l0xx_hal_rcc.c ****     {
 1323              		.loc 1 639 5 is_stmt 1 view .LVU404
 639:Drivers/STM32L0xx_HAL_Driver/Src/stm32l0xx_hal_rcc.c ****     {
 1324              		.loc 1 639 8 is_stmt 0 view .LVU405
 1325 02f2 144B     		ldr	r3, .L147+36
 1326 02f4 1B68     		ldr	r3, [r3]
 639:Drivers/STM32L0xx_HAL_Driver/Src/stm32l0xx_hal_rcc.c ****     {
 1327              		.loc 1 639 7 view .LVU406
 1328 02f6 DB05     		lsls	r3, r3, #23
 1329 02f8 28D5     		bpl	.L139
 1330              	.L77:
 657:Drivers/STM32L0xx_HAL_Driver/Src/stm32l0xx_hal_rcc.c **** 
 1331              		.loc 1 657 5 is_stmt 1 view .LVU407
 657:Drivers/STM32L0xx_HAL_Driver/Src/stm32l0xx_hal_rcc.c **** 
 1332              		.loc 1 657 5 view .LVU408
 1333 02fa A368     		ldr	r3, [r4, #8]
 1334 02fc 8022     		movs	r2, #128
 1335 02fe 5200     		lsls	r2, r2, #1
 1336 0300 9342     		cmp	r3, r2
 1337 0302 37D0     		beq	.L140
 657:Drivers/STM32L0xx_HAL_Driver/Src/stm32l0xx_hal_rcc.c **** 
ARM GAS  /tmp/ccOARe22.s 			page 52


 1338              		.loc 1 657 5 discriminator 2 view .LVU409
 1339 0304 002B     		cmp	r3, #0
 1340 0306 4DD1     		bne	.L82
 657:Drivers/STM32L0xx_HAL_Driver/Src/stm32l0xx_hal_rcc.c **** 
 1341              		.loc 1 657 5 discriminator 4 view .LVU410
 1342 0308 054B     		ldr	r3, .L147
 1343 030a 1A6D     		ldr	r2, [r3, #80]
 1344 030c 0C49     		ldr	r1, .L147+32
 1345 030e 0A40     		ands	r2, r1
 1346 0310 1A65     		str	r2, [r3, #80]
 657:Drivers/STM32L0xx_HAL_Driver/Src/stm32l0xx_hal_rcc.c **** 
 1347              		.loc 1 657 5 discriminator 4 view .LVU411
 1348 0312 1A6D     		ldr	r2, [r3, #80]
 1349 0314 0C49     		ldr	r1, .L147+40
 1350 0316 0A40     		ands	r2, r1
 1351 0318 1A65     		str	r2, [r3, #80]
 1352 031a 31E0     		b	.L81
 1353              	.LVL98:
 1354              	.L110:
 626:Drivers/STM32L0xx_HAL_Driver/Src/stm32l0xx_hal_rcc.c **** 
 1355              		.loc 1 626 22 is_stmt 0 view .LVU412
 1356 031c 0026     		movs	r6, #0
 1357 031e E8E7     		b	.L76
 1358              	.L148:
 1359              		.align	2
 1360              	.L147:
 1361 0320 00100240 		.word	1073876992
 1362 0324 FFFFFEFF 		.word	-65537
 1363 0328 FFFFFBFF 		.word	-262145
 1364 032c FFE0FFFF 		.word	-7937
 1365 0330 00000000 		.word	AHBPrescTable
 1366 0334 00000000 		.word	SystemCoreClock
 1367 0338 00000000 		.word	uwTickPrio
 1368 033c FF1FFFFF 		.word	-57345
 1369 0340 FFFEFFFF 		.word	-257
 1370 0344 00700040 		.word	1073770496
 1371 0348 FFFBFFFF 		.word	-1025
 1372              	.LVL99:
 1373              	.L139:
 642:Drivers/STM32L0xx_HAL_Driver/Src/stm32l0xx_hal_rcc.c **** 
 1374              		.loc 1 642 7 is_stmt 1 view .LVU413
 1375 034c 6B4A     		ldr	r2, .L149
 1376 034e 1168     		ldr	r1, [r2]
 1377 0350 8023     		movs	r3, #128
 1378 0352 5B00     		lsls	r3, r3, #1
 1379 0354 0B43     		orrs	r3, r1
 1380 0356 1360     		str	r3, [r2]
 645:Drivers/STM32L0xx_HAL_Driver/Src/stm32l0xx_hal_rcc.c **** 
 1381              		.loc 1 645 7 view .LVU414
 645:Drivers/STM32L0xx_HAL_Driver/Src/stm32l0xx_hal_rcc.c **** 
 1382              		.loc 1 645 19 is_stmt 0 view .LVU415
 1383 0358 FFF7FEFF 		bl	HAL_GetTick
 1384              	.LVL100:
 1385 035c 0700     		movs	r7, r0
 1386              	.LVL101:
 647:Drivers/STM32L0xx_HAL_Driver/Src/stm32l0xx_hal_rcc.c ****       {
 1387              		.loc 1 647 7 is_stmt 1 view .LVU416
ARM GAS  /tmp/ccOARe22.s 			page 53


 1388              	.L78:
 647:Drivers/STM32L0xx_HAL_Driver/Src/stm32l0xx_hal_rcc.c ****       {
 1389              		.loc 1 647 13 view .LVU417
 1390 035e 674B     		ldr	r3, .L149
 1391 0360 1B68     		ldr	r3, [r3]
 1392 0362 DB05     		lsls	r3, r3, #23
 1393 0364 C9D4     		bmi	.L77
 649:Drivers/STM32L0xx_HAL_Driver/Src/stm32l0xx_hal_rcc.c ****         {
 1394              		.loc 1 649 9 view .LVU418
 649:Drivers/STM32L0xx_HAL_Driver/Src/stm32l0xx_hal_rcc.c ****         {
 1395              		.loc 1 649 13 is_stmt 0 view .LVU419
 1396 0366 FFF7FEFF 		bl	HAL_GetTick
 1397              	.LVL102:
 649:Drivers/STM32L0xx_HAL_Driver/Src/stm32l0xx_hal_rcc.c ****         {
 1398              		.loc 1 649 27 discriminator 1 view .LVU420
 1399 036a C01B     		subs	r0, r0, r7
 649:Drivers/STM32L0xx_HAL_Driver/Src/stm32l0xx_hal_rcc.c ****         {
 1400              		.loc 1 649 11 discriminator 1 view .LVU421
 1401 036c 6428     		cmp	r0, #100
 1402 036e F6D9     		bls	.L78
 651:Drivers/STM32L0xx_HAL_Driver/Src/stm32l0xx_hal_rcc.c ****         }
 1403              		.loc 1 651 18 view .LVU422
 1404 0370 0320     		movs	r0, #3
 1405 0372 B1E0     		b	.L39
 1406              	.LVL103:
 1407              	.L140:
 657:Drivers/STM32L0xx_HAL_Driver/Src/stm32l0xx_hal_rcc.c **** 
 1408              		.loc 1 657 5 is_stmt 1 discriminator 1 view .LVU423
 1409 0374 624A     		ldr	r2, .L149+4
 1410 0376 116D     		ldr	r1, [r2, #80]
 1411 0378 8023     		movs	r3, #128
 1412 037a 5B00     		lsls	r3, r3, #1
 1413 037c 0B43     		orrs	r3, r1
 1414 037e 1365     		str	r3, [r2, #80]
 1415              	.L81:
 657:Drivers/STM32L0xx_HAL_Driver/Src/stm32l0xx_hal_rcc.c **** 
 1416              		.loc 1 657 5 discriminator 10 view .LVU424
 660:Drivers/STM32L0xx_HAL_Driver/Src/stm32l0xx_hal_rcc.c ****     {
 1417              		.loc 1 660 5 view .LVU425
 660:Drivers/STM32L0xx_HAL_Driver/Src/stm32l0xx_hal_rcc.c ****     {
 1418              		.loc 1 660 25 is_stmt 0 view .LVU426
 1419 0380 A368     		ldr	r3, [r4, #8]
 660:Drivers/STM32L0xx_HAL_Driver/Src/stm32l0xx_hal_rcc.c ****     {
 1420              		.loc 1 660 7 view .LVU427
 1421 0382 002B     		cmp	r3, #0
 1422 0384 28D0     		beq	.L84
 663:Drivers/STM32L0xx_HAL_Driver/Src/stm32l0xx_hal_rcc.c **** 
 1423              		.loc 1 663 7 is_stmt 1 view .LVU428
 663:Drivers/STM32L0xx_HAL_Driver/Src/stm32l0xx_hal_rcc.c **** 
 1424              		.loc 1 663 19 is_stmt 0 view .LVU429
 1425 0386 FFF7FEFF 		bl	HAL_GetTick
 1426              	.LVL104:
 1427 038a 0700     		movs	r7, r0
 1428              	.LVL105:
 666:Drivers/STM32L0xx_HAL_Driver/Src/stm32l0xx_hal_rcc.c ****       {
 1429              		.loc 1 666 7 is_stmt 1 view .LVU430
 1430              	.L85:
ARM GAS  /tmp/ccOARe22.s 			page 54


 666:Drivers/STM32L0xx_HAL_Driver/Src/stm32l0xx_hal_rcc.c ****       {
 1431              		.loc 1 666 49 view .LVU431
 666:Drivers/STM32L0xx_HAL_Driver/Src/stm32l0xx_hal_rcc.c ****       {
 1432              		.loc 1 666 13 is_stmt 0 view .LVU432
 1433 038c 5C4B     		ldr	r3, .L149+4
 1434 038e 1B6D     		ldr	r3, [r3, #80]
 666:Drivers/STM32L0xx_HAL_Driver/Src/stm32l0xx_hal_rcc.c ****       {
 1435              		.loc 1 666 49 view .LVU433
 1436 0390 9B05     		lsls	r3, r3, #22
 1437 0392 30D4     		bmi	.L87
 668:Drivers/STM32L0xx_HAL_Driver/Src/stm32l0xx_hal_rcc.c ****         {
 1438              		.loc 1 668 9 is_stmt 1 view .LVU434
 668:Drivers/STM32L0xx_HAL_Driver/Src/stm32l0xx_hal_rcc.c ****         {
 1439              		.loc 1 668 13 is_stmt 0 view .LVU435
 1440 0394 FFF7FEFF 		bl	HAL_GetTick
 1441              	.LVL106:
 668:Drivers/STM32L0xx_HAL_Driver/Src/stm32l0xx_hal_rcc.c ****         {
 1442              		.loc 1 668 27 discriminator 1 view .LVU436
 1443 0398 C01B     		subs	r0, r0, r7
 668:Drivers/STM32L0xx_HAL_Driver/Src/stm32l0xx_hal_rcc.c ****         {
 1444              		.loc 1 668 11 discriminator 1 view .LVU437
 1445 039a 5A4B     		ldr	r3, .L149+8
 1446 039c 9842     		cmp	r0, r3
 1447 039e F5D9     		bls	.L85
 670:Drivers/STM32L0xx_HAL_Driver/Src/stm32l0xx_hal_rcc.c ****         }
 1448              		.loc 1 670 18 view .LVU438
 1449 03a0 0320     		movs	r0, #3
 1450 03a2 99E0     		b	.L39
 1451              	.LVL107:
 1452              	.L82:
 657:Drivers/STM32L0xx_HAL_Driver/Src/stm32l0xx_hal_rcc.c **** 
 1453              		.loc 1 657 5 is_stmt 1 discriminator 5 view .LVU439
 1454 03a4 A022     		movs	r2, #160
 1455 03a6 D200     		lsls	r2, r2, #3
 1456 03a8 9342     		cmp	r3, r2
 1457 03aa 09D0     		beq	.L141
 657:Drivers/STM32L0xx_HAL_Driver/Src/stm32l0xx_hal_rcc.c **** 
 1458              		.loc 1 657 5 discriminator 8 view .LVU440
 1459 03ac 544B     		ldr	r3, .L149+4
 1460 03ae 1A6D     		ldr	r2, [r3, #80]
 1461 03b0 5549     		ldr	r1, .L149+12
 1462 03b2 0A40     		ands	r2, r1
 1463 03b4 1A65     		str	r2, [r3, #80]
 657:Drivers/STM32L0xx_HAL_Driver/Src/stm32l0xx_hal_rcc.c **** 
 1464              		.loc 1 657 5 discriminator 8 view .LVU441
 1465 03b6 1A6D     		ldr	r2, [r3, #80]
 1466 03b8 5449     		ldr	r1, .L149+16
 1467 03ba 0A40     		ands	r2, r1
 1468 03bc 1A65     		str	r2, [r3, #80]
 1469 03be DFE7     		b	.L81
 1470              	.L141:
 657:Drivers/STM32L0xx_HAL_Driver/Src/stm32l0xx_hal_rcc.c **** 
 1471              		.loc 1 657 5 discriminator 7 view .LVU442
 1472 03c0 4F4B     		ldr	r3, .L149+4
 1473 03c2 196D     		ldr	r1, [r3, #80]
 1474 03c4 013A     		subs	r2, r2, #1
 1475 03c6 FF3A     		subs	r2, r2, #255
ARM GAS  /tmp/ccOARe22.s 			page 55


 1476 03c8 0A43     		orrs	r2, r1
 1477 03ca 1A65     		str	r2, [r3, #80]
 657:Drivers/STM32L0xx_HAL_Driver/Src/stm32l0xx_hal_rcc.c **** 
 1478              		.loc 1 657 5 discriminator 7 view .LVU443
 1479 03cc 196D     		ldr	r1, [r3, #80]
 1480 03ce 8022     		movs	r2, #128
 1481 03d0 5200     		lsls	r2, r2, #1
 1482 03d2 0A43     		orrs	r2, r1
 1483 03d4 1A65     		str	r2, [r3, #80]
 1484 03d6 D3E7     		b	.L81
 1485              	.L84:
 677:Drivers/STM32L0xx_HAL_Driver/Src/stm32l0xx_hal_rcc.c **** 
 1486              		.loc 1 677 7 view .LVU444
 677:Drivers/STM32L0xx_HAL_Driver/Src/stm32l0xx_hal_rcc.c **** 
 1487              		.loc 1 677 19 is_stmt 0 view .LVU445
 1488 03d8 FFF7FEFF 		bl	HAL_GetTick
 1489              	.LVL108:
 1490 03dc 0700     		movs	r7, r0
 1491              	.LVL109:
 680:Drivers/STM32L0xx_HAL_Driver/Src/stm32l0xx_hal_rcc.c ****       {
 1492              		.loc 1 680 7 is_stmt 1 view .LVU446
 1493              	.L88:
 680:Drivers/STM32L0xx_HAL_Driver/Src/stm32l0xx_hal_rcc.c ****       {
 1494              		.loc 1 680 49 view .LVU447
 680:Drivers/STM32L0xx_HAL_Driver/Src/stm32l0xx_hal_rcc.c ****       {
 1495              		.loc 1 680 13 is_stmt 0 view .LVU448
 1496 03de 484B     		ldr	r3, .L149+4
 1497 03e0 1B6D     		ldr	r3, [r3, #80]
 680:Drivers/STM32L0xx_HAL_Driver/Src/stm32l0xx_hal_rcc.c ****       {
 1498              		.loc 1 680 49 view .LVU449
 1499 03e2 9B05     		lsls	r3, r3, #22
 1500 03e4 07D5     		bpl	.L87
 682:Drivers/STM32L0xx_HAL_Driver/Src/stm32l0xx_hal_rcc.c ****         {
 1501              		.loc 1 682 9 is_stmt 1 view .LVU450
 682:Drivers/STM32L0xx_HAL_Driver/Src/stm32l0xx_hal_rcc.c ****         {
 1502              		.loc 1 682 13 is_stmt 0 view .LVU451
 1503 03e6 FFF7FEFF 		bl	HAL_GetTick
 1504              	.LVL110:
 682:Drivers/STM32L0xx_HAL_Driver/Src/stm32l0xx_hal_rcc.c ****         {
 1505              		.loc 1 682 27 discriminator 1 view .LVU452
 1506 03ea C01B     		subs	r0, r0, r7
 682:Drivers/STM32L0xx_HAL_Driver/Src/stm32l0xx_hal_rcc.c ****         {
 1507              		.loc 1 682 11 discriminator 1 view .LVU453
 1508 03ec 454B     		ldr	r3, .L149+8
 1509 03ee 9842     		cmp	r0, r3
 1510 03f0 F5D9     		bls	.L88
 684:Drivers/STM32L0xx_HAL_Driver/Src/stm32l0xx_hal_rcc.c ****         }
 1511              		.loc 1 684 18 view .LVU454
 1512 03f2 0320     		movs	r0, #3
 1513 03f4 70E0     		b	.L39
 1514              	.L87:
 690:Drivers/STM32L0xx_HAL_Driver/Src/stm32l0xx_hal_rcc.c ****     {
 1515              		.loc 1 690 5 is_stmt 1 view .LVU455
 690:Drivers/STM32L0xx_HAL_Driver/Src/stm32l0xx_hal_rcc.c ****     {
 1516              		.loc 1 690 7 is_stmt 0 view .LVU456
 1517 03f6 012E     		cmp	r6, #1
 1518 03f8 1AD0     		beq	.L142
ARM GAS  /tmp/ccOARe22.s 			page 56


 1519              	.LVL111:
 1520              	.L75:
 690:Drivers/STM32L0xx_HAL_Driver/Src/stm32l0xx_hal_rcc.c ****     {
 1521              		.loc 1 690 7 view .LVU457
 1522              	.LBE7:
 743:Drivers/STM32L0xx_HAL_Driver/Src/stm32l0xx_hal_rcc.c ****   if ((RCC_OscInitStruct->PLL.PLLState) != RCC_PLL_NONE)
 1523              		.loc 1 743 3 is_stmt 1 view .LVU458
 744:Drivers/STM32L0xx_HAL_Driver/Src/stm32l0xx_hal_rcc.c ****   {
 1524              		.loc 1 744 3 view .LVU459
 744:Drivers/STM32L0xx_HAL_Driver/Src/stm32l0xx_hal_rcc.c ****   {
 1525              		.loc 1 744 30 is_stmt 0 view .LVU460
 1526 03fa 636A     		ldr	r3, [r4, #36]
 744:Drivers/STM32L0xx_HAL_Driver/Src/stm32l0xx_hal_rcc.c ****   {
 1527              		.loc 1 744 6 view .LVU461
 1528 03fc 002B     		cmp	r3, #0
 1529 03fe 00D1     		bne	.LCB1423
 1530 0400 72E0     		b	.L114	@long jump
 1531              	.LCB1423:
 747:Drivers/STM32L0xx_HAL_Driver/Src/stm32l0xx_hal_rcc.c ****     {
 1532              		.loc 1 747 5 is_stmt 1 view .LVU462
 747:Drivers/STM32L0xx_HAL_Driver/Src/stm32l0xx_hal_rcc.c ****     {
 1533              		.loc 1 747 7 is_stmt 0 view .LVU463
 1534 0402 0C2D     		cmp	r5, #12
 1535 0404 4FD0     		beq	.L90
 749:Drivers/STM32L0xx_HAL_Driver/Src/stm32l0xx_hal_rcc.c ****       {
 1536              		.loc 1 749 7 is_stmt 1 view .LVU464
 749:Drivers/STM32L0xx_HAL_Driver/Src/stm32l0xx_hal_rcc.c ****       {
 1537              		.loc 1 749 9 is_stmt 0 view .LVU465
 1538 0406 022B     		cmp	r3, #2
 1539 0408 18D0     		beq	.L143
 793:Drivers/STM32L0xx_HAL_Driver/Src/stm32l0xx_hal_rcc.c **** 
 1540              		.loc 1 793 9 is_stmt 1 view .LVU466
 1541 040a 3D4A     		ldr	r2, .L149+4
 1542 040c 1368     		ldr	r3, [r2]
 1543 040e 4049     		ldr	r1, .L149+20
 1544 0410 0B40     		ands	r3, r1
 1545 0412 1360     		str	r3, [r2]
 796:Drivers/STM32L0xx_HAL_Driver/Src/stm32l0xx_hal_rcc.c **** 
 1546              		.loc 1 796 9 view .LVU467
 796:Drivers/STM32L0xx_HAL_Driver/Src/stm32l0xx_hal_rcc.c **** 
 1547              		.loc 1 796 21 is_stmt 0 view .LVU468
 1548 0414 FFF7FEFF 		bl	HAL_GetTick
 1549              	.LVL112:
 1550 0418 0400     		movs	r4, r0
 1551              	.LVL113:
 799:Drivers/STM32L0xx_HAL_Driver/Src/stm32l0xx_hal_rcc.c ****         {
 1552              		.loc 1 799 9 is_stmt 1 view .LVU469
 1553              	.L96:
 799:Drivers/STM32L0xx_HAL_Driver/Src/stm32l0xx_hal_rcc.c ****         {
 1554              		.loc 1 799 52 view .LVU470
 799:Drivers/STM32L0xx_HAL_Driver/Src/stm32l0xx_hal_rcc.c ****         {
 1555              		.loc 1 799 15 is_stmt 0 view .LVU471
 1556 041a 394B     		ldr	r3, .L149+4
 1557 041c 1B68     		ldr	r3, [r3]
 799:Drivers/STM32L0xx_HAL_Driver/Src/stm32l0xx_hal_rcc.c ****         {
 1558              		.loc 1 799 52 view .LVU472
 1559 041e 9B01     		lsls	r3, r3, #6
ARM GAS  /tmp/ccOARe22.s 			page 57


 1560 0420 3FD5     		bpl	.L144
 801:Drivers/STM32L0xx_HAL_Driver/Src/stm32l0xx_hal_rcc.c ****           {
 1561              		.loc 1 801 11 is_stmt 1 view .LVU473
 801:Drivers/STM32L0xx_HAL_Driver/Src/stm32l0xx_hal_rcc.c ****           {
 1562              		.loc 1 801 15 is_stmt 0 view .LVU474
 1563 0422 FFF7FEFF 		bl	HAL_GetTick
 1564              	.LVL114:
 801:Drivers/STM32L0xx_HAL_Driver/Src/stm32l0xx_hal_rcc.c ****           {
 1565              		.loc 1 801 29 discriminator 1 view .LVU475
 1566 0426 001B     		subs	r0, r0, r4
 801:Drivers/STM32L0xx_HAL_Driver/Src/stm32l0xx_hal_rcc.c ****           {
 1567              		.loc 1 801 13 discriminator 1 view .LVU476
 1568 0428 0228     		cmp	r0, #2
 1569 042a F6D9     		bls	.L96
 803:Drivers/STM32L0xx_HAL_Driver/Src/stm32l0xx_hal_rcc.c ****           }
 1570              		.loc 1 803 20 view .LVU477
 1571 042c 0320     		movs	r0, #3
 1572 042e 53E0     		b	.L39
 1573              	.LVL115:
 1574              	.L142:
 1575              	.LBB8:
 692:Drivers/STM32L0xx_HAL_Driver/Src/stm32l0xx_hal_rcc.c ****     }
 1576              		.loc 1 692 7 is_stmt 1 view .LVU478
 1577 0430 334A     		ldr	r2, .L149+4
 1578 0432 936B     		ldr	r3, [r2, #56]
 1579 0434 3749     		ldr	r1, .L149+24
 1580 0436 0B40     		ands	r3, r1
 1581 0438 9363     		str	r3, [r2, #56]
 1582 043a DEE7     		b	.L75
 1583              	.LVL116:
 1584              	.L143:
 692:Drivers/STM32L0xx_HAL_Driver/Src/stm32l0xx_hal_rcc.c ****     }
 1585              		.loc 1 692 7 is_stmt 0 view .LVU479
 1586              	.LBE8:
 752:Drivers/STM32L0xx_HAL_Driver/Src/stm32l0xx_hal_rcc.c ****         assert_param(IS_RCC_PLL_MUL(RCC_OscInitStruct->PLL.PLLMUL));
 1587              		.loc 1 752 9 is_stmt 1 view .LVU480
 753:Drivers/STM32L0xx_HAL_Driver/Src/stm32l0xx_hal_rcc.c ****         assert_param(IS_RCC_PLL_DIV(RCC_OscInitStruct->PLL.PLLDIV));
 1588              		.loc 1 753 9 view .LVU481
 754:Drivers/STM32L0xx_HAL_Driver/Src/stm32l0xx_hal_rcc.c **** 
 1589              		.loc 1 754 9 view .LVU482
 757:Drivers/STM32L0xx_HAL_Driver/Src/stm32l0xx_hal_rcc.c **** 
 1590              		.loc 1 757 9 view .LVU483
 1591 043c 304A     		ldr	r2, .L149+4
 1592 043e 1368     		ldr	r3, [r2]
 1593 0440 3349     		ldr	r1, .L149+20
 1594 0442 0B40     		ands	r3, r1
 1595 0444 1360     		str	r3, [r2]
 760:Drivers/STM32L0xx_HAL_Driver/Src/stm32l0xx_hal_rcc.c **** 
 1596              		.loc 1 760 9 view .LVU484
 760:Drivers/STM32L0xx_HAL_Driver/Src/stm32l0xx_hal_rcc.c **** 
 1597              		.loc 1 760 21 is_stmt 0 view .LVU485
 1598 0446 FFF7FEFF 		bl	HAL_GetTick
 1599              	.LVL117:
 1600 044a 0500     		movs	r5, r0
 1601              	.LVL118:
 763:Drivers/STM32L0xx_HAL_Driver/Src/stm32l0xx_hal_rcc.c ****         {
 1602              		.loc 1 763 9 is_stmt 1 view .LVU486
ARM GAS  /tmp/ccOARe22.s 			page 58


 1603              	.L92:
 763:Drivers/STM32L0xx_HAL_Driver/Src/stm32l0xx_hal_rcc.c ****         {
 1604              		.loc 1 763 52 view .LVU487
 763:Drivers/STM32L0xx_HAL_Driver/Src/stm32l0xx_hal_rcc.c ****         {
 1605              		.loc 1 763 15 is_stmt 0 view .LVU488
 1606 044c 2C4B     		ldr	r3, .L149+4
 1607 044e 1B68     		ldr	r3, [r3]
 763:Drivers/STM32L0xx_HAL_Driver/Src/stm32l0xx_hal_rcc.c ****         {
 1608              		.loc 1 763 52 view .LVU489
 1609 0450 9B01     		lsls	r3, r3, #6
 1610 0452 06D5     		bpl	.L145
 765:Drivers/STM32L0xx_HAL_Driver/Src/stm32l0xx_hal_rcc.c ****           {
 1611              		.loc 1 765 11 is_stmt 1 view .LVU490
 765:Drivers/STM32L0xx_HAL_Driver/Src/stm32l0xx_hal_rcc.c ****           {
 1612              		.loc 1 765 15 is_stmt 0 view .LVU491
 1613 0454 FFF7FEFF 		bl	HAL_GetTick
 1614              	.LVL119:
 765:Drivers/STM32L0xx_HAL_Driver/Src/stm32l0xx_hal_rcc.c ****           {
 1615              		.loc 1 765 29 discriminator 1 view .LVU492
 1616 0458 401B     		subs	r0, r0, r5
 765:Drivers/STM32L0xx_HAL_Driver/Src/stm32l0xx_hal_rcc.c ****           {
 1617              		.loc 1 765 13 discriminator 1 view .LVU493
 1618 045a 0228     		cmp	r0, #2
 1619 045c F6D9     		bls	.L92
 767:Drivers/STM32L0xx_HAL_Driver/Src/stm32l0xx_hal_rcc.c ****           }
 1620              		.loc 1 767 20 view .LVU494
 1621 045e 0320     		movs	r0, #3
 1622 0460 3AE0     		b	.L39
 1623              	.L145:
 772:Drivers/STM32L0xx_HAL_Driver/Src/stm32l0xx_hal_rcc.c ****                              RCC_OscInitStruct->PLL.PLLMUL,
 1624              		.loc 1 772 9 is_stmt 1 view .LVU495
 1625 0462 2749     		ldr	r1, .L149+4
 1626 0464 CB68     		ldr	r3, [r1, #12]
 1627 0466 2C4A     		ldr	r2, .L149+28
 1628 0468 1340     		ands	r3, r2
 1629 046a A26A     		ldr	r2, [r4, #40]
 1630 046c E06A     		ldr	r0, [r4, #44]
 1631 046e 0243     		orrs	r2, r0
 1632 0470 206B     		ldr	r0, [r4, #48]
 1633 0472 0243     		orrs	r2, r0
 1634 0474 1343     		orrs	r3, r2
 1635 0476 CB60     		str	r3, [r1, #12]
 776:Drivers/STM32L0xx_HAL_Driver/Src/stm32l0xx_hal_rcc.c **** 
 1636              		.loc 1 776 9 view .LVU496
 1637 0478 0A68     		ldr	r2, [r1]
 1638 047a 8023     		movs	r3, #128
 1639 047c 5B04     		lsls	r3, r3, #17
 1640 047e 1343     		orrs	r3, r2
 1641 0480 0B60     		str	r3, [r1]
 779:Drivers/STM32L0xx_HAL_Driver/Src/stm32l0xx_hal_rcc.c **** 
 1642              		.loc 1 779 9 view .LVU497
 779:Drivers/STM32L0xx_HAL_Driver/Src/stm32l0xx_hal_rcc.c **** 
 1643              		.loc 1 779 21 is_stmt 0 view .LVU498
 1644 0482 FFF7FEFF 		bl	HAL_GetTick
 1645              	.LVL120:
 1646 0486 0400     		movs	r4, r0
 1647              	.LVL121:
ARM GAS  /tmp/ccOARe22.s 			page 59


 782:Drivers/STM32L0xx_HAL_Driver/Src/stm32l0xx_hal_rcc.c ****         {
 1648              		.loc 1 782 9 is_stmt 1 view .LVU499
 1649              	.L94:
 782:Drivers/STM32L0xx_HAL_Driver/Src/stm32l0xx_hal_rcc.c ****         {
 1650              		.loc 1 782 52 view .LVU500
 782:Drivers/STM32L0xx_HAL_Driver/Src/stm32l0xx_hal_rcc.c ****         {
 1651              		.loc 1 782 15 is_stmt 0 view .LVU501
 1652 0488 1D4B     		ldr	r3, .L149+4
 1653 048a 1B68     		ldr	r3, [r3]
 782:Drivers/STM32L0xx_HAL_Driver/Src/stm32l0xx_hal_rcc.c ****         {
 1654              		.loc 1 782 52 view .LVU502
 1655 048c 9B01     		lsls	r3, r3, #6
 1656 048e 06D4     		bmi	.L146
 784:Drivers/STM32L0xx_HAL_Driver/Src/stm32l0xx_hal_rcc.c ****           {
 1657              		.loc 1 784 11 is_stmt 1 view .LVU503
 784:Drivers/STM32L0xx_HAL_Driver/Src/stm32l0xx_hal_rcc.c ****           {
 1658              		.loc 1 784 15 is_stmt 0 view .LVU504
 1659 0490 FFF7FEFF 		bl	HAL_GetTick
 1660              	.LVL122:
 784:Drivers/STM32L0xx_HAL_Driver/Src/stm32l0xx_hal_rcc.c ****           {
 1661              		.loc 1 784 29 discriminator 1 view .LVU505
 1662 0494 001B     		subs	r0, r0, r4
 784:Drivers/STM32L0xx_HAL_Driver/Src/stm32l0xx_hal_rcc.c ****           {
 1663              		.loc 1 784 13 discriminator 1 view .LVU506
 1664 0496 0228     		cmp	r0, #2
 1665 0498 F6D9     		bls	.L94
 786:Drivers/STM32L0xx_HAL_Driver/Src/stm32l0xx_hal_rcc.c ****           }
 1666              		.loc 1 786 20 view .LVU507
 1667 049a 0320     		movs	r0, #3
 1668 049c 1CE0     		b	.L39
 1669              	.L146:
 828:Drivers/STM32L0xx_HAL_Driver/Src/stm32l0xx_hal_rcc.c **** }
 1670              		.loc 1 828 10 view .LVU508
 1671 049e 0020     		movs	r0, #0
 1672 04a0 1AE0     		b	.L39
 1673              	.LVL123:
 1674              	.L144:
 828:Drivers/STM32L0xx_HAL_Driver/Src/stm32l0xx_hal_rcc.c **** }
 1675              		.loc 1 828 10 view .LVU509
 1676 04a2 0020     		movs	r0, #0
 1677 04a4 18E0     		b	.L39
 1678              	.LVL124:
 1679              	.L90:
 811:Drivers/STM32L0xx_HAL_Driver/Src/stm32l0xx_hal_rcc.c ****       {
 1680              		.loc 1 811 7 is_stmt 1 view .LVU510
 811:Drivers/STM32L0xx_HAL_Driver/Src/stm32l0xx_hal_rcc.c ****       {
 1681              		.loc 1 811 9 is_stmt 0 view .LVU511
 1682 04a6 012B     		cmp	r3, #1
 1683 04a8 20D0     		beq	.L118
 818:Drivers/STM32L0xx_HAL_Driver/Src/stm32l0xx_hal_rcc.c ****         if((READ_BIT(pll_config, RCC_CFGR_PLLSRC) != RCC_OscInitStruct->PLL.PLLSource) ||
 1684              		.loc 1 818 9 is_stmt 1 view .LVU512
 818:Drivers/STM32L0xx_HAL_Driver/Src/stm32l0xx_hal_rcc.c ****         if((READ_BIT(pll_config, RCC_CFGR_PLLSRC) != RCC_OscInitStruct->PLL.PLLSource) ||
 1685              		.loc 1 818 20 is_stmt 0 view .LVU513
 1686 04aa 154B     		ldr	r3, .L149+4
 1687 04ac DA68     		ldr	r2, [r3, #12]
 1688              	.LVL125:
 819:Drivers/STM32L0xx_HAL_Driver/Src/stm32l0xx_hal_rcc.c ****            (READ_BIT(pll_config, RCC_CFGR_PLLMUL) != RCC_OscInitStruct->PLL.PLLMUL) ||
ARM GAS  /tmp/ccOARe22.s 			page 60


 1689              		.loc 1 819 9 is_stmt 1 view .LVU514
 819:Drivers/STM32L0xx_HAL_Driver/Src/stm32l0xx_hal_rcc.c ****            (READ_BIT(pll_config, RCC_CFGR_PLLMUL) != RCC_OscInitStruct->PLL.PLLMUL) ||
 1690              		.loc 1 819 13 is_stmt 0 view .LVU515
 1691 04ae 8023     		movs	r3, #128
 1692 04b0 5B02     		lsls	r3, r3, #9
 1693 04b2 1340     		ands	r3, r2
 819:Drivers/STM32L0xx_HAL_Driver/Src/stm32l0xx_hal_rcc.c ****            (READ_BIT(pll_config, RCC_CFGR_PLLMUL) != RCC_OscInitStruct->PLL.PLLMUL) ||
 1694              		.loc 1 819 76 view .LVU516
 1695 04b4 A16A     		ldr	r1, [r4, #40]
 819:Drivers/STM32L0xx_HAL_Driver/Src/stm32l0xx_hal_rcc.c ****            (READ_BIT(pll_config, RCC_CFGR_PLLMUL) != RCC_OscInitStruct->PLL.PLLMUL) ||
 1696              		.loc 1 819 11 view .LVU517
 1697 04b6 8B42     		cmp	r3, r1
 1698 04b8 1AD1     		bne	.L119
 820:Drivers/STM32L0xx_HAL_Driver/Src/stm32l0xx_hal_rcc.c ****            (READ_BIT(pll_config, RCC_CFGR_PLLDIV) != RCC_OscInitStruct->PLL.PLLDIV))
 1699              		.loc 1 820 13 view .LVU518
 1700 04ba F023     		movs	r3, #240
 1701 04bc 9B03     		lsls	r3, r3, #14
 1702 04be 1340     		ands	r3, r2
 820:Drivers/STM32L0xx_HAL_Driver/Src/stm32l0xx_hal_rcc.c ****            (READ_BIT(pll_config, RCC_CFGR_PLLDIV) != RCC_OscInitStruct->PLL.PLLDIV))
 1703              		.loc 1 820 76 view .LVU519
 1704 04c0 E16A     		ldr	r1, [r4, #44]
 819:Drivers/STM32L0xx_HAL_Driver/Src/stm32l0xx_hal_rcc.c ****            (READ_BIT(pll_config, RCC_CFGR_PLLMUL) != RCC_OscInitStruct->PLL.PLLMUL) ||
 1705              		.loc 1 819 88 discriminator 1 view .LVU520
 1706 04c2 8B42     		cmp	r3, r1
 1707 04c4 16D1     		bne	.L120
 821:Drivers/STM32L0xx_HAL_Driver/Src/stm32l0xx_hal_rcc.c ****         {
 1708              		.loc 1 821 13 view .LVU521
 1709 04c6 C023     		movs	r3, #192
 1710 04c8 1B04     		lsls	r3, r3, #16
 1711 04ca 1A40     		ands	r2, r3
 1712              	.LVL126:
 821:Drivers/STM32L0xx_HAL_Driver/Src/stm32l0xx_hal_rcc.c ****         {
 1713              		.loc 1 821 76 view .LVU522
 1714 04cc 236B     		ldr	r3, [r4, #48]
 820:Drivers/STM32L0xx_HAL_Driver/Src/stm32l0xx_hal_rcc.c ****            (READ_BIT(pll_config, RCC_CFGR_PLLDIV) != RCC_OscInitStruct->PLL.PLLDIV))
 1715              		.loc 1 820 85 view .LVU523
 1716 04ce 9A42     		cmp	r2, r3
 1717 04d0 12D1     		bne	.L121
 828:Drivers/STM32L0xx_HAL_Driver/Src/stm32l0xx_hal_rcc.c **** }
 1718              		.loc 1 828 10 view .LVU524
 1719 04d2 0020     		movs	r0, #0
 1720 04d4 00E0     		b	.L39
 1721              	.LVL127:
 1722              	.L98:
 346:Drivers/STM32L0xx_HAL_Driver/Src/stm32l0xx_hal_rcc.c ****   }
 1723              		.loc 1 346 12 view .LVU525
 1724 04d6 0120     		movs	r0, #1
 1725              	.LVL128:
 1726              	.L39:
 829:Drivers/STM32L0xx_HAL_Driver/Src/stm32l0xx_hal_rcc.c **** 
 1727              		.loc 1 829 1 view .LVU526
 1728 04d8 03B0     		add	sp, sp, #12
 1729              		@ sp needed
 1730 04da F0BD     		pop	{r4, r5, r6, r7, pc}
 1731              	.LVL129:
 1732              	.L135:
 367:Drivers/STM32L0xx_HAL_Driver/Src/stm32l0xx_hal_rcc.c ****       }
ARM GAS  /tmp/ccOARe22.s 			page 61


 1733              		.loc 1 367 16 view .LVU527
 1734 04dc 0120     		movs	r0, #1
 1735              	.LVL130:
 367:Drivers/STM32L0xx_HAL_Driver/Src/stm32l0xx_hal_rcc.c ****       }
 1736              		.loc 1 367 16 view .LVU528
 1737 04de FBE7     		b	.L39
 1738              	.LVL131:
 1739              	.L102:
 432:Drivers/STM32L0xx_HAL_Driver/Src/stm32l0xx_hal_rcc.c ****       }
 1740              		.loc 1 432 16 view .LVU529
 1741 04e0 0120     		movs	r0, #1
 1742 04e2 F9E7     		b	.L39
 1743              	.LVL132:
 1744              	.L105:
 504:Drivers/STM32L0xx_HAL_Driver/Src/stm32l0xx_hal_rcc.c ****       }
 1745              		.loc 1 504 16 view .LVU530
 1746 04e4 0120     		movs	r0, #1
 1747 04e6 F7E7     		b	.L39
 1748              	.L114:
 828:Drivers/STM32L0xx_HAL_Driver/Src/stm32l0xx_hal_rcc.c **** }
 1749              		.loc 1 828 10 view .LVU531
 1750 04e8 0020     		movs	r0, #0
 1751 04ea F5E7     		b	.L39
 1752              	.L118:
 813:Drivers/STM32L0xx_HAL_Driver/Src/stm32l0xx_hal_rcc.c ****       }
 1753              		.loc 1 813 16 view .LVU532
 1754 04ec 0120     		movs	r0, #1
 1755 04ee F3E7     		b	.L39
 1756              	.LVL133:
 1757              	.L119:
 823:Drivers/STM32L0xx_HAL_Driver/Src/stm32l0xx_hal_rcc.c ****         }
 1758              		.loc 1 823 18 view .LVU533
 1759 04f0 0120     		movs	r0, #1
 1760 04f2 F1E7     		b	.L39
 1761              	.L120:
 1762 04f4 0120     		movs	r0, #1
 1763 04f6 EFE7     		b	.L39
 1764              	.LVL134:
 1765              	.L121:
 823:Drivers/STM32L0xx_HAL_Driver/Src/stm32l0xx_hal_rcc.c ****         }
 1766              		.loc 1 823 18 view .LVU534
 1767 04f8 0120     		movs	r0, #1
 1768 04fa EDE7     		b	.L39
 1769              	.L150:
 1770              		.align	2
 1771              	.L149:
 1772 04fc 00700040 		.word	1073770496
 1773 0500 00100240 		.word	1073876992
 1774 0504 88130000 		.word	5000
 1775 0508 FFFEFFFF 		.word	-257
 1776 050c FFFBFFFF 		.word	-1025
 1777 0510 FFFFFFFE 		.word	-16777217
 1778 0514 FFFFFFEF 		.word	-268435457
 1779 0518 FFFF02FF 		.word	-16580609
 1780              		.cfi_endproc
 1781              	.LFE41:
 1783              		.section	.text.HAL_RCC_ClockConfig,"ax",%progbits
ARM GAS  /tmp/ccOARe22.s 			page 62


 1784              		.align	1
 1785              		.global	HAL_RCC_ClockConfig
 1786              		.syntax unified
 1787              		.code	16
 1788              		.thumb_func
 1790              	HAL_RCC_ClockConfig:
 1791              	.LVL135:
 1792              	.LFB42:
 858:Drivers/STM32L0xx_HAL_Driver/Src/stm32l0xx_hal_rcc.c ****   uint32_t tickstart;
 1793              		.loc 1 858 1 is_stmt 1 view -0
 1794              		.cfi_startproc
 1795              		@ args = 0, pretend = 0, frame = 0
 1796              		@ frame_needed = 0, uses_anonymous_args = 0
 858:Drivers/STM32L0xx_HAL_Driver/Src/stm32l0xx_hal_rcc.c ****   uint32_t tickstart;
 1797              		.loc 1 858 1 is_stmt 0 view .LVU536
 1798 0000 70B5     		push	{r4, r5, r6, lr}
 1799              		.cfi_def_cfa_offset 16
 1800              		.cfi_offset 4, -16
 1801              		.cfi_offset 5, -12
 1802              		.cfi_offset 6, -8
 1803              		.cfi_offset 14, -4
 1804 0002 0500     		movs	r5, r0
 1805 0004 0C00     		movs	r4, r1
 859:Drivers/STM32L0xx_HAL_Driver/Src/stm32l0xx_hal_rcc.c ****   HAL_StatusTypeDef status;
 1806              		.loc 1 859 3 is_stmt 1 view .LVU537
 860:Drivers/STM32L0xx_HAL_Driver/Src/stm32l0xx_hal_rcc.c **** 
 1807              		.loc 1 860 3 view .LVU538
 863:Drivers/STM32L0xx_HAL_Driver/Src/stm32l0xx_hal_rcc.c ****   {
 1808              		.loc 1 863 3 view .LVU539
 863:Drivers/STM32L0xx_HAL_Driver/Src/stm32l0xx_hal_rcc.c ****   {
 1809              		.loc 1 863 5 is_stmt 0 view .LVU540
 1810 0006 0028     		cmp	r0, #0
 1811 0008 00D1     		bne	.LCB1716
 1812 000a D1E0     		b	.L177	@long jump
 1813              	.LCB1716:
 869:Drivers/STM32L0xx_HAL_Driver/Src/stm32l0xx_hal_rcc.c ****   assert_param(IS_FLASH_LATENCY(FLatency));
 1814              		.loc 1 869 3 is_stmt 1 view .LVU541
 870:Drivers/STM32L0xx_HAL_Driver/Src/stm32l0xx_hal_rcc.c **** 
 1815              		.loc 1 870 3 view .LVU542
 877:Drivers/STM32L0xx_HAL_Driver/Src/stm32l0xx_hal_rcc.c ****   {
 1816              		.loc 1 877 3 view .LVU543
 877:Drivers/STM32L0xx_HAL_Driver/Src/stm32l0xx_hal_rcc.c ****   {
 1817              		.loc 1 877 17 is_stmt 0 view .LVU544
 1818 000c 6A4B     		ldr	r3, .L203
 1819 000e 1A68     		ldr	r2, [r3]
 1820 0010 0123     		movs	r3, #1
 1821 0012 1340     		ands	r3, r2
 877:Drivers/STM32L0xx_HAL_Driver/Src/stm32l0xx_hal_rcc.c ****   {
 1822              		.loc 1 877 5 view .LVU545
 1823 0014 8B42     		cmp	r3, r1
 1824 0016 19D3     		bcc	.L197
 1825              	.LVL136:
 1826              	.L153:
 896:Drivers/STM32L0xx_HAL_Driver/Src/stm32l0xx_hal_rcc.c ****   {
 1827              		.loc 1 896 3 is_stmt 1 view .LVU546
 896:Drivers/STM32L0xx_HAL_Driver/Src/stm32l0xx_hal_rcc.c ****   {
 1828              		.loc 1 896 25 is_stmt 0 view .LVU547
ARM GAS  /tmp/ccOARe22.s 			page 63


 1829 0018 2B68     		ldr	r3, [r5]
 896:Drivers/STM32L0xx_HAL_Driver/Src/stm32l0xx_hal_rcc.c ****   {
 1830              		.loc 1 896 5 view .LVU548
 1831 001a 9B07     		lsls	r3, r3, #30
 1832 001c 06D5     		bpl	.L156
 898:Drivers/STM32L0xx_HAL_Driver/Src/stm32l0xx_hal_rcc.c ****     MODIFY_REG(RCC->CFGR, RCC_CFGR_HPRE, RCC_ClkInitStruct->AHBCLKDivider);
 1833              		.loc 1 898 5 is_stmt 1 view .LVU549
 899:Drivers/STM32L0xx_HAL_Driver/Src/stm32l0xx_hal_rcc.c ****   }
 1834              		.loc 1 899 5 view .LVU550
 1835 001e 674A     		ldr	r2, .L203+4
 1836 0020 D368     		ldr	r3, [r2, #12]
 1837 0022 F021     		movs	r1, #240
 1838 0024 8B43     		bics	r3, r1
 1839 0026 A968     		ldr	r1, [r5, #8]
 1840 0028 0B43     		orrs	r3, r1
 1841 002a D360     		str	r3, [r2, #12]
 1842              	.L156:
 903:Drivers/STM32L0xx_HAL_Driver/Src/stm32l0xx_hal_rcc.c ****   {
 1843              		.loc 1 903 3 view .LVU551
 903:Drivers/STM32L0xx_HAL_Driver/Src/stm32l0xx_hal_rcc.c ****   {
 1844              		.loc 1 903 25 is_stmt 0 view .LVU552
 1845 002c 2B68     		ldr	r3, [r5]
 903:Drivers/STM32L0xx_HAL_Driver/Src/stm32l0xx_hal_rcc.c ****   {
 1846              		.loc 1 903 5 view .LVU553
 1847 002e DB07     		lsls	r3, r3, #31
 1848 0030 7BD5     		bpl	.L157
 905:Drivers/STM32L0xx_HAL_Driver/Src/stm32l0xx_hal_rcc.c **** 
 1849              		.loc 1 905 5 is_stmt 1 view .LVU554
 908:Drivers/STM32L0xx_HAL_Driver/Src/stm32l0xx_hal_rcc.c ****     {
 1850              		.loc 1 908 5 view .LVU555
 908:Drivers/STM32L0xx_HAL_Driver/Src/stm32l0xx_hal_rcc.c ****     {
 1851              		.loc 1 908 25 is_stmt 0 view .LVU556
 1852 0032 6B68     		ldr	r3, [r5, #4]
 908:Drivers/STM32L0xx_HAL_Driver/Src/stm32l0xx_hal_rcc.c ****     {
 1853              		.loc 1 908 7 view .LVU557
 1854 0034 022B     		cmp	r3, #2
 1855 0036 20D0     		beq	.L198
 917:Drivers/STM32L0xx_HAL_Driver/Src/stm32l0xx_hal_rcc.c ****     {
 1856              		.loc 1 917 10 is_stmt 1 view .LVU558
 917:Drivers/STM32L0xx_HAL_Driver/Src/stm32l0xx_hal_rcc.c ****     {
 1857              		.loc 1 917 12 is_stmt 0 view .LVU559
 1858 0038 032B     		cmp	r3, #3
 1859 003a 40D0     		beq	.L199
 926:Drivers/STM32L0xx_HAL_Driver/Src/stm32l0xx_hal_rcc.c ****     {
 1860              		.loc 1 926 10 is_stmt 1 view .LVU560
 926:Drivers/STM32L0xx_HAL_Driver/Src/stm32l0xx_hal_rcc.c ****     {
 1861              		.loc 1 926 12 is_stmt 0 view .LVU561
 1862 003c 012B     		cmp	r3, #1
 1863 003e 44D0     		beq	.L200
 938:Drivers/STM32L0xx_HAL_Driver/Src/stm32l0xx_hal_rcc.c ****       {
 1864              		.loc 1 938 7 is_stmt 1 view .LVU562
 938:Drivers/STM32L0xx_HAL_Driver/Src/stm32l0xx_hal_rcc.c ****       {
 1865              		.loc 1 938 10 is_stmt 0 view .LVU563
 1866 0040 5E4A     		ldr	r2, .L203+4
 1867 0042 1268     		ldr	r2, [r2]
 938:Drivers/STM32L0xx_HAL_Driver/Src/stm32l0xx_hal_rcc.c ****       {
 1868              		.loc 1 938 9 view .LVU564
ARM GAS  /tmp/ccOARe22.s 			page 64


 1869 0044 9205     		lsls	r2, r2, #22
 1870 0046 1DD4     		bmi	.L159
 940:Drivers/STM32L0xx_HAL_Driver/Src/stm32l0xx_hal_rcc.c ****       }
 1871              		.loc 1 940 16 view .LVU565
 1872 0048 0120     		movs	r0, #1
 1873 004a 99E0     		b	.L152
 1874              	.LVL137:
 1875              	.L197:
 880:Drivers/STM32L0xx_HAL_Driver/Src/stm32l0xx_hal_rcc.c **** 
 1876              		.loc 1 880 5 is_stmt 1 view .LVU566
 1877 004c 5A4A     		ldr	r2, .L203
 1878 004e 1368     		ldr	r3, [r2]
 1879 0050 0121     		movs	r1, #1
 1880              	.LVL138:
 880:Drivers/STM32L0xx_HAL_Driver/Src/stm32l0xx_hal_rcc.c **** 
 1881              		.loc 1 880 5 is_stmt 0 view .LVU567
 1882 0052 8B43     		bics	r3, r1
 1883 0054 2343     		orrs	r3, r4
 1884 0056 1360     		str	r3, [r2]
 884:Drivers/STM32L0xx_HAL_Driver/Src/stm32l0xx_hal_rcc.c **** 
 1885              		.loc 1 884 5 is_stmt 1 view .LVU568
 884:Drivers/STM32L0xx_HAL_Driver/Src/stm32l0xx_hal_rcc.c **** 
 1886              		.loc 1 884 17 is_stmt 0 view .LVU569
 1887 0058 FFF7FEFF 		bl	HAL_GetTick
 1888              	.LVL139:
 884:Drivers/STM32L0xx_HAL_Driver/Src/stm32l0xx_hal_rcc.c **** 
 1889              		.loc 1 884 17 view .LVU570
 1890 005c 0600     		movs	r6, r0
 1891              	.LVL140:
 886:Drivers/STM32L0xx_HAL_Driver/Src/stm32l0xx_hal_rcc.c ****     {
 1892              		.loc 1 886 5 is_stmt 1 view .LVU571
 1893              	.L154:
 886:Drivers/STM32L0xx_HAL_Driver/Src/stm32l0xx_hal_rcc.c ****     {
 1894              		.loc 1 886 38 view .LVU572
 886:Drivers/STM32L0xx_HAL_Driver/Src/stm32l0xx_hal_rcc.c ****     {
 1895              		.loc 1 886 12 is_stmt 0 view .LVU573
 1896 005e 564B     		ldr	r3, .L203
 1897 0060 1A68     		ldr	r2, [r3]
 1898 0062 0123     		movs	r3, #1
 1899 0064 1340     		ands	r3, r2
 886:Drivers/STM32L0xx_HAL_Driver/Src/stm32l0xx_hal_rcc.c ****     {
 1900              		.loc 1 886 38 view .LVU574
 1901 0066 A342     		cmp	r3, r4
 1902 0068 D6D0     		beq	.L153
 888:Drivers/STM32L0xx_HAL_Driver/Src/stm32l0xx_hal_rcc.c ****       {
 1903              		.loc 1 888 7 is_stmt 1 view .LVU575
 888:Drivers/STM32L0xx_HAL_Driver/Src/stm32l0xx_hal_rcc.c ****       {
 1904              		.loc 1 888 12 is_stmt 0 view .LVU576
 1905 006a FFF7FEFF 		bl	HAL_GetTick
 1906              	.LVL141:
 888:Drivers/STM32L0xx_HAL_Driver/Src/stm32l0xx_hal_rcc.c ****       {
 1907              		.loc 1 888 26 discriminator 1 view .LVU577
 1908 006e 801B     		subs	r0, r0, r6
 888:Drivers/STM32L0xx_HAL_Driver/Src/stm32l0xx_hal_rcc.c ****       {
 1909              		.loc 1 888 10 discriminator 1 view .LVU578
 1910 0070 534A     		ldr	r2, .L203+8
 1911 0072 9042     		cmp	r0, r2
ARM GAS  /tmp/ccOARe22.s 			page 65


 1912 0074 F3D9     		bls	.L154
 890:Drivers/STM32L0xx_HAL_Driver/Src/stm32l0xx_hal_rcc.c ****       }
 1913              		.loc 1 890 16 view .LVU579
 1914 0076 0320     		movs	r0, #3
 1915 0078 82E0     		b	.L152
 1916              	.LVL142:
 1917              	.L198:
 911:Drivers/STM32L0xx_HAL_Driver/Src/stm32l0xx_hal_rcc.c ****       {
 1918              		.loc 1 911 7 is_stmt 1 view .LVU580
 911:Drivers/STM32L0xx_HAL_Driver/Src/stm32l0xx_hal_rcc.c ****       {
 1919              		.loc 1 911 10 is_stmt 0 view .LVU581
 1920 007a 504A     		ldr	r2, .L203+4
 1921 007c 1268     		ldr	r2, [r2]
 911:Drivers/STM32L0xx_HAL_Driver/Src/stm32l0xx_hal_rcc.c ****       {
 1922              		.loc 1 911 9 view .LVU582
 1923 007e 9203     		lsls	r2, r2, #14
 1924 0080 00D4     		bmi	.LCB1822
 1925 0082 97E0     		b	.L201	@long jump
 1926              	.LCB1822:
 1927              	.L159:
 943:Drivers/STM32L0xx_HAL_Driver/Src/stm32l0xx_hal_rcc.c **** 
 1928              		.loc 1 943 5 is_stmt 1 view .LVU583
 1929 0084 4D49     		ldr	r1, .L203+4
 1930 0086 CA68     		ldr	r2, [r1, #12]
 1931 0088 0320     		movs	r0, #3
 1932 008a 8243     		bics	r2, r0
 1933 008c 1343     		orrs	r3, r2
 1934 008e CB60     		str	r3, [r1, #12]
 946:Drivers/STM32L0xx_HAL_Driver/Src/stm32l0xx_hal_rcc.c **** 
 1935              		.loc 1 946 5 view .LVU584
 946:Drivers/STM32L0xx_HAL_Driver/Src/stm32l0xx_hal_rcc.c **** 
 1936              		.loc 1 946 17 is_stmt 0 view .LVU585
 1937 0090 FFF7FEFF 		bl	HAL_GetTick
 1938              	.LVL143:
 1939 0094 0600     		movs	r6, r0
 1940              	.LVL144:
 948:Drivers/STM32L0xx_HAL_Driver/Src/stm32l0xx_hal_rcc.c ****     {
 1941              		.loc 1 948 5 is_stmt 1 view .LVU586
 948:Drivers/STM32L0xx_HAL_Driver/Src/stm32l0xx_hal_rcc.c ****     {
 1942              		.loc 1 948 25 is_stmt 0 view .LVU587
 1943 0096 6B68     		ldr	r3, [r5, #4]
 948:Drivers/STM32L0xx_HAL_Driver/Src/stm32l0xx_hal_rcc.c ****     {
 1944              		.loc 1 948 7 view .LVU588
 1945 0098 022B     		cmp	r3, #2
 1946 009a 1CD0     		beq	.L162
 958:Drivers/STM32L0xx_HAL_Driver/Src/stm32l0xx_hal_rcc.c ****     {
 1947              		.loc 1 958 10 is_stmt 1 view .LVU589
 958:Drivers/STM32L0xx_HAL_Driver/Src/stm32l0xx_hal_rcc.c ****     {
 1948              		.loc 1 958 12 is_stmt 0 view .LVU590
 1949 009c 032B     		cmp	r3, #3
 1950 009e 28D0     		beq	.L165
 968:Drivers/STM32L0xx_HAL_Driver/Src/stm32l0xx_hal_rcc.c ****     {
 1951              		.loc 1 968 10 is_stmt 1 view .LVU591
 968:Drivers/STM32L0xx_HAL_Driver/Src/stm32l0xx_hal_rcc.c ****     {
 1952              		.loc 1 968 12 is_stmt 0 view .LVU592
 1953 00a0 012B     		cmp	r3, #1
 1954 00a2 34D0     		beq	.L168
ARM GAS  /tmp/ccOARe22.s 			page 66


 1955              	.LVL145:
 1956              	.L169:
 980:Drivers/STM32L0xx_HAL_Driver/Src/stm32l0xx_hal_rcc.c ****       {
 1957              		.loc 1 980 43 is_stmt 1 view .LVU593
 980:Drivers/STM32L0xx_HAL_Driver/Src/stm32l0xx_hal_rcc.c ****       {
 1958              		.loc 1 980 13 is_stmt 0 view .LVU594
 1959 00a4 454B     		ldr	r3, .L203+4
 1960 00a6 DB68     		ldr	r3, [r3, #12]
 1961 00a8 0C22     		movs	r2, #12
 980:Drivers/STM32L0xx_HAL_Driver/Src/stm32l0xx_hal_rcc.c ****       {
 1962              		.loc 1 980 43 view .LVU595
 1963 00aa 1A42     		tst	r2, r3
 1964 00ac 3DD0     		beq	.L157
 982:Drivers/STM32L0xx_HAL_Driver/Src/stm32l0xx_hal_rcc.c ****         {
 1965              		.loc 1 982 9 is_stmt 1 view .LVU596
 982:Drivers/STM32L0xx_HAL_Driver/Src/stm32l0xx_hal_rcc.c ****         {
 1966              		.loc 1 982 13 is_stmt 0 view .LVU597
 1967 00ae FFF7FEFF 		bl	HAL_GetTick
 1968              	.LVL146:
 982:Drivers/STM32L0xx_HAL_Driver/Src/stm32l0xx_hal_rcc.c ****         {
 1969              		.loc 1 982 27 discriminator 1 view .LVU598
 1970 00b2 801B     		subs	r0, r0, r6
 982:Drivers/STM32L0xx_HAL_Driver/Src/stm32l0xx_hal_rcc.c ****         {
 1971              		.loc 1 982 11 discriminator 1 view .LVU599
 1972 00b4 424B     		ldr	r3, .L203+8
 1973 00b6 9842     		cmp	r0, r3
 1974 00b8 F4D9     		bls	.L169
 984:Drivers/STM32L0xx_HAL_Driver/Src/stm32l0xx_hal_rcc.c ****         }
 1975              		.loc 1 984 18 view .LVU600
 1976 00ba 0320     		movs	r0, #3
 1977 00bc 60E0     		b	.L152
 1978              	.LVL147:
 1979              	.L199:
 920:Drivers/STM32L0xx_HAL_Driver/Src/stm32l0xx_hal_rcc.c ****       {
 1980              		.loc 1 920 7 is_stmt 1 view .LVU601
 920:Drivers/STM32L0xx_HAL_Driver/Src/stm32l0xx_hal_rcc.c ****       {
 1981              		.loc 1 920 10 is_stmt 0 view .LVU602
 1982 00be 3F4A     		ldr	r2, .L203+4
 1983 00c0 1268     		ldr	r2, [r2]
 920:Drivers/STM32L0xx_HAL_Driver/Src/stm32l0xx_hal_rcc.c ****       {
 1984              		.loc 1 920 9 view .LVU603
 1985 00c2 9201     		lsls	r2, r2, #6
 1986 00c4 DED4     		bmi	.L159
 922:Drivers/STM32L0xx_HAL_Driver/Src/stm32l0xx_hal_rcc.c ****       }
 1987              		.loc 1 922 16 view .LVU604
 1988 00c6 0120     		movs	r0, #1
 1989 00c8 5AE0     		b	.L152
 1990              	.L200:
 929:Drivers/STM32L0xx_HAL_Driver/Src/stm32l0xx_hal_rcc.c ****       {
 1991              		.loc 1 929 7 is_stmt 1 view .LVU605
 929:Drivers/STM32L0xx_HAL_Driver/Src/stm32l0xx_hal_rcc.c ****       {
 1992              		.loc 1 929 10 is_stmt 0 view .LVU606
 1993 00ca 3C4A     		ldr	r2, .L203+4
 1994 00cc 1268     		ldr	r2, [r2]
 929:Drivers/STM32L0xx_HAL_Driver/Src/stm32l0xx_hal_rcc.c ****       {
 1995              		.loc 1 929 9 view .LVU607
 1996 00ce 5207     		lsls	r2, r2, #29
ARM GAS  /tmp/ccOARe22.s 			page 67


 1997 00d0 D8D4     		bmi	.L159
 931:Drivers/STM32L0xx_HAL_Driver/Src/stm32l0xx_hal_rcc.c ****       }
 1998              		.loc 1 931 16 view .LVU608
 1999 00d2 0120     		movs	r0, #1
 2000 00d4 54E0     		b	.L152
 2001              	.LVL148:
 2002              	.L162:
 950:Drivers/STM32L0xx_HAL_Driver/Src/stm32l0xx_hal_rcc.c ****       {
 2003              		.loc 1 950 44 is_stmt 1 view .LVU609
 950:Drivers/STM32L0xx_HAL_Driver/Src/stm32l0xx_hal_rcc.c ****       {
 2004              		.loc 1 950 14 is_stmt 0 view .LVU610
 2005 00d6 394B     		ldr	r3, .L203+4
 2006 00d8 DA68     		ldr	r2, [r3, #12]
 2007 00da 0C23     		movs	r3, #12
 2008 00dc 1340     		ands	r3, r2
 950:Drivers/STM32L0xx_HAL_Driver/Src/stm32l0xx_hal_rcc.c ****       {
 2009              		.loc 1 950 44 view .LVU611
 2010 00de 082B     		cmp	r3, #8
 2011 00e0 23D0     		beq	.L157
 952:Drivers/STM32L0xx_HAL_Driver/Src/stm32l0xx_hal_rcc.c ****         {
 2012              		.loc 1 952 9 is_stmt 1 view .LVU612
 952:Drivers/STM32L0xx_HAL_Driver/Src/stm32l0xx_hal_rcc.c ****         {
 2013              		.loc 1 952 13 is_stmt 0 view .LVU613
 2014 00e2 FFF7FEFF 		bl	HAL_GetTick
 2015              	.LVL149:
 952:Drivers/STM32L0xx_HAL_Driver/Src/stm32l0xx_hal_rcc.c ****         {
 2016              		.loc 1 952 27 discriminator 1 view .LVU614
 2017 00e6 801B     		subs	r0, r0, r6
 952:Drivers/STM32L0xx_HAL_Driver/Src/stm32l0xx_hal_rcc.c ****         {
 2018              		.loc 1 952 11 discriminator 1 view .LVU615
 2019 00e8 354A     		ldr	r2, .L203+8
 2020 00ea 9042     		cmp	r0, r2
 2021 00ec F3D9     		bls	.L162
 954:Drivers/STM32L0xx_HAL_Driver/Src/stm32l0xx_hal_rcc.c ****         }
 2022              		.loc 1 954 18 view .LVU616
 2023 00ee 0320     		movs	r0, #3
 2024 00f0 46E0     		b	.L152
 2025              	.L165:
 960:Drivers/STM32L0xx_HAL_Driver/Src/stm32l0xx_hal_rcc.c ****       {
 2026              		.loc 1 960 44 is_stmt 1 view .LVU617
 960:Drivers/STM32L0xx_HAL_Driver/Src/stm32l0xx_hal_rcc.c ****       {
 2027              		.loc 1 960 14 is_stmt 0 view .LVU618
 2028 00f2 324B     		ldr	r3, .L203+4
 2029 00f4 DA68     		ldr	r2, [r3, #12]
 2030 00f6 0C23     		movs	r3, #12
 2031 00f8 1340     		ands	r3, r2
 960:Drivers/STM32L0xx_HAL_Driver/Src/stm32l0xx_hal_rcc.c ****       {
 2032              		.loc 1 960 44 view .LVU619
 2033 00fa 0C2B     		cmp	r3, #12
 2034 00fc 15D0     		beq	.L157
 962:Drivers/STM32L0xx_HAL_Driver/Src/stm32l0xx_hal_rcc.c ****         {
 2035              		.loc 1 962 9 is_stmt 1 view .LVU620
 962:Drivers/STM32L0xx_HAL_Driver/Src/stm32l0xx_hal_rcc.c ****         {
 2036              		.loc 1 962 13 is_stmt 0 view .LVU621
 2037 00fe FFF7FEFF 		bl	HAL_GetTick
 2038              	.LVL150:
 962:Drivers/STM32L0xx_HAL_Driver/Src/stm32l0xx_hal_rcc.c ****         {
ARM GAS  /tmp/ccOARe22.s 			page 68


