ARM GAS  /tmp/ccjzcf4U.s 			page 1


   1              		.cpu cortex-m0plus
   2              		.arch armv6s-m
   3              		.fpu softvfp
   4              		.eabi_attribute 20, 1
   5              		.eabi_attribute 21, 1
   6              		.eabi_attribute 23, 3
   7              		.eabi_attribute 24, 1
   8              		.eabi_attribute 25, 1
   9              		.eabi_attribute 26, 1
  10              		.eabi_attribute 30, 1
  11              		.eabi_attribute 34, 0
  12              		.eabi_attribute 18, 4
  13              		.file	"stm32l0xx_hal_dma.c"
  14              		.text
  15              	.Ltext0:
  16              		.cfi_sections	.debug_frame
  17              		.file 1 "Drivers/STM32L0xx_HAL_Driver/Src/stm32l0xx_hal_dma.c"
  18              		.section	.text.DMA_SetConfig,"ax",%progbits
  19              		.align	1
  20              		.syntax unified
  21              		.code	16
  22              		.thumb_func
  24              	DMA_SetConfig:
  25              	.LVL0:
  26              	.LFB52:
   1:Drivers/STM32L0xx_HAL_Driver/Src/stm32l0xx_hal_dma.c **** /**
   2:Drivers/STM32L0xx_HAL_Driver/Src/stm32l0xx_hal_dma.c ****   ******************************************************************************
   3:Drivers/STM32L0xx_HAL_Driver/Src/stm32l0xx_hal_dma.c ****   * @file    stm32l0xx_hal_dma.c
   4:Drivers/STM32L0xx_HAL_Driver/Src/stm32l0xx_hal_dma.c ****   * @author  MCD Application Team
   5:Drivers/STM32L0xx_HAL_Driver/Src/stm32l0xx_hal_dma.c ****   * @brief   DMA HAL module driver.
   6:Drivers/STM32L0xx_HAL_Driver/Src/stm32l0xx_hal_dma.c ****   *         This file provides firmware functions to manage the following
   7:Drivers/STM32L0xx_HAL_Driver/Src/stm32l0xx_hal_dma.c ****   *         functionalities of the Direct Memory Access (DMA) peripheral:
   8:Drivers/STM32L0xx_HAL_Driver/Src/stm32l0xx_hal_dma.c ****   *           + Initialization and de-initialization functions
   9:Drivers/STM32L0xx_HAL_Driver/Src/stm32l0xx_hal_dma.c ****   *           + IO operation functions
  10:Drivers/STM32L0xx_HAL_Driver/Src/stm32l0xx_hal_dma.c ****   *           + Peripheral State and errors functions
  11:Drivers/STM32L0xx_HAL_Driver/Src/stm32l0xx_hal_dma.c ****   *
  12:Drivers/STM32L0xx_HAL_Driver/Src/stm32l0xx_hal_dma.c ****   ******************************************************************************
  13:Drivers/STM32L0xx_HAL_Driver/Src/stm32l0xx_hal_dma.c ****   * @attention
  14:Drivers/STM32L0xx_HAL_Driver/Src/stm32l0xx_hal_dma.c ****   *
  15:Drivers/STM32L0xx_HAL_Driver/Src/stm32l0xx_hal_dma.c ****   * Copyright (c) 2016 STMicroelectronics.
  16:Drivers/STM32L0xx_HAL_Driver/Src/stm32l0xx_hal_dma.c ****   * All rights reserved.
  17:Drivers/STM32L0xx_HAL_Driver/Src/stm32l0xx_hal_dma.c ****   *
  18:Drivers/STM32L0xx_HAL_Driver/Src/stm32l0xx_hal_dma.c ****   * This software is licensed under terms that can be found in the LICENSE file
  19:Drivers/STM32L0xx_HAL_Driver/Src/stm32l0xx_hal_dma.c ****   * in the root directory of this software component.
  20:Drivers/STM32L0xx_HAL_Driver/Src/stm32l0xx_hal_dma.c ****   * If no LICENSE file comes with this software, it is provided AS-IS.
  21:Drivers/STM32L0xx_HAL_Driver/Src/stm32l0xx_hal_dma.c ****   *
  22:Drivers/STM32L0xx_HAL_Driver/Src/stm32l0xx_hal_dma.c ****   ******************************************************************************
  23:Drivers/STM32L0xx_HAL_Driver/Src/stm32l0xx_hal_dma.c ****   @verbatim
  24:Drivers/STM32L0xx_HAL_Driver/Src/stm32l0xx_hal_dma.c ****   ==============================================================================
  25:Drivers/STM32L0xx_HAL_Driver/Src/stm32l0xx_hal_dma.c ****                         ##### How to use this driver #####
  26:Drivers/STM32L0xx_HAL_Driver/Src/stm32l0xx_hal_dma.c ****   ==============================================================================
  27:Drivers/STM32L0xx_HAL_Driver/Src/stm32l0xx_hal_dma.c ****   [..]
  28:Drivers/STM32L0xx_HAL_Driver/Src/stm32l0xx_hal_dma.c ****    (#) Enable and configure the peripheral to be connected to the DMA Channel
  29:Drivers/STM32L0xx_HAL_Driver/Src/stm32l0xx_hal_dma.c ****        (except for internal SRAM / FLASH memories: no initialization is
  30:Drivers/STM32L0xx_HAL_Driver/Src/stm32l0xx_hal_dma.c ****        necessary).
  31:Drivers/STM32L0xx_HAL_Driver/Src/stm32l0xx_hal_dma.c **** 
  32:Drivers/STM32L0xx_HAL_Driver/Src/stm32l0xx_hal_dma.c ****    (#) For a given Channel, program the required configuration through the following parameters:
ARM GAS  /tmp/ccjzcf4U.s 			page 2


  33:Drivers/STM32L0xx_HAL_Driver/Src/stm32l0xx_hal_dma.c ****        Channel request, Transfer Direction, Source and Destination data formats,
  34:Drivers/STM32L0xx_HAL_Driver/Src/stm32l0xx_hal_dma.c ****        Circular or Normal mode, Channel Priority level, Source and Destination Increment mode
  35:Drivers/STM32L0xx_HAL_Driver/Src/stm32l0xx_hal_dma.c ****        using HAL_DMA_Init() function.
  36:Drivers/STM32L0xx_HAL_Driver/Src/stm32l0xx_hal_dma.c **** 
  37:Drivers/STM32L0xx_HAL_Driver/Src/stm32l0xx_hal_dma.c ****    (#) Use HAL_DMA_GetState() function to return the DMA state and HAL_DMA_GetError() in case of er
  38:Drivers/STM32L0xx_HAL_Driver/Src/stm32l0xx_hal_dma.c ****        detection.
  39:Drivers/STM32L0xx_HAL_Driver/Src/stm32l0xx_hal_dma.c **** 
  40:Drivers/STM32L0xx_HAL_Driver/Src/stm32l0xx_hal_dma.c ****    (#) Use HAL_DMA_Abort() function to abort the current transfer
  41:Drivers/STM32L0xx_HAL_Driver/Src/stm32l0xx_hal_dma.c **** 
  42:Drivers/STM32L0xx_HAL_Driver/Src/stm32l0xx_hal_dma.c ****      -@-   In Memory-to-Memory transfer mode, Circular mode is not allowed.
  43:Drivers/STM32L0xx_HAL_Driver/Src/stm32l0xx_hal_dma.c **** 
  44:Drivers/STM32L0xx_HAL_Driver/Src/stm32l0xx_hal_dma.c ****      *** Polling mode IO operation ***
  45:Drivers/STM32L0xx_HAL_Driver/Src/stm32l0xx_hal_dma.c ****      =================================
  46:Drivers/STM32L0xx_HAL_Driver/Src/stm32l0xx_hal_dma.c ****     [..]
  47:Drivers/STM32L0xx_HAL_Driver/Src/stm32l0xx_hal_dma.c ****           (+) Use HAL_DMA_Start() to start DMA transfer after the configuration of Source
  48:Drivers/STM32L0xx_HAL_Driver/Src/stm32l0xx_hal_dma.c ****               address and destination address and the Length of data to be transferred
  49:Drivers/STM32L0xx_HAL_Driver/Src/stm32l0xx_hal_dma.c ****           (+) Use HAL_DMA_PollForTransfer() to poll for the end of current transfer, in this
  50:Drivers/STM32L0xx_HAL_Driver/Src/stm32l0xx_hal_dma.c ****               case a fixed Timeout can be configured by User depending from his application.
  51:Drivers/STM32L0xx_HAL_Driver/Src/stm32l0xx_hal_dma.c **** 
  52:Drivers/STM32L0xx_HAL_Driver/Src/stm32l0xx_hal_dma.c ****      *** Interrupt mode IO operation ***
  53:Drivers/STM32L0xx_HAL_Driver/Src/stm32l0xx_hal_dma.c ****      ===================================
  54:Drivers/STM32L0xx_HAL_Driver/Src/stm32l0xx_hal_dma.c ****     [..]
  55:Drivers/STM32L0xx_HAL_Driver/Src/stm32l0xx_hal_dma.c ****           (+) Configure the DMA interrupt priority using HAL_NVIC_SetPriority()
  56:Drivers/STM32L0xx_HAL_Driver/Src/stm32l0xx_hal_dma.c ****           (+) Enable the DMA IRQ handler using HAL_NVIC_EnableIRQ()
  57:Drivers/STM32L0xx_HAL_Driver/Src/stm32l0xx_hal_dma.c ****           (+) Use HAL_DMA_Start_IT() to start DMA transfer after the configuration of
  58:Drivers/STM32L0xx_HAL_Driver/Src/stm32l0xx_hal_dma.c ****               Source address and destination address and the Length of data to be transferred.
  59:Drivers/STM32L0xx_HAL_Driver/Src/stm32l0xx_hal_dma.c ****               In this case the DMA interrupt is configured
  60:Drivers/STM32L0xx_HAL_Driver/Src/stm32l0xx_hal_dma.c ****           (+) Use HAL_DMA_IRQHandler() called under DMA_IRQHandler() Interrupt subroutine
  61:Drivers/STM32L0xx_HAL_Driver/Src/stm32l0xx_hal_dma.c ****           (+) At the end of data transfer HAL_DMA_IRQHandler() function is executed and user can
  62:Drivers/STM32L0xx_HAL_Driver/Src/stm32l0xx_hal_dma.c ****               add his own function to register callbacks with HAL_DMA_RegisterCallback().
  63:Drivers/STM32L0xx_HAL_Driver/Src/stm32l0xx_hal_dma.c **** 
  64:Drivers/STM32L0xx_HAL_Driver/Src/stm32l0xx_hal_dma.c ****      *** DMA HAL driver macros list ***
  65:Drivers/STM32L0xx_HAL_Driver/Src/stm32l0xx_hal_dma.c ****      =============================================
  66:Drivers/STM32L0xx_HAL_Driver/Src/stm32l0xx_hal_dma.c ****       [..]
  67:Drivers/STM32L0xx_HAL_Driver/Src/stm32l0xx_hal_dma.c ****        Below the list of macros in DMA HAL driver.
  68:Drivers/STM32L0xx_HAL_Driver/Src/stm32l0xx_hal_dma.c **** 
  69:Drivers/STM32L0xx_HAL_Driver/Src/stm32l0xx_hal_dma.c ****        (+) __HAL_DMA_ENABLE: Enable the specified DMA Channel.
  70:Drivers/STM32L0xx_HAL_Driver/Src/stm32l0xx_hal_dma.c ****        (+) __HAL_DMA_DISABLE: Disable the specified DMA Channel.
  71:Drivers/STM32L0xx_HAL_Driver/Src/stm32l0xx_hal_dma.c ****        (+) __HAL_DMA_GET_FLAG: Get the DMA Channel pending flags.
  72:Drivers/STM32L0xx_HAL_Driver/Src/stm32l0xx_hal_dma.c ****        (+) __HAL_DMA_CLEAR_FLAG: Clear the DMA Channel pending flags.
  73:Drivers/STM32L0xx_HAL_Driver/Src/stm32l0xx_hal_dma.c ****        (+) __HAL_DMA_ENABLE_IT: Enable the specified DMA Channel interrupts.
  74:Drivers/STM32L0xx_HAL_Driver/Src/stm32l0xx_hal_dma.c ****        (+) __HAL_DMA_DISABLE_IT: Disable the specified DMA Channel interrupts.
  75:Drivers/STM32L0xx_HAL_Driver/Src/stm32l0xx_hal_dma.c ****        (+) __HAL_DMA_GET_IT_SOURCE: Check whether the specified DMA Channel interrupt has occurred 
  76:Drivers/STM32L0xx_HAL_Driver/Src/stm32l0xx_hal_dma.c **** 
  77:Drivers/STM32L0xx_HAL_Driver/Src/stm32l0xx_hal_dma.c ****      [..]
  78:Drivers/STM32L0xx_HAL_Driver/Src/stm32l0xx_hal_dma.c ****       (@) You can refer to the DMA HAL driver header file for more useful macros
  79:Drivers/STM32L0xx_HAL_Driver/Src/stm32l0xx_hal_dma.c **** 
  80:Drivers/STM32L0xx_HAL_Driver/Src/stm32l0xx_hal_dma.c ****   @endverbatim
  81:Drivers/STM32L0xx_HAL_Driver/Src/stm32l0xx_hal_dma.c ****   ******************************************************************************
  82:Drivers/STM32L0xx_HAL_Driver/Src/stm32l0xx_hal_dma.c ****   */
  83:Drivers/STM32L0xx_HAL_Driver/Src/stm32l0xx_hal_dma.c **** 
  84:Drivers/STM32L0xx_HAL_Driver/Src/stm32l0xx_hal_dma.c **** /* Includes ------------------------------------------------------------------*/
  85:Drivers/STM32L0xx_HAL_Driver/Src/stm32l0xx_hal_dma.c **** #include "stm32l0xx_hal.h"
  86:Drivers/STM32L0xx_HAL_Driver/Src/stm32l0xx_hal_dma.c **** 
  87:Drivers/STM32L0xx_HAL_Driver/Src/stm32l0xx_hal_dma.c **** /** @addtogroup STM32L0xx_HAL_Driver
  88:Drivers/STM32L0xx_HAL_Driver/Src/stm32l0xx_hal_dma.c ****   * @{
  89:Drivers/STM32L0xx_HAL_Driver/Src/stm32l0xx_hal_dma.c ****   */
ARM GAS  /tmp/ccjzcf4U.s 			page 3


  90:Drivers/STM32L0xx_HAL_Driver/Src/stm32l0xx_hal_dma.c **** 
  91:Drivers/STM32L0xx_HAL_Driver/Src/stm32l0xx_hal_dma.c **** /** @defgroup DMA DMA
  92:Drivers/STM32L0xx_HAL_Driver/Src/stm32l0xx_hal_dma.c ****   * @brief DMA HAL module driver
  93:Drivers/STM32L0xx_HAL_Driver/Src/stm32l0xx_hal_dma.c ****   * @{
  94:Drivers/STM32L0xx_HAL_Driver/Src/stm32l0xx_hal_dma.c ****   */
  95:Drivers/STM32L0xx_HAL_Driver/Src/stm32l0xx_hal_dma.c **** 
  96:Drivers/STM32L0xx_HAL_Driver/Src/stm32l0xx_hal_dma.c **** #ifdef HAL_DMA_MODULE_ENABLED
  97:Drivers/STM32L0xx_HAL_Driver/Src/stm32l0xx_hal_dma.c **** 
  98:Drivers/STM32L0xx_HAL_Driver/Src/stm32l0xx_hal_dma.c **** /* Private typedef -----------------------------------------------------------*/
  99:Drivers/STM32L0xx_HAL_Driver/Src/stm32l0xx_hal_dma.c **** /** @defgroup DMA_Private_Functions DMA Private Functions
 100:Drivers/STM32L0xx_HAL_Driver/Src/stm32l0xx_hal_dma.c ****   * @{
 101:Drivers/STM32L0xx_HAL_Driver/Src/stm32l0xx_hal_dma.c ****   */
 102:Drivers/STM32L0xx_HAL_Driver/Src/stm32l0xx_hal_dma.c **** 
 103:Drivers/STM32L0xx_HAL_Driver/Src/stm32l0xx_hal_dma.c **** static void DMA_SetConfig(DMA_HandleTypeDef *hdma, uint32_t SrcAddress, uint32_t DstAddress, uint32
 104:Drivers/STM32L0xx_HAL_Driver/Src/stm32l0xx_hal_dma.c **** /**
 105:Drivers/STM32L0xx_HAL_Driver/Src/stm32l0xx_hal_dma.c ****   * @}
 106:Drivers/STM32L0xx_HAL_Driver/Src/stm32l0xx_hal_dma.c ****   */
 107:Drivers/STM32L0xx_HAL_Driver/Src/stm32l0xx_hal_dma.c **** 
 108:Drivers/STM32L0xx_HAL_Driver/Src/stm32l0xx_hal_dma.c **** /* Exported functions ---------------------------------------------------------*/
 109:Drivers/STM32L0xx_HAL_Driver/Src/stm32l0xx_hal_dma.c **** 
 110:Drivers/STM32L0xx_HAL_Driver/Src/stm32l0xx_hal_dma.c **** /** @defgroup DMA_Exported_Functions DMA Exported Functions
 111:Drivers/STM32L0xx_HAL_Driver/Src/stm32l0xx_hal_dma.c ****   * @{
 112:Drivers/STM32L0xx_HAL_Driver/Src/stm32l0xx_hal_dma.c ****   */
 113:Drivers/STM32L0xx_HAL_Driver/Src/stm32l0xx_hal_dma.c **** 
 114:Drivers/STM32L0xx_HAL_Driver/Src/stm32l0xx_hal_dma.c **** /** @defgroup DMA_Exported_Functions_Group1 Initialization and de-initialization functions
 115:Drivers/STM32L0xx_HAL_Driver/Src/stm32l0xx_hal_dma.c ****  *  @brief   Initialization and de-initialization functions
 116:Drivers/STM32L0xx_HAL_Driver/Src/stm32l0xx_hal_dma.c ****  *
 117:Drivers/STM32L0xx_HAL_Driver/Src/stm32l0xx_hal_dma.c **** @verbatim
 118:Drivers/STM32L0xx_HAL_Driver/Src/stm32l0xx_hal_dma.c ****  ===============================================================================
 119:Drivers/STM32L0xx_HAL_Driver/Src/stm32l0xx_hal_dma.c ****              ##### Initialization and de-initialization functions  #####
 120:Drivers/STM32L0xx_HAL_Driver/Src/stm32l0xx_hal_dma.c ****  ===============================================================================
 121:Drivers/STM32L0xx_HAL_Driver/Src/stm32l0xx_hal_dma.c ****     [..]
 122:Drivers/STM32L0xx_HAL_Driver/Src/stm32l0xx_hal_dma.c ****     This section provides functions allowing to initialize the DMA Channel source
 123:Drivers/STM32L0xx_HAL_Driver/Src/stm32l0xx_hal_dma.c ****     and destination addresses, incrementation and data sizes, transfer direction,
 124:Drivers/STM32L0xx_HAL_Driver/Src/stm32l0xx_hal_dma.c ****     circular/normal mode selection, memory-to-memory mode selection and Channel priority value.
 125:Drivers/STM32L0xx_HAL_Driver/Src/stm32l0xx_hal_dma.c ****     [..]
 126:Drivers/STM32L0xx_HAL_Driver/Src/stm32l0xx_hal_dma.c ****     The HAL_DMA_Init() function follows the DMA configuration procedures as described in
 127:Drivers/STM32L0xx_HAL_Driver/Src/stm32l0xx_hal_dma.c ****     reference manual.
 128:Drivers/STM32L0xx_HAL_Driver/Src/stm32l0xx_hal_dma.c **** 
 129:Drivers/STM32L0xx_HAL_Driver/Src/stm32l0xx_hal_dma.c **** @endverbatim
 130:Drivers/STM32L0xx_HAL_Driver/Src/stm32l0xx_hal_dma.c ****   * @{
 131:Drivers/STM32L0xx_HAL_Driver/Src/stm32l0xx_hal_dma.c ****   */
 132:Drivers/STM32L0xx_HAL_Driver/Src/stm32l0xx_hal_dma.c **** 
 133:Drivers/STM32L0xx_HAL_Driver/Src/stm32l0xx_hal_dma.c **** /**
 134:Drivers/STM32L0xx_HAL_Driver/Src/stm32l0xx_hal_dma.c ****   * @brief  Initialize the DMA according to the specified
 135:Drivers/STM32L0xx_HAL_Driver/Src/stm32l0xx_hal_dma.c ****   *         parameters in the DMA_InitTypeDef and initialize the associated handle.
 136:Drivers/STM32L0xx_HAL_Driver/Src/stm32l0xx_hal_dma.c ****   * @param  hdma Pointer to a DMA_HandleTypeDef structure that contains
 137:Drivers/STM32L0xx_HAL_Driver/Src/stm32l0xx_hal_dma.c ****   *               the configuration information for the specified DMA Channel.
 138:Drivers/STM32L0xx_HAL_Driver/Src/stm32l0xx_hal_dma.c ****   * @retval HAL status
 139:Drivers/STM32L0xx_HAL_Driver/Src/stm32l0xx_hal_dma.c ****   */
 140:Drivers/STM32L0xx_HAL_Driver/Src/stm32l0xx_hal_dma.c **** HAL_StatusTypeDef HAL_DMA_Init(DMA_HandleTypeDef *hdma)
 141:Drivers/STM32L0xx_HAL_Driver/Src/stm32l0xx_hal_dma.c **** {
 142:Drivers/STM32L0xx_HAL_Driver/Src/stm32l0xx_hal_dma.c ****   uint32_t tmp;
 143:Drivers/STM32L0xx_HAL_Driver/Src/stm32l0xx_hal_dma.c **** 
 144:Drivers/STM32L0xx_HAL_Driver/Src/stm32l0xx_hal_dma.c ****   /* Check the DMA handle allocation */
 145:Drivers/STM32L0xx_HAL_Driver/Src/stm32l0xx_hal_dma.c ****   if(hdma == NULL)
 146:Drivers/STM32L0xx_HAL_Driver/Src/stm32l0xx_hal_dma.c ****   {
ARM GAS  /tmp/ccjzcf4U.s 			page 4


 147:Drivers/STM32L0xx_HAL_Driver/Src/stm32l0xx_hal_dma.c ****     return HAL_ERROR;
 148:Drivers/STM32L0xx_HAL_Driver/Src/stm32l0xx_hal_dma.c ****   }
 149:Drivers/STM32L0xx_HAL_Driver/Src/stm32l0xx_hal_dma.c **** 
 150:Drivers/STM32L0xx_HAL_Driver/Src/stm32l0xx_hal_dma.c ****   /* Check the parameters */
 151:Drivers/STM32L0xx_HAL_Driver/Src/stm32l0xx_hal_dma.c ****   assert_param(IS_DMA_ALL_INSTANCE(hdma->Instance));
 152:Drivers/STM32L0xx_HAL_Driver/Src/stm32l0xx_hal_dma.c ****   assert_param(IS_DMA_ALL_REQUEST(hdma->Init.Request));
 153:Drivers/STM32L0xx_HAL_Driver/Src/stm32l0xx_hal_dma.c ****   assert_param(IS_DMA_DIRECTION(hdma->Init.Direction));
 154:Drivers/STM32L0xx_HAL_Driver/Src/stm32l0xx_hal_dma.c ****   assert_param(IS_DMA_PERIPHERAL_INC_STATE(hdma->Init.PeriphInc));
 155:Drivers/STM32L0xx_HAL_Driver/Src/stm32l0xx_hal_dma.c ****   assert_param(IS_DMA_MEMORY_INC_STATE(hdma->Init.MemInc));
 156:Drivers/STM32L0xx_HAL_Driver/Src/stm32l0xx_hal_dma.c ****   assert_param(IS_DMA_PERIPHERAL_DATA_SIZE(hdma->Init.PeriphDataAlignment));
 157:Drivers/STM32L0xx_HAL_Driver/Src/stm32l0xx_hal_dma.c ****   assert_param(IS_DMA_MEMORY_DATA_SIZE(hdma->Init.MemDataAlignment));
 158:Drivers/STM32L0xx_HAL_Driver/Src/stm32l0xx_hal_dma.c ****   assert_param(IS_DMA_MODE(hdma->Init.Mode));
 159:Drivers/STM32L0xx_HAL_Driver/Src/stm32l0xx_hal_dma.c ****   assert_param(IS_DMA_PRIORITY(hdma->Init.Priority));
 160:Drivers/STM32L0xx_HAL_Driver/Src/stm32l0xx_hal_dma.c **** 
 161:Drivers/STM32L0xx_HAL_Driver/Src/stm32l0xx_hal_dma.c ****   /* Compute the channel index */
 162:Drivers/STM32L0xx_HAL_Driver/Src/stm32l0xx_hal_dma.c ****   /* Only one DMA: DMA1 */
 163:Drivers/STM32L0xx_HAL_Driver/Src/stm32l0xx_hal_dma.c ****   hdma->ChannelIndex = (((uint32_t)hdma->Instance - (uint32_t)DMA1_Channel1) / ((uint32_t)DMA1_Chan
 164:Drivers/STM32L0xx_HAL_Driver/Src/stm32l0xx_hal_dma.c ****   hdma->DmaBaseAddress = DMA1;
 165:Drivers/STM32L0xx_HAL_Driver/Src/stm32l0xx_hal_dma.c **** 
 166:Drivers/STM32L0xx_HAL_Driver/Src/stm32l0xx_hal_dma.c ****   /* Change DMA peripheral state */
 167:Drivers/STM32L0xx_HAL_Driver/Src/stm32l0xx_hal_dma.c ****   hdma->State = HAL_DMA_STATE_BUSY;
 168:Drivers/STM32L0xx_HAL_Driver/Src/stm32l0xx_hal_dma.c **** 
 169:Drivers/STM32L0xx_HAL_Driver/Src/stm32l0xx_hal_dma.c ****   /* Get the CR register value */
 170:Drivers/STM32L0xx_HAL_Driver/Src/stm32l0xx_hal_dma.c ****   tmp = hdma->Instance->CCR;
 171:Drivers/STM32L0xx_HAL_Driver/Src/stm32l0xx_hal_dma.c **** 
 172:Drivers/STM32L0xx_HAL_Driver/Src/stm32l0xx_hal_dma.c ****   /* Clear PL, MSIZE, PSIZE, MINC, PINC, CIRC, DIR and MEM2MEM bits */
 173:Drivers/STM32L0xx_HAL_Driver/Src/stm32l0xx_hal_dma.c ****   tmp &= ((uint32_t)~(DMA_CCR_PL    | DMA_CCR_MSIZE  | DMA_CCR_PSIZE  |
 174:Drivers/STM32L0xx_HAL_Driver/Src/stm32l0xx_hal_dma.c ****                       DMA_CCR_MINC  | DMA_CCR_PINC   | DMA_CCR_CIRC   |
 175:Drivers/STM32L0xx_HAL_Driver/Src/stm32l0xx_hal_dma.c ****                       DMA_CCR_DIR   | DMA_CCR_MEM2MEM));
 176:Drivers/STM32L0xx_HAL_Driver/Src/stm32l0xx_hal_dma.c **** 
 177:Drivers/STM32L0xx_HAL_Driver/Src/stm32l0xx_hal_dma.c ****   /* Prepare the DMA Channel configuration */
 178:Drivers/STM32L0xx_HAL_Driver/Src/stm32l0xx_hal_dma.c ****   tmp |=  hdma->Init.Direction        |
 179:Drivers/STM32L0xx_HAL_Driver/Src/stm32l0xx_hal_dma.c ****           hdma->Init.PeriphInc           | hdma->Init.MemInc           |
 180:Drivers/STM32L0xx_HAL_Driver/Src/stm32l0xx_hal_dma.c ****           hdma->Init.PeriphDataAlignment | hdma->Init.MemDataAlignment |
 181:Drivers/STM32L0xx_HAL_Driver/Src/stm32l0xx_hal_dma.c ****           hdma->Init.Mode                | hdma->Init.Priority;
 182:Drivers/STM32L0xx_HAL_Driver/Src/stm32l0xx_hal_dma.c **** 
 183:Drivers/STM32L0xx_HAL_Driver/Src/stm32l0xx_hal_dma.c ****   /* Write to DMA Channel CR register */
 184:Drivers/STM32L0xx_HAL_Driver/Src/stm32l0xx_hal_dma.c ****   hdma->Instance->CCR = tmp;
 185:Drivers/STM32L0xx_HAL_Driver/Src/stm32l0xx_hal_dma.c **** 
 186:Drivers/STM32L0xx_HAL_Driver/Src/stm32l0xx_hal_dma.c ****   /* Set request selection */
 187:Drivers/STM32L0xx_HAL_Driver/Src/stm32l0xx_hal_dma.c ****   if(hdma->Init.Direction != DMA_MEMORY_TO_MEMORY)
 188:Drivers/STM32L0xx_HAL_Driver/Src/stm32l0xx_hal_dma.c ****   {
 189:Drivers/STM32L0xx_HAL_Driver/Src/stm32l0xx_hal_dma.c ****     /* Write to DMA channel selection register */
 190:Drivers/STM32L0xx_HAL_Driver/Src/stm32l0xx_hal_dma.c ****     /* Reset request selection for DMA1 Channelx */
 191:Drivers/STM32L0xx_HAL_Driver/Src/stm32l0xx_hal_dma.c ****     DMA1_CSELR->CSELR &= ~(DMA_CSELR_C1S << (hdma->ChannelIndex & 0x1cU));
 192:Drivers/STM32L0xx_HAL_Driver/Src/stm32l0xx_hal_dma.c **** 
 193:Drivers/STM32L0xx_HAL_Driver/Src/stm32l0xx_hal_dma.c ****     /* Configure request selection for DMA1 Channelx */
 194:Drivers/STM32L0xx_HAL_Driver/Src/stm32l0xx_hal_dma.c ****     DMA1_CSELR->CSELR |= (uint32_t) (hdma->Init.Request << (hdma->ChannelIndex & 0x1cU));
 195:Drivers/STM32L0xx_HAL_Driver/Src/stm32l0xx_hal_dma.c ****   }
 196:Drivers/STM32L0xx_HAL_Driver/Src/stm32l0xx_hal_dma.c **** 
 197:Drivers/STM32L0xx_HAL_Driver/Src/stm32l0xx_hal_dma.c ****   /* Initialise the error code */
 198:Drivers/STM32L0xx_HAL_Driver/Src/stm32l0xx_hal_dma.c ****   hdma->ErrorCode = HAL_DMA_ERROR_NONE;
 199:Drivers/STM32L0xx_HAL_Driver/Src/stm32l0xx_hal_dma.c **** 
 200:Drivers/STM32L0xx_HAL_Driver/Src/stm32l0xx_hal_dma.c ****   /* Initialize the DMA state*/
 201:Drivers/STM32L0xx_HAL_Driver/Src/stm32l0xx_hal_dma.c ****   hdma->State  = HAL_DMA_STATE_READY;
 202:Drivers/STM32L0xx_HAL_Driver/Src/stm32l0xx_hal_dma.c **** 
 203:Drivers/STM32L0xx_HAL_Driver/Src/stm32l0xx_hal_dma.c ****   /* Allocate lock resource and initialize it */
ARM GAS  /tmp/ccjzcf4U.s 			page 5


 204:Drivers/STM32L0xx_HAL_Driver/Src/stm32l0xx_hal_dma.c ****   hdma->Lock = HAL_UNLOCKED;
 205:Drivers/STM32L0xx_HAL_Driver/Src/stm32l0xx_hal_dma.c **** 
 206:Drivers/STM32L0xx_HAL_Driver/Src/stm32l0xx_hal_dma.c ****   return HAL_OK;
 207:Drivers/STM32L0xx_HAL_Driver/Src/stm32l0xx_hal_dma.c **** }
 208:Drivers/STM32L0xx_HAL_Driver/Src/stm32l0xx_hal_dma.c **** 
 209:Drivers/STM32L0xx_HAL_Driver/Src/stm32l0xx_hal_dma.c **** /**
 210:Drivers/STM32L0xx_HAL_Driver/Src/stm32l0xx_hal_dma.c ****   * @brief  DeInitialize the DMA peripheral.
 211:Drivers/STM32L0xx_HAL_Driver/Src/stm32l0xx_hal_dma.c ****   * @param  hdma pointer to a DMA_HandleTypeDef structure that contains
 212:Drivers/STM32L0xx_HAL_Driver/Src/stm32l0xx_hal_dma.c ****   *               the configuration information for the specified DMA Channel.
 213:Drivers/STM32L0xx_HAL_Driver/Src/stm32l0xx_hal_dma.c ****   * @retval HAL status
 214:Drivers/STM32L0xx_HAL_Driver/Src/stm32l0xx_hal_dma.c ****   */
 215:Drivers/STM32L0xx_HAL_Driver/Src/stm32l0xx_hal_dma.c **** HAL_StatusTypeDef HAL_DMA_DeInit(DMA_HandleTypeDef *hdma)
 216:Drivers/STM32L0xx_HAL_Driver/Src/stm32l0xx_hal_dma.c **** {
 217:Drivers/STM32L0xx_HAL_Driver/Src/stm32l0xx_hal_dma.c **** 
 218:Drivers/STM32L0xx_HAL_Driver/Src/stm32l0xx_hal_dma.c ****   /* Check the DMA handle allocation */
 219:Drivers/STM32L0xx_HAL_Driver/Src/stm32l0xx_hal_dma.c ****   if (NULL == hdma )
 220:Drivers/STM32L0xx_HAL_Driver/Src/stm32l0xx_hal_dma.c ****   {
 221:Drivers/STM32L0xx_HAL_Driver/Src/stm32l0xx_hal_dma.c ****     return HAL_ERROR;
 222:Drivers/STM32L0xx_HAL_Driver/Src/stm32l0xx_hal_dma.c ****   }
 223:Drivers/STM32L0xx_HAL_Driver/Src/stm32l0xx_hal_dma.c **** 
 224:Drivers/STM32L0xx_HAL_Driver/Src/stm32l0xx_hal_dma.c ****   /* Check the parameters */
 225:Drivers/STM32L0xx_HAL_Driver/Src/stm32l0xx_hal_dma.c ****   assert_param(IS_DMA_ALL_INSTANCE(hdma->Instance));
 226:Drivers/STM32L0xx_HAL_Driver/Src/stm32l0xx_hal_dma.c **** 
 227:Drivers/STM32L0xx_HAL_Driver/Src/stm32l0xx_hal_dma.c ****   /* Disable the selected DMA Channelx */
 228:Drivers/STM32L0xx_HAL_Driver/Src/stm32l0xx_hal_dma.c ****   __HAL_DMA_DISABLE(hdma);
 229:Drivers/STM32L0xx_HAL_Driver/Src/stm32l0xx_hal_dma.c **** 
 230:Drivers/STM32L0xx_HAL_Driver/Src/stm32l0xx_hal_dma.c ****   /* Compute the channel index */
 231:Drivers/STM32L0xx_HAL_Driver/Src/stm32l0xx_hal_dma.c ****   /* DMA1 */
 232:Drivers/STM32L0xx_HAL_Driver/Src/stm32l0xx_hal_dma.c ****   hdma->ChannelIndex = (((uint32_t)hdma->Instance - (uint32_t)DMA1_Channel1) / ((uint32_t)DMA1_Chan
 233:Drivers/STM32L0xx_HAL_Driver/Src/stm32l0xx_hal_dma.c ****   hdma->DmaBaseAddress = DMA1;
 234:Drivers/STM32L0xx_HAL_Driver/Src/stm32l0xx_hal_dma.c **** 
 235:Drivers/STM32L0xx_HAL_Driver/Src/stm32l0xx_hal_dma.c ****   /* Reset DMA Channel control register */
 236:Drivers/STM32L0xx_HAL_Driver/Src/stm32l0xx_hal_dma.c ****   hdma->Instance->CCR  = 0U;
 237:Drivers/STM32L0xx_HAL_Driver/Src/stm32l0xx_hal_dma.c **** 
 238:Drivers/STM32L0xx_HAL_Driver/Src/stm32l0xx_hal_dma.c ****   /* Clear all flags */
 239:Drivers/STM32L0xx_HAL_Driver/Src/stm32l0xx_hal_dma.c ****   hdma->DmaBaseAddress->IFCR = (DMA_ISR_GIF1 << (hdma->ChannelIndex & 0x1cU));
 240:Drivers/STM32L0xx_HAL_Driver/Src/stm32l0xx_hal_dma.c **** 
 241:Drivers/STM32L0xx_HAL_Driver/Src/stm32l0xx_hal_dma.c ****   /* Reset DMA channel selection register */
 242:Drivers/STM32L0xx_HAL_Driver/Src/stm32l0xx_hal_dma.c ****   /* DMA1 */
 243:Drivers/STM32L0xx_HAL_Driver/Src/stm32l0xx_hal_dma.c ****   DMA1_CSELR->CSELR &= ~(DMA_CSELR_C1S << (hdma->ChannelIndex & 0x1cU));
 244:Drivers/STM32L0xx_HAL_Driver/Src/stm32l0xx_hal_dma.c **** 
 245:Drivers/STM32L0xx_HAL_Driver/Src/stm32l0xx_hal_dma.c ****   /* Clean callbacks */
 246:Drivers/STM32L0xx_HAL_Driver/Src/stm32l0xx_hal_dma.c ****   hdma->XferCpltCallback = NULL;
 247:Drivers/STM32L0xx_HAL_Driver/Src/stm32l0xx_hal_dma.c ****   hdma->XferHalfCpltCallback = NULL;
 248:Drivers/STM32L0xx_HAL_Driver/Src/stm32l0xx_hal_dma.c ****   hdma->XferErrorCallback = NULL;
 249:Drivers/STM32L0xx_HAL_Driver/Src/stm32l0xx_hal_dma.c ****   hdma->XferAbortCallback = NULL;
 250:Drivers/STM32L0xx_HAL_Driver/Src/stm32l0xx_hal_dma.c **** 
 251:Drivers/STM32L0xx_HAL_Driver/Src/stm32l0xx_hal_dma.c ****   /* Initialise the error code */
 252:Drivers/STM32L0xx_HAL_Driver/Src/stm32l0xx_hal_dma.c ****   hdma->ErrorCode = HAL_DMA_ERROR_NONE;
 253:Drivers/STM32L0xx_HAL_Driver/Src/stm32l0xx_hal_dma.c **** 
 254:Drivers/STM32L0xx_HAL_Driver/Src/stm32l0xx_hal_dma.c ****   /* Initialize the DMA state */
 255:Drivers/STM32L0xx_HAL_Driver/Src/stm32l0xx_hal_dma.c ****   hdma->State = HAL_DMA_STATE_RESET;
 256:Drivers/STM32L0xx_HAL_Driver/Src/stm32l0xx_hal_dma.c **** 
 257:Drivers/STM32L0xx_HAL_Driver/Src/stm32l0xx_hal_dma.c ****   /* Release Lock */
 258:Drivers/STM32L0xx_HAL_Driver/Src/stm32l0xx_hal_dma.c ****   __HAL_UNLOCK(hdma);
 259:Drivers/STM32L0xx_HAL_Driver/Src/stm32l0xx_hal_dma.c **** 
 260:Drivers/STM32L0xx_HAL_Driver/Src/stm32l0xx_hal_dma.c ****   return HAL_OK;
ARM GAS  /tmp/ccjzcf4U.s 			page 6


 261:Drivers/STM32L0xx_HAL_Driver/Src/stm32l0xx_hal_dma.c **** }
 262:Drivers/STM32L0xx_HAL_Driver/Src/stm32l0xx_hal_dma.c **** 
 263:Drivers/STM32L0xx_HAL_Driver/Src/stm32l0xx_hal_dma.c **** /**
 264:Drivers/STM32L0xx_HAL_Driver/Src/stm32l0xx_hal_dma.c ****   * @}
 265:Drivers/STM32L0xx_HAL_Driver/Src/stm32l0xx_hal_dma.c ****   */
 266:Drivers/STM32L0xx_HAL_Driver/Src/stm32l0xx_hal_dma.c **** 
 267:Drivers/STM32L0xx_HAL_Driver/Src/stm32l0xx_hal_dma.c **** /** @defgroup DMA_Exported_Functions_Group2 Input and Output operation functions
 268:Drivers/STM32L0xx_HAL_Driver/Src/stm32l0xx_hal_dma.c ****  *  @brief   Input and Output operation functions
 269:Drivers/STM32L0xx_HAL_Driver/Src/stm32l0xx_hal_dma.c ****  *
 270:Drivers/STM32L0xx_HAL_Driver/Src/stm32l0xx_hal_dma.c **** @verbatim
 271:Drivers/STM32L0xx_HAL_Driver/Src/stm32l0xx_hal_dma.c ****  ===============================================================================
 272:Drivers/STM32L0xx_HAL_Driver/Src/stm32l0xx_hal_dma.c ****                       #####  IO operation functions  #####
 273:Drivers/STM32L0xx_HAL_Driver/Src/stm32l0xx_hal_dma.c ****  ===============================================================================
 274:Drivers/STM32L0xx_HAL_Driver/Src/stm32l0xx_hal_dma.c ****     [..]  This section provides functions allowing to:
 275:Drivers/STM32L0xx_HAL_Driver/Src/stm32l0xx_hal_dma.c ****       (+) Configure the source, destination address and data length and Start DMA transfer
 276:Drivers/STM32L0xx_HAL_Driver/Src/stm32l0xx_hal_dma.c ****       (+) Configure the source, destination address and data length and
 277:Drivers/STM32L0xx_HAL_Driver/Src/stm32l0xx_hal_dma.c ****           Start DMA transfer with interrupt
 278:Drivers/STM32L0xx_HAL_Driver/Src/stm32l0xx_hal_dma.c ****       (+) Abort DMA transfer
 279:Drivers/STM32L0xx_HAL_Driver/Src/stm32l0xx_hal_dma.c ****       (+) Poll for transfer complete
 280:Drivers/STM32L0xx_HAL_Driver/Src/stm32l0xx_hal_dma.c ****       (+) Handle DMA interrupt request
 281:Drivers/STM32L0xx_HAL_Driver/Src/stm32l0xx_hal_dma.c **** 
 282:Drivers/STM32L0xx_HAL_Driver/Src/stm32l0xx_hal_dma.c **** @endverbatim
 283:Drivers/STM32L0xx_HAL_Driver/Src/stm32l0xx_hal_dma.c ****   * @{
 284:Drivers/STM32L0xx_HAL_Driver/Src/stm32l0xx_hal_dma.c ****   */
 285:Drivers/STM32L0xx_HAL_Driver/Src/stm32l0xx_hal_dma.c **** 
 286:Drivers/STM32L0xx_HAL_Driver/Src/stm32l0xx_hal_dma.c **** /**
 287:Drivers/STM32L0xx_HAL_Driver/Src/stm32l0xx_hal_dma.c ****   * @brief  Start the DMA Transfer.
 288:Drivers/STM32L0xx_HAL_Driver/Src/stm32l0xx_hal_dma.c ****   * @param  hdma pointer to a DMA_HandleTypeDef structure that contains
 289:Drivers/STM32L0xx_HAL_Driver/Src/stm32l0xx_hal_dma.c ****   *               the configuration information for the specified DMA Channel.
 290:Drivers/STM32L0xx_HAL_Driver/Src/stm32l0xx_hal_dma.c ****   * @param  SrcAddress The source memory Buffer address
 291:Drivers/STM32L0xx_HAL_Driver/Src/stm32l0xx_hal_dma.c ****   * @param  DstAddress The destination memory Buffer address
 292:Drivers/STM32L0xx_HAL_Driver/Src/stm32l0xx_hal_dma.c ****   * @param  DataLength The amount of data items to be transferred from source to destination
 293:Drivers/STM32L0xx_HAL_Driver/Src/stm32l0xx_hal_dma.c ****   * @retval HAL status
 294:Drivers/STM32L0xx_HAL_Driver/Src/stm32l0xx_hal_dma.c ****   */
 295:Drivers/STM32L0xx_HAL_Driver/Src/stm32l0xx_hal_dma.c **** HAL_StatusTypeDef HAL_DMA_Start(DMA_HandleTypeDef *hdma, uint32_t SrcAddress, uint32_t DstAddress, 
 296:Drivers/STM32L0xx_HAL_Driver/Src/stm32l0xx_hal_dma.c **** {
 297:Drivers/STM32L0xx_HAL_Driver/Src/stm32l0xx_hal_dma.c ****   HAL_StatusTypeDef status = HAL_OK;
 298:Drivers/STM32L0xx_HAL_Driver/Src/stm32l0xx_hal_dma.c **** 
 299:Drivers/STM32L0xx_HAL_Driver/Src/stm32l0xx_hal_dma.c ****   /* Check the parameters */
 300:Drivers/STM32L0xx_HAL_Driver/Src/stm32l0xx_hal_dma.c ****   assert_param(IS_DMA_BUFFER_SIZE(DataLength));
 301:Drivers/STM32L0xx_HAL_Driver/Src/stm32l0xx_hal_dma.c **** 
 302:Drivers/STM32L0xx_HAL_Driver/Src/stm32l0xx_hal_dma.c ****   /* Process locked */
 303:Drivers/STM32L0xx_HAL_Driver/Src/stm32l0xx_hal_dma.c ****   __HAL_LOCK(hdma);
 304:Drivers/STM32L0xx_HAL_Driver/Src/stm32l0xx_hal_dma.c **** 
 305:Drivers/STM32L0xx_HAL_Driver/Src/stm32l0xx_hal_dma.c ****   if(HAL_DMA_STATE_READY == hdma->State)
 306:Drivers/STM32L0xx_HAL_Driver/Src/stm32l0xx_hal_dma.c ****   {
 307:Drivers/STM32L0xx_HAL_Driver/Src/stm32l0xx_hal_dma.c ****     /* Change DMA peripheral state */
 308:Drivers/STM32L0xx_HAL_Driver/Src/stm32l0xx_hal_dma.c ****     hdma->State = HAL_DMA_STATE_BUSY;
 309:Drivers/STM32L0xx_HAL_Driver/Src/stm32l0xx_hal_dma.c ****     hdma->ErrorCode = HAL_DMA_ERROR_NONE;
 310:Drivers/STM32L0xx_HAL_Driver/Src/stm32l0xx_hal_dma.c **** 
 311:Drivers/STM32L0xx_HAL_Driver/Src/stm32l0xx_hal_dma.c ****     /* Disable the peripheral */
 312:Drivers/STM32L0xx_HAL_Driver/Src/stm32l0xx_hal_dma.c ****     __HAL_DMA_DISABLE(hdma);
 313:Drivers/STM32L0xx_HAL_Driver/Src/stm32l0xx_hal_dma.c **** 
 314:Drivers/STM32L0xx_HAL_Driver/Src/stm32l0xx_hal_dma.c ****     /* Configure the source, destination address and the data length & clear flags*/
 315:Drivers/STM32L0xx_HAL_Driver/Src/stm32l0xx_hal_dma.c ****     DMA_SetConfig(hdma, SrcAddress, DstAddress, DataLength);
 316:Drivers/STM32L0xx_HAL_Driver/Src/stm32l0xx_hal_dma.c **** 
 317:Drivers/STM32L0xx_HAL_Driver/Src/stm32l0xx_hal_dma.c ****     /* Enable the Peripheral */
ARM GAS  /tmp/ccjzcf4U.s 			page 7


 318:Drivers/STM32L0xx_HAL_Driver/Src/stm32l0xx_hal_dma.c ****     __HAL_DMA_ENABLE(hdma);
 319:Drivers/STM32L0xx_HAL_Driver/Src/stm32l0xx_hal_dma.c ****   }
 320:Drivers/STM32L0xx_HAL_Driver/Src/stm32l0xx_hal_dma.c ****   else
 321:Drivers/STM32L0xx_HAL_Driver/Src/stm32l0xx_hal_dma.c ****   {
 322:Drivers/STM32L0xx_HAL_Driver/Src/stm32l0xx_hal_dma.c ****     /* Process Unlocked */
 323:Drivers/STM32L0xx_HAL_Driver/Src/stm32l0xx_hal_dma.c ****     __HAL_UNLOCK(hdma);
 324:Drivers/STM32L0xx_HAL_Driver/Src/stm32l0xx_hal_dma.c ****     status = HAL_BUSY;
 325:Drivers/STM32L0xx_HAL_Driver/Src/stm32l0xx_hal_dma.c ****   }
 326:Drivers/STM32L0xx_HAL_Driver/Src/stm32l0xx_hal_dma.c ****   return status;
 327:Drivers/STM32L0xx_HAL_Driver/Src/stm32l0xx_hal_dma.c **** }
 328:Drivers/STM32L0xx_HAL_Driver/Src/stm32l0xx_hal_dma.c **** 
 329:Drivers/STM32L0xx_HAL_Driver/Src/stm32l0xx_hal_dma.c **** /**
 330:Drivers/STM32L0xx_HAL_Driver/Src/stm32l0xx_hal_dma.c ****   * @brief  Start the DMA Transfer with interrupt enabled.
 331:Drivers/STM32L0xx_HAL_Driver/Src/stm32l0xx_hal_dma.c ****   * @param  hdma pointer to a DMA_HandleTypeDef structure that contains
 332:Drivers/STM32L0xx_HAL_Driver/Src/stm32l0xx_hal_dma.c ****   *               the configuration information for the specified DMA Channel.
 333:Drivers/STM32L0xx_HAL_Driver/Src/stm32l0xx_hal_dma.c ****   * @param  SrcAddress The source memory Buffer address
 334:Drivers/STM32L0xx_HAL_Driver/Src/stm32l0xx_hal_dma.c ****   * @param  DstAddress The destination memory Buffer address
 335:Drivers/STM32L0xx_HAL_Driver/Src/stm32l0xx_hal_dma.c ****   * @param  DataLength The amount of data items to be transferred from source to destination
 336:Drivers/STM32L0xx_HAL_Driver/Src/stm32l0xx_hal_dma.c ****   * @retval HAL status
 337:Drivers/STM32L0xx_HAL_Driver/Src/stm32l0xx_hal_dma.c ****   */
 338:Drivers/STM32L0xx_HAL_Driver/Src/stm32l0xx_hal_dma.c **** HAL_StatusTypeDef HAL_DMA_Start_IT(DMA_HandleTypeDef *hdma, uint32_t SrcAddress, uint32_t DstAddres
 339:Drivers/STM32L0xx_HAL_Driver/Src/stm32l0xx_hal_dma.c **** {
 340:Drivers/STM32L0xx_HAL_Driver/Src/stm32l0xx_hal_dma.c ****   HAL_StatusTypeDef status = HAL_OK;
 341:Drivers/STM32L0xx_HAL_Driver/Src/stm32l0xx_hal_dma.c **** 
 342:Drivers/STM32L0xx_HAL_Driver/Src/stm32l0xx_hal_dma.c ****   /* Check the parameters */
 343:Drivers/STM32L0xx_HAL_Driver/Src/stm32l0xx_hal_dma.c ****   assert_param(IS_DMA_BUFFER_SIZE(DataLength));
 344:Drivers/STM32L0xx_HAL_Driver/Src/stm32l0xx_hal_dma.c **** 
 345:Drivers/STM32L0xx_HAL_Driver/Src/stm32l0xx_hal_dma.c ****   /* Process locked */
 346:Drivers/STM32L0xx_HAL_Driver/Src/stm32l0xx_hal_dma.c ****   __HAL_LOCK(hdma);
 347:Drivers/STM32L0xx_HAL_Driver/Src/stm32l0xx_hal_dma.c **** 
 348:Drivers/STM32L0xx_HAL_Driver/Src/stm32l0xx_hal_dma.c ****   if(HAL_DMA_STATE_READY == hdma->State)
 349:Drivers/STM32L0xx_HAL_Driver/Src/stm32l0xx_hal_dma.c ****   {
 350:Drivers/STM32L0xx_HAL_Driver/Src/stm32l0xx_hal_dma.c ****     /* Change DMA peripheral state */
 351:Drivers/STM32L0xx_HAL_Driver/Src/stm32l0xx_hal_dma.c ****     hdma->State = HAL_DMA_STATE_BUSY;
 352:Drivers/STM32L0xx_HAL_Driver/Src/stm32l0xx_hal_dma.c ****     hdma->ErrorCode = HAL_DMA_ERROR_NONE;
 353:Drivers/STM32L0xx_HAL_Driver/Src/stm32l0xx_hal_dma.c **** 
 354:Drivers/STM32L0xx_HAL_Driver/Src/stm32l0xx_hal_dma.c ****     /* Disable the peripheral */
 355:Drivers/STM32L0xx_HAL_Driver/Src/stm32l0xx_hal_dma.c ****     __HAL_DMA_DISABLE(hdma);
 356:Drivers/STM32L0xx_HAL_Driver/Src/stm32l0xx_hal_dma.c **** 
 357:Drivers/STM32L0xx_HAL_Driver/Src/stm32l0xx_hal_dma.c ****     /* Configure the source, destination address and the data length & clear flags*/
 358:Drivers/STM32L0xx_HAL_Driver/Src/stm32l0xx_hal_dma.c ****     DMA_SetConfig(hdma, SrcAddress, DstAddress, DataLength);
 359:Drivers/STM32L0xx_HAL_Driver/Src/stm32l0xx_hal_dma.c **** 
 360:Drivers/STM32L0xx_HAL_Driver/Src/stm32l0xx_hal_dma.c ****     /* Enable the transfer complete interrupt */
 361:Drivers/STM32L0xx_HAL_Driver/Src/stm32l0xx_hal_dma.c ****     /* Enable the transfer Error interrupt */
 362:Drivers/STM32L0xx_HAL_Driver/Src/stm32l0xx_hal_dma.c ****     if(NULL != hdma->XferHalfCpltCallback )
 363:Drivers/STM32L0xx_HAL_Driver/Src/stm32l0xx_hal_dma.c ****     {
 364:Drivers/STM32L0xx_HAL_Driver/Src/stm32l0xx_hal_dma.c ****       /* Enable the Half transfer complete interrupt as well */
 365:Drivers/STM32L0xx_HAL_Driver/Src/stm32l0xx_hal_dma.c ****       __HAL_DMA_ENABLE_IT(hdma, (DMA_IT_TC | DMA_IT_HT | DMA_IT_TE));
 366:Drivers/STM32L0xx_HAL_Driver/Src/stm32l0xx_hal_dma.c ****     }
 367:Drivers/STM32L0xx_HAL_Driver/Src/stm32l0xx_hal_dma.c ****     else
 368:Drivers/STM32L0xx_HAL_Driver/Src/stm32l0xx_hal_dma.c ****     {
 369:Drivers/STM32L0xx_HAL_Driver/Src/stm32l0xx_hal_dma.c ****       __HAL_DMA_DISABLE_IT(hdma, DMA_IT_HT);
 370:Drivers/STM32L0xx_HAL_Driver/Src/stm32l0xx_hal_dma.c ****       __HAL_DMA_ENABLE_IT(hdma, (DMA_IT_TC | DMA_IT_TE));
 371:Drivers/STM32L0xx_HAL_Driver/Src/stm32l0xx_hal_dma.c ****     }
 372:Drivers/STM32L0xx_HAL_Driver/Src/stm32l0xx_hal_dma.c **** 
 373:Drivers/STM32L0xx_HAL_Driver/Src/stm32l0xx_hal_dma.c ****     /* Enable the Peripheral */
 374:Drivers/STM32L0xx_HAL_Driver/Src/stm32l0xx_hal_dma.c ****     __HAL_DMA_ENABLE(hdma);
ARM GAS  /tmp/ccjzcf4U.s 			page 8


 375:Drivers/STM32L0xx_HAL_Driver/Src/stm32l0xx_hal_dma.c ****   }
 376:Drivers/STM32L0xx_HAL_Driver/Src/stm32l0xx_hal_dma.c ****   else
 377:Drivers/STM32L0xx_HAL_Driver/Src/stm32l0xx_hal_dma.c ****   {
 378:Drivers/STM32L0xx_HAL_Driver/Src/stm32l0xx_hal_dma.c ****     /* Process Unlocked */
 379:Drivers/STM32L0xx_HAL_Driver/Src/stm32l0xx_hal_dma.c ****     __HAL_UNLOCK(hdma);
 380:Drivers/STM32L0xx_HAL_Driver/Src/stm32l0xx_hal_dma.c **** 
 381:Drivers/STM32L0xx_HAL_Driver/Src/stm32l0xx_hal_dma.c ****     /* Remain BUSY */
 382:Drivers/STM32L0xx_HAL_Driver/Src/stm32l0xx_hal_dma.c ****     status = HAL_BUSY;
 383:Drivers/STM32L0xx_HAL_Driver/Src/stm32l0xx_hal_dma.c ****   }
 384:Drivers/STM32L0xx_HAL_Driver/Src/stm32l0xx_hal_dma.c ****   return status;
 385:Drivers/STM32L0xx_HAL_Driver/Src/stm32l0xx_hal_dma.c **** }
 386:Drivers/STM32L0xx_HAL_Driver/Src/stm32l0xx_hal_dma.c **** 
 387:Drivers/STM32L0xx_HAL_Driver/Src/stm32l0xx_hal_dma.c **** /**
 388:Drivers/STM32L0xx_HAL_Driver/Src/stm32l0xx_hal_dma.c ****   * @brief  Abort the DMA Transfer.
 389:Drivers/STM32L0xx_HAL_Driver/Src/stm32l0xx_hal_dma.c ****   * @param  hdma pointer to a DMA_HandleTypeDef structure that contains
 390:Drivers/STM32L0xx_HAL_Driver/Src/stm32l0xx_hal_dma.c ****   *               the configuration information for the specified DMA Channel.
 391:Drivers/STM32L0xx_HAL_Driver/Src/stm32l0xx_hal_dma.c ****     * @retval HAL status
 392:Drivers/STM32L0xx_HAL_Driver/Src/stm32l0xx_hal_dma.c ****   */
 393:Drivers/STM32L0xx_HAL_Driver/Src/stm32l0xx_hal_dma.c **** HAL_StatusTypeDef HAL_DMA_Abort(DMA_HandleTypeDef *hdma)
 394:Drivers/STM32L0xx_HAL_Driver/Src/stm32l0xx_hal_dma.c **** {
 395:Drivers/STM32L0xx_HAL_Driver/Src/stm32l0xx_hal_dma.c ****   HAL_StatusTypeDef status = HAL_OK;
 396:Drivers/STM32L0xx_HAL_Driver/Src/stm32l0xx_hal_dma.c **** 
 397:Drivers/STM32L0xx_HAL_Driver/Src/stm32l0xx_hal_dma.c ****   /* Check the DMA peripheral state */
 398:Drivers/STM32L0xx_HAL_Driver/Src/stm32l0xx_hal_dma.c ****   if(hdma->State != HAL_DMA_STATE_BUSY)
 399:Drivers/STM32L0xx_HAL_Driver/Src/stm32l0xx_hal_dma.c ****   {
 400:Drivers/STM32L0xx_HAL_Driver/Src/stm32l0xx_hal_dma.c ****     hdma->ErrorCode = HAL_DMA_ERROR_NO_XFER;
 401:Drivers/STM32L0xx_HAL_Driver/Src/stm32l0xx_hal_dma.c **** 
 402:Drivers/STM32L0xx_HAL_Driver/Src/stm32l0xx_hal_dma.c ****     /* Process Unlocked */
 403:Drivers/STM32L0xx_HAL_Driver/Src/stm32l0xx_hal_dma.c ****     __HAL_UNLOCK(hdma);
 404:Drivers/STM32L0xx_HAL_Driver/Src/stm32l0xx_hal_dma.c **** 
 405:Drivers/STM32L0xx_HAL_Driver/Src/stm32l0xx_hal_dma.c ****     return HAL_ERROR;
 406:Drivers/STM32L0xx_HAL_Driver/Src/stm32l0xx_hal_dma.c ****   }
 407:Drivers/STM32L0xx_HAL_Driver/Src/stm32l0xx_hal_dma.c ****   else
 408:Drivers/STM32L0xx_HAL_Driver/Src/stm32l0xx_hal_dma.c ****   {
 409:Drivers/STM32L0xx_HAL_Driver/Src/stm32l0xx_hal_dma.c ****     /* Disable DMA IT */
 410:Drivers/STM32L0xx_HAL_Driver/Src/stm32l0xx_hal_dma.c ****     __HAL_DMA_DISABLE_IT(hdma, (DMA_IT_TC | DMA_IT_HT | DMA_IT_TE));
 411:Drivers/STM32L0xx_HAL_Driver/Src/stm32l0xx_hal_dma.c **** 
 412:Drivers/STM32L0xx_HAL_Driver/Src/stm32l0xx_hal_dma.c ****     /* Disable the channel */
 413:Drivers/STM32L0xx_HAL_Driver/Src/stm32l0xx_hal_dma.c ****     __HAL_DMA_DISABLE(hdma);
 414:Drivers/STM32L0xx_HAL_Driver/Src/stm32l0xx_hal_dma.c **** 
 415:Drivers/STM32L0xx_HAL_Driver/Src/stm32l0xx_hal_dma.c ****     /* Clear all flags */
 416:Drivers/STM32L0xx_HAL_Driver/Src/stm32l0xx_hal_dma.c ****     hdma->DmaBaseAddress->IFCR = (DMA_ISR_GIF1 << (hdma->ChannelIndex & 0x1cU));
 417:Drivers/STM32L0xx_HAL_Driver/Src/stm32l0xx_hal_dma.c **** 
 418:Drivers/STM32L0xx_HAL_Driver/Src/stm32l0xx_hal_dma.c ****     /* Change the DMA state */
 419:Drivers/STM32L0xx_HAL_Driver/Src/stm32l0xx_hal_dma.c ****     hdma->State = HAL_DMA_STATE_READY;
 420:Drivers/STM32L0xx_HAL_Driver/Src/stm32l0xx_hal_dma.c **** 
 421:Drivers/STM32L0xx_HAL_Driver/Src/stm32l0xx_hal_dma.c ****     /* Process Unlocked */
 422:Drivers/STM32L0xx_HAL_Driver/Src/stm32l0xx_hal_dma.c ****     __HAL_UNLOCK(hdma);
 423:Drivers/STM32L0xx_HAL_Driver/Src/stm32l0xx_hal_dma.c **** 
 424:Drivers/STM32L0xx_HAL_Driver/Src/stm32l0xx_hal_dma.c ****     return status;
 425:Drivers/STM32L0xx_HAL_Driver/Src/stm32l0xx_hal_dma.c ****   }
 426:Drivers/STM32L0xx_HAL_Driver/Src/stm32l0xx_hal_dma.c **** }
 427:Drivers/STM32L0xx_HAL_Driver/Src/stm32l0xx_hal_dma.c **** 
 428:Drivers/STM32L0xx_HAL_Driver/Src/stm32l0xx_hal_dma.c **** /**
 429:Drivers/STM32L0xx_HAL_Driver/Src/stm32l0xx_hal_dma.c ****   * @brief  Aborts the DMA Transfer in Interrupt mode.
 430:Drivers/STM32L0xx_HAL_Driver/Src/stm32l0xx_hal_dma.c ****   * @param  hdma pointer to a DMA_HandleTypeDef structure that contains
 431:Drivers/STM32L0xx_HAL_Driver/Src/stm32l0xx_hal_dma.c ****   *                 the configuration information for the specified DMA Channel.
ARM GAS  /tmp/ccjzcf4U.s 			page 9


 432:Drivers/STM32L0xx_HAL_Driver/Src/stm32l0xx_hal_dma.c ****   * @retval HAL status
 433:Drivers/STM32L0xx_HAL_Driver/Src/stm32l0xx_hal_dma.c ****   */
 434:Drivers/STM32L0xx_HAL_Driver/Src/stm32l0xx_hal_dma.c **** HAL_StatusTypeDef HAL_DMA_Abort_IT(DMA_HandleTypeDef *hdma)
 435:Drivers/STM32L0xx_HAL_Driver/Src/stm32l0xx_hal_dma.c **** {
 436:Drivers/STM32L0xx_HAL_Driver/Src/stm32l0xx_hal_dma.c ****   HAL_StatusTypeDef status = HAL_OK;
 437:Drivers/STM32L0xx_HAL_Driver/Src/stm32l0xx_hal_dma.c **** 
 438:Drivers/STM32L0xx_HAL_Driver/Src/stm32l0xx_hal_dma.c ****   if(HAL_DMA_STATE_BUSY != hdma->State)
 439:Drivers/STM32L0xx_HAL_Driver/Src/stm32l0xx_hal_dma.c ****   {
 440:Drivers/STM32L0xx_HAL_Driver/Src/stm32l0xx_hal_dma.c ****     /* no transfer ongoing */
 441:Drivers/STM32L0xx_HAL_Driver/Src/stm32l0xx_hal_dma.c ****     hdma->ErrorCode = HAL_DMA_ERROR_NO_XFER;
 442:Drivers/STM32L0xx_HAL_Driver/Src/stm32l0xx_hal_dma.c **** 
 443:Drivers/STM32L0xx_HAL_Driver/Src/stm32l0xx_hal_dma.c ****     status = HAL_ERROR;
 444:Drivers/STM32L0xx_HAL_Driver/Src/stm32l0xx_hal_dma.c ****   }
 445:Drivers/STM32L0xx_HAL_Driver/Src/stm32l0xx_hal_dma.c ****   else
 446:Drivers/STM32L0xx_HAL_Driver/Src/stm32l0xx_hal_dma.c ****   {
 447:Drivers/STM32L0xx_HAL_Driver/Src/stm32l0xx_hal_dma.c ****     /* Disable DMA IT */
 448:Drivers/STM32L0xx_HAL_Driver/Src/stm32l0xx_hal_dma.c ****     __HAL_DMA_DISABLE_IT(hdma, (DMA_IT_TC | DMA_IT_HT | DMA_IT_TE));
 449:Drivers/STM32L0xx_HAL_Driver/Src/stm32l0xx_hal_dma.c **** 
 450:Drivers/STM32L0xx_HAL_Driver/Src/stm32l0xx_hal_dma.c ****     /* Disable the channel */
 451:Drivers/STM32L0xx_HAL_Driver/Src/stm32l0xx_hal_dma.c ****     __HAL_DMA_DISABLE(hdma);
 452:Drivers/STM32L0xx_HAL_Driver/Src/stm32l0xx_hal_dma.c **** 
 453:Drivers/STM32L0xx_HAL_Driver/Src/stm32l0xx_hal_dma.c ****     /* Clear all flags */
 454:Drivers/STM32L0xx_HAL_Driver/Src/stm32l0xx_hal_dma.c ****     hdma->DmaBaseAddress->IFCR = (DMA_ISR_GIF1 << (hdma->ChannelIndex & 0x1cU));
 455:Drivers/STM32L0xx_HAL_Driver/Src/stm32l0xx_hal_dma.c **** 
 456:Drivers/STM32L0xx_HAL_Driver/Src/stm32l0xx_hal_dma.c ****     /* Change the DMA state */
 457:Drivers/STM32L0xx_HAL_Driver/Src/stm32l0xx_hal_dma.c ****     hdma->State = HAL_DMA_STATE_READY;
 458:Drivers/STM32L0xx_HAL_Driver/Src/stm32l0xx_hal_dma.c **** 
 459:Drivers/STM32L0xx_HAL_Driver/Src/stm32l0xx_hal_dma.c ****     /* Process Unlocked */
 460:Drivers/STM32L0xx_HAL_Driver/Src/stm32l0xx_hal_dma.c ****     __HAL_UNLOCK(hdma);
 461:Drivers/STM32L0xx_HAL_Driver/Src/stm32l0xx_hal_dma.c **** 
 462:Drivers/STM32L0xx_HAL_Driver/Src/stm32l0xx_hal_dma.c ****     /* Call User Abort callback */
 463:Drivers/STM32L0xx_HAL_Driver/Src/stm32l0xx_hal_dma.c ****     if(hdma->XferAbortCallback != NULL)
 464:Drivers/STM32L0xx_HAL_Driver/Src/stm32l0xx_hal_dma.c ****     {
 465:Drivers/STM32L0xx_HAL_Driver/Src/stm32l0xx_hal_dma.c ****       hdma->XferAbortCallback(hdma);
 466:Drivers/STM32L0xx_HAL_Driver/Src/stm32l0xx_hal_dma.c ****     }
 467:Drivers/STM32L0xx_HAL_Driver/Src/stm32l0xx_hal_dma.c ****   }
 468:Drivers/STM32L0xx_HAL_Driver/Src/stm32l0xx_hal_dma.c ****   return status;
 469:Drivers/STM32L0xx_HAL_Driver/Src/stm32l0xx_hal_dma.c **** }
 470:Drivers/STM32L0xx_HAL_Driver/Src/stm32l0xx_hal_dma.c **** 
 471:Drivers/STM32L0xx_HAL_Driver/Src/stm32l0xx_hal_dma.c **** /**
 472:Drivers/STM32L0xx_HAL_Driver/Src/stm32l0xx_hal_dma.c ****   * @brief  Polling for transfer complete.
 473:Drivers/STM32L0xx_HAL_Driver/Src/stm32l0xx_hal_dma.c ****   * @param  hdma pointer to a DMA_HandleTypeDef structure that contains
 474:Drivers/STM32L0xx_HAL_Driver/Src/stm32l0xx_hal_dma.c ****   *                  the configuration information for the specified DMA Channel.
 475:Drivers/STM32L0xx_HAL_Driver/Src/stm32l0xx_hal_dma.c ****   * @param  CompleteLevel Specifies the DMA level complete.
 476:Drivers/STM32L0xx_HAL_Driver/Src/stm32l0xx_hal_dma.c ****   * @param  Timeout       Timeout duration.
 477:Drivers/STM32L0xx_HAL_Driver/Src/stm32l0xx_hal_dma.c ****   * @retval HAL status
 478:Drivers/STM32L0xx_HAL_Driver/Src/stm32l0xx_hal_dma.c ****   */
 479:Drivers/STM32L0xx_HAL_Driver/Src/stm32l0xx_hal_dma.c **** HAL_StatusTypeDef HAL_DMA_PollForTransfer(DMA_HandleTypeDef *hdma, HAL_DMA_LevelCompleteTypeDef Com
 480:Drivers/STM32L0xx_HAL_Driver/Src/stm32l0xx_hal_dma.c **** {
 481:Drivers/STM32L0xx_HAL_Driver/Src/stm32l0xx_hal_dma.c ****   uint32_t temp;
 482:Drivers/STM32L0xx_HAL_Driver/Src/stm32l0xx_hal_dma.c ****   uint32_t tickstart;
 483:Drivers/STM32L0xx_HAL_Driver/Src/stm32l0xx_hal_dma.c **** 
 484:Drivers/STM32L0xx_HAL_Driver/Src/stm32l0xx_hal_dma.c ****   if(HAL_DMA_STATE_BUSY != hdma->State)
 485:Drivers/STM32L0xx_HAL_Driver/Src/stm32l0xx_hal_dma.c ****   {
 486:Drivers/STM32L0xx_HAL_Driver/Src/stm32l0xx_hal_dma.c ****     /* no transfer ongoing */
 487:Drivers/STM32L0xx_HAL_Driver/Src/stm32l0xx_hal_dma.c ****     hdma->ErrorCode = HAL_DMA_ERROR_NO_XFER;
 488:Drivers/STM32L0xx_HAL_Driver/Src/stm32l0xx_hal_dma.c ****     __HAL_UNLOCK(hdma);
ARM GAS  /tmp/ccjzcf4U.s 			page 10


 489:Drivers/STM32L0xx_HAL_Driver/Src/stm32l0xx_hal_dma.c ****     return HAL_ERROR;
 490:Drivers/STM32L0xx_HAL_Driver/Src/stm32l0xx_hal_dma.c ****   }
 491:Drivers/STM32L0xx_HAL_Driver/Src/stm32l0xx_hal_dma.c **** 
 492:Drivers/STM32L0xx_HAL_Driver/Src/stm32l0xx_hal_dma.c ****   /* Polling mode not supported in circular mode */
 493:Drivers/STM32L0xx_HAL_Driver/Src/stm32l0xx_hal_dma.c ****   if (0U != (hdma->Instance->CCR & DMA_CCR_CIRC))
 494:Drivers/STM32L0xx_HAL_Driver/Src/stm32l0xx_hal_dma.c ****   {
 495:Drivers/STM32L0xx_HAL_Driver/Src/stm32l0xx_hal_dma.c ****     hdma->ErrorCode = HAL_DMA_ERROR_NOT_SUPPORTED;
 496:Drivers/STM32L0xx_HAL_Driver/Src/stm32l0xx_hal_dma.c ****     return HAL_ERROR;
 497:Drivers/STM32L0xx_HAL_Driver/Src/stm32l0xx_hal_dma.c ****   }
 498:Drivers/STM32L0xx_HAL_Driver/Src/stm32l0xx_hal_dma.c **** 
 499:Drivers/STM32L0xx_HAL_Driver/Src/stm32l0xx_hal_dma.c ****   /* Get the level transfer complete flag */
 500:Drivers/STM32L0xx_HAL_Driver/Src/stm32l0xx_hal_dma.c ****   if (HAL_DMA_FULL_TRANSFER == CompleteLevel)
 501:Drivers/STM32L0xx_HAL_Driver/Src/stm32l0xx_hal_dma.c ****   {
 502:Drivers/STM32L0xx_HAL_Driver/Src/stm32l0xx_hal_dma.c ****     /* Transfer Complete flag */
 503:Drivers/STM32L0xx_HAL_Driver/Src/stm32l0xx_hal_dma.c ****     temp = DMA_FLAG_TC1 << (hdma->ChannelIndex & 0x1cU);
 504:Drivers/STM32L0xx_HAL_Driver/Src/stm32l0xx_hal_dma.c ****   }
 505:Drivers/STM32L0xx_HAL_Driver/Src/stm32l0xx_hal_dma.c ****   else
 506:Drivers/STM32L0xx_HAL_Driver/Src/stm32l0xx_hal_dma.c ****   {
 507:Drivers/STM32L0xx_HAL_Driver/Src/stm32l0xx_hal_dma.c ****     /* Half Transfer Complete flag */
 508:Drivers/STM32L0xx_HAL_Driver/Src/stm32l0xx_hal_dma.c ****     temp = DMA_FLAG_HT1 << (hdma->ChannelIndex & 0x1cU);
 509:Drivers/STM32L0xx_HAL_Driver/Src/stm32l0xx_hal_dma.c ****   }
 510:Drivers/STM32L0xx_HAL_Driver/Src/stm32l0xx_hal_dma.c **** 
 511:Drivers/STM32L0xx_HAL_Driver/Src/stm32l0xx_hal_dma.c ****   /* Get tick */
 512:Drivers/STM32L0xx_HAL_Driver/Src/stm32l0xx_hal_dma.c ****   tickstart = HAL_GetTick();
 513:Drivers/STM32L0xx_HAL_Driver/Src/stm32l0xx_hal_dma.c **** 
 514:Drivers/STM32L0xx_HAL_Driver/Src/stm32l0xx_hal_dma.c ****   while(0U == (hdma->DmaBaseAddress->ISR & temp))
 515:Drivers/STM32L0xx_HAL_Driver/Src/stm32l0xx_hal_dma.c ****   {
 516:Drivers/STM32L0xx_HAL_Driver/Src/stm32l0xx_hal_dma.c ****     if((0U != (hdma->DmaBaseAddress->ISR & (DMA_FLAG_TE1 << (hdma->ChannelIndex& 0x1cU)))))
 517:Drivers/STM32L0xx_HAL_Driver/Src/stm32l0xx_hal_dma.c ****     {
 518:Drivers/STM32L0xx_HAL_Driver/Src/stm32l0xx_hal_dma.c ****       /* When a DMA transfer error occurs */
 519:Drivers/STM32L0xx_HAL_Driver/Src/stm32l0xx_hal_dma.c ****       /* A hardware clear of its EN bits is performed */
 520:Drivers/STM32L0xx_HAL_Driver/Src/stm32l0xx_hal_dma.c ****       /* Clear all flags */
 521:Drivers/STM32L0xx_HAL_Driver/Src/stm32l0xx_hal_dma.c ****       hdma->DmaBaseAddress->IFCR = (DMA_ISR_GIF1 << (hdma->ChannelIndex & 0x1cU));
 522:Drivers/STM32L0xx_HAL_Driver/Src/stm32l0xx_hal_dma.c **** 
 523:Drivers/STM32L0xx_HAL_Driver/Src/stm32l0xx_hal_dma.c ****       /* Update error code */
 524:Drivers/STM32L0xx_HAL_Driver/Src/stm32l0xx_hal_dma.c ****       hdma->ErrorCode = HAL_DMA_ERROR_TE;
 525:Drivers/STM32L0xx_HAL_Driver/Src/stm32l0xx_hal_dma.c **** 
 526:Drivers/STM32L0xx_HAL_Driver/Src/stm32l0xx_hal_dma.c ****       /* Change the DMA state */
 527:Drivers/STM32L0xx_HAL_Driver/Src/stm32l0xx_hal_dma.c ****       hdma->State= HAL_DMA_STATE_READY;
 528:Drivers/STM32L0xx_HAL_Driver/Src/stm32l0xx_hal_dma.c **** 
 529:Drivers/STM32L0xx_HAL_Driver/Src/stm32l0xx_hal_dma.c ****       /* Process Unlocked */
 530:Drivers/STM32L0xx_HAL_Driver/Src/stm32l0xx_hal_dma.c ****       __HAL_UNLOCK(hdma);
 531:Drivers/STM32L0xx_HAL_Driver/Src/stm32l0xx_hal_dma.c **** 
 532:Drivers/STM32L0xx_HAL_Driver/Src/stm32l0xx_hal_dma.c ****       return HAL_ERROR;
 533:Drivers/STM32L0xx_HAL_Driver/Src/stm32l0xx_hal_dma.c ****     }
 534:Drivers/STM32L0xx_HAL_Driver/Src/stm32l0xx_hal_dma.c ****     /* Check for the Timeout */
 535:Drivers/STM32L0xx_HAL_Driver/Src/stm32l0xx_hal_dma.c ****     if(Timeout != HAL_MAX_DELAY)
 536:Drivers/STM32L0xx_HAL_Driver/Src/stm32l0xx_hal_dma.c ****     {
 537:Drivers/STM32L0xx_HAL_Driver/Src/stm32l0xx_hal_dma.c ****       if(((HAL_GetTick() - tickstart) > Timeout) ||  (Timeout == 0U))
 538:Drivers/STM32L0xx_HAL_Driver/Src/stm32l0xx_hal_dma.c ****       {
 539:Drivers/STM32L0xx_HAL_Driver/Src/stm32l0xx_hal_dma.c ****         /* Update error code */
 540:Drivers/STM32L0xx_HAL_Driver/Src/stm32l0xx_hal_dma.c ****         hdma->ErrorCode = HAL_DMA_ERROR_TIMEOUT;
 541:Drivers/STM32L0xx_HAL_Driver/Src/stm32l0xx_hal_dma.c **** 
 542:Drivers/STM32L0xx_HAL_Driver/Src/stm32l0xx_hal_dma.c ****         /* Change the DMA state */
 543:Drivers/STM32L0xx_HAL_Driver/Src/stm32l0xx_hal_dma.c ****         hdma->State = HAL_DMA_STATE_READY;
 544:Drivers/STM32L0xx_HAL_Driver/Src/stm32l0xx_hal_dma.c **** 
 545:Drivers/STM32L0xx_HAL_Driver/Src/stm32l0xx_hal_dma.c ****         /* Process Unlocked */
ARM GAS  /tmp/ccjzcf4U.s 			page 11


 546:Drivers/STM32L0xx_HAL_Driver/Src/stm32l0xx_hal_dma.c ****         __HAL_UNLOCK(hdma);
 547:Drivers/STM32L0xx_HAL_Driver/Src/stm32l0xx_hal_dma.c **** 
 548:Drivers/STM32L0xx_HAL_Driver/Src/stm32l0xx_hal_dma.c ****         return HAL_ERROR;
 549:Drivers/STM32L0xx_HAL_Driver/Src/stm32l0xx_hal_dma.c ****       }
 550:Drivers/STM32L0xx_HAL_Driver/Src/stm32l0xx_hal_dma.c ****     }
 551:Drivers/STM32L0xx_HAL_Driver/Src/stm32l0xx_hal_dma.c ****   }
 552:Drivers/STM32L0xx_HAL_Driver/Src/stm32l0xx_hal_dma.c **** 
 553:Drivers/STM32L0xx_HAL_Driver/Src/stm32l0xx_hal_dma.c ****   if(HAL_DMA_FULL_TRANSFER == CompleteLevel)
 554:Drivers/STM32L0xx_HAL_Driver/Src/stm32l0xx_hal_dma.c ****   {
 555:Drivers/STM32L0xx_HAL_Driver/Src/stm32l0xx_hal_dma.c ****     /* Clear the transfer complete flag */
 556:Drivers/STM32L0xx_HAL_Driver/Src/stm32l0xx_hal_dma.c ****     hdma->DmaBaseAddress->IFCR = (DMA_FLAG_TC1 << (hdma->ChannelIndex& 0x1cU));
 557:Drivers/STM32L0xx_HAL_Driver/Src/stm32l0xx_hal_dma.c **** 
 558:Drivers/STM32L0xx_HAL_Driver/Src/stm32l0xx_hal_dma.c ****     /* The selected Channelx EN bit is cleared (DMA is disabled and
 559:Drivers/STM32L0xx_HAL_Driver/Src/stm32l0xx_hal_dma.c ****     all transfers are complete) */
 560:Drivers/STM32L0xx_HAL_Driver/Src/stm32l0xx_hal_dma.c ****     hdma->State = HAL_DMA_STATE_READY;
 561:Drivers/STM32L0xx_HAL_Driver/Src/stm32l0xx_hal_dma.c ****   }
 562:Drivers/STM32L0xx_HAL_Driver/Src/stm32l0xx_hal_dma.c ****   else
 563:Drivers/STM32L0xx_HAL_Driver/Src/stm32l0xx_hal_dma.c ****   {
 564:Drivers/STM32L0xx_HAL_Driver/Src/stm32l0xx_hal_dma.c ****     /* Clear the half transfer complete flag */
 565:Drivers/STM32L0xx_HAL_Driver/Src/stm32l0xx_hal_dma.c ****     hdma->DmaBaseAddress->IFCR = (DMA_FLAG_HT1 << (hdma->ChannelIndex & 0x1cU));
 566:Drivers/STM32L0xx_HAL_Driver/Src/stm32l0xx_hal_dma.c ****   }
 567:Drivers/STM32L0xx_HAL_Driver/Src/stm32l0xx_hal_dma.c **** 
 568:Drivers/STM32L0xx_HAL_Driver/Src/stm32l0xx_hal_dma.c ****   /* Process unlocked */
 569:Drivers/STM32L0xx_HAL_Driver/Src/stm32l0xx_hal_dma.c ****   __HAL_UNLOCK(hdma);
 570:Drivers/STM32L0xx_HAL_Driver/Src/stm32l0xx_hal_dma.c **** 
 571:Drivers/STM32L0xx_HAL_Driver/Src/stm32l0xx_hal_dma.c ****   return HAL_OK;
 572:Drivers/STM32L0xx_HAL_Driver/Src/stm32l0xx_hal_dma.c **** }
 573:Drivers/STM32L0xx_HAL_Driver/Src/stm32l0xx_hal_dma.c **** 
 574:Drivers/STM32L0xx_HAL_Driver/Src/stm32l0xx_hal_dma.c **** /**
 575:Drivers/STM32L0xx_HAL_Driver/Src/stm32l0xx_hal_dma.c ****   * @brief  Handle DMA interrupt request.
 576:Drivers/STM32L0xx_HAL_Driver/Src/stm32l0xx_hal_dma.c ****   * @param  hdma pointer to a DMA_HandleTypeDef structure that contains
 577:Drivers/STM32L0xx_HAL_Driver/Src/stm32l0xx_hal_dma.c ****   *               the configuration information for the specified DMA Channel.
 578:Drivers/STM32L0xx_HAL_Driver/Src/stm32l0xx_hal_dma.c ****   * @retval None
 579:Drivers/STM32L0xx_HAL_Driver/Src/stm32l0xx_hal_dma.c ****   */
 580:Drivers/STM32L0xx_HAL_Driver/Src/stm32l0xx_hal_dma.c **** void HAL_DMA_IRQHandler(DMA_HandleTypeDef *hdma)
 581:Drivers/STM32L0xx_HAL_Driver/Src/stm32l0xx_hal_dma.c **** {
 582:Drivers/STM32L0xx_HAL_Driver/Src/stm32l0xx_hal_dma.c ****   uint32_t flag_it = hdma->DmaBaseAddress->ISR;
 583:Drivers/STM32L0xx_HAL_Driver/Src/stm32l0xx_hal_dma.c ****   uint32_t source_it = hdma->Instance->CCR;
 584:Drivers/STM32L0xx_HAL_Driver/Src/stm32l0xx_hal_dma.c **** 
 585:Drivers/STM32L0xx_HAL_Driver/Src/stm32l0xx_hal_dma.c ****   /* Half Transfer Complete Interrupt management ******************************/
 586:Drivers/STM32L0xx_HAL_Driver/Src/stm32l0xx_hal_dma.c ****   if ((0U != (flag_it & (DMA_FLAG_HT1 << (hdma->ChannelIndex & 0x1cU)))) && (0U != (source_it & DMA
 587:Drivers/STM32L0xx_HAL_Driver/Src/stm32l0xx_hal_dma.c ****   {
 588:Drivers/STM32L0xx_HAL_Driver/Src/stm32l0xx_hal_dma.c ****       /* Disable the half transfer interrupt if the DMA mode is not CIRCULAR */
 589:Drivers/STM32L0xx_HAL_Driver/Src/stm32l0xx_hal_dma.c ****       if((hdma->Instance->CCR & DMA_CCR_CIRC) == 0U)
 590:Drivers/STM32L0xx_HAL_Driver/Src/stm32l0xx_hal_dma.c ****       {
 591:Drivers/STM32L0xx_HAL_Driver/Src/stm32l0xx_hal_dma.c ****         /* Disable the half transfer interrupt */
 592:Drivers/STM32L0xx_HAL_Driver/Src/stm32l0xx_hal_dma.c ****         __HAL_DMA_DISABLE_IT(hdma, DMA_IT_HT);
 593:Drivers/STM32L0xx_HAL_Driver/Src/stm32l0xx_hal_dma.c ****       }
 594:Drivers/STM32L0xx_HAL_Driver/Src/stm32l0xx_hal_dma.c ****       /* Clear the half transfer complete flag */
 595:Drivers/STM32L0xx_HAL_Driver/Src/stm32l0xx_hal_dma.c ****       hdma->DmaBaseAddress->IFCR = DMA_ISR_HTIF1 << (hdma->ChannelIndex & 0x1cU);
 596:Drivers/STM32L0xx_HAL_Driver/Src/stm32l0xx_hal_dma.c **** 
 597:Drivers/STM32L0xx_HAL_Driver/Src/stm32l0xx_hal_dma.c ****       /* DMA peripheral state is not updated in Half Transfer */
 598:Drivers/STM32L0xx_HAL_Driver/Src/stm32l0xx_hal_dma.c ****       /* but in Transfer Complete case */
 599:Drivers/STM32L0xx_HAL_Driver/Src/stm32l0xx_hal_dma.c **** 
 600:Drivers/STM32L0xx_HAL_Driver/Src/stm32l0xx_hal_dma.c ****      if(hdma->XferHalfCpltCallback != NULL)
 601:Drivers/STM32L0xx_HAL_Driver/Src/stm32l0xx_hal_dma.c ****       {
 602:Drivers/STM32L0xx_HAL_Driver/Src/stm32l0xx_hal_dma.c ****         /* Half transfer callback */
ARM GAS  /tmp/ccjzcf4U.s 			page 12


 603:Drivers/STM32L0xx_HAL_Driver/Src/stm32l0xx_hal_dma.c ****         hdma->XferHalfCpltCallback(hdma);
 604:Drivers/STM32L0xx_HAL_Driver/Src/stm32l0xx_hal_dma.c ****       }
 605:Drivers/STM32L0xx_HAL_Driver/Src/stm32l0xx_hal_dma.c ****   }
 606:Drivers/STM32L0xx_HAL_Driver/Src/stm32l0xx_hal_dma.c **** 
 607:Drivers/STM32L0xx_HAL_Driver/Src/stm32l0xx_hal_dma.c ****   /* Transfer Complete Interrupt management ***********************************/
 608:Drivers/STM32L0xx_HAL_Driver/Src/stm32l0xx_hal_dma.c ****   else if ((0U != (flag_it & (DMA_FLAG_TC1 << (hdma->ChannelIndex & 0x1cU)))) && (0U != (source_it 
 609:Drivers/STM32L0xx_HAL_Driver/Src/stm32l0xx_hal_dma.c ****   {
 610:Drivers/STM32L0xx_HAL_Driver/Src/stm32l0xx_hal_dma.c ****     if((hdma->Instance->CCR & DMA_CCR_CIRC) == 0U)
 611:Drivers/STM32L0xx_HAL_Driver/Src/stm32l0xx_hal_dma.c ****     {
 612:Drivers/STM32L0xx_HAL_Driver/Src/stm32l0xx_hal_dma.c ****       /* Disable the transfer complete and error interrupt */
 613:Drivers/STM32L0xx_HAL_Driver/Src/stm32l0xx_hal_dma.c ****       __HAL_DMA_DISABLE_IT(hdma, DMA_IT_TE | DMA_IT_TC);
 614:Drivers/STM32L0xx_HAL_Driver/Src/stm32l0xx_hal_dma.c **** 
 615:Drivers/STM32L0xx_HAL_Driver/Src/stm32l0xx_hal_dma.c ****       /* Change the DMA state */
 616:Drivers/STM32L0xx_HAL_Driver/Src/stm32l0xx_hal_dma.c ****       hdma->State = HAL_DMA_STATE_READY;
 617:Drivers/STM32L0xx_HAL_Driver/Src/stm32l0xx_hal_dma.c ****     }
 618:Drivers/STM32L0xx_HAL_Driver/Src/stm32l0xx_hal_dma.c ****     /* Clear the transfer complete flag */
 619:Drivers/STM32L0xx_HAL_Driver/Src/stm32l0xx_hal_dma.c ****     hdma->DmaBaseAddress->IFCR = (DMA_ISR_TCIF1 << (hdma->ChannelIndex & 0x1cU));
 620:Drivers/STM32L0xx_HAL_Driver/Src/stm32l0xx_hal_dma.c **** 
 621:Drivers/STM32L0xx_HAL_Driver/Src/stm32l0xx_hal_dma.c ****     /* Process Unlocked */
 622:Drivers/STM32L0xx_HAL_Driver/Src/stm32l0xx_hal_dma.c ****     __HAL_UNLOCK(hdma);
 623:Drivers/STM32L0xx_HAL_Driver/Src/stm32l0xx_hal_dma.c **** 
 624:Drivers/STM32L0xx_HAL_Driver/Src/stm32l0xx_hal_dma.c ****     if(hdma->XferCpltCallback != NULL)
 625:Drivers/STM32L0xx_HAL_Driver/Src/stm32l0xx_hal_dma.c ****     {
 626:Drivers/STM32L0xx_HAL_Driver/Src/stm32l0xx_hal_dma.c ****       /* Transfer complete callback */
 627:Drivers/STM32L0xx_HAL_Driver/Src/stm32l0xx_hal_dma.c ****       hdma->XferCpltCallback(hdma);
 628:Drivers/STM32L0xx_HAL_Driver/Src/stm32l0xx_hal_dma.c ****     }
 629:Drivers/STM32L0xx_HAL_Driver/Src/stm32l0xx_hal_dma.c ****   }
 630:Drivers/STM32L0xx_HAL_Driver/Src/stm32l0xx_hal_dma.c **** 
 631:Drivers/STM32L0xx_HAL_Driver/Src/stm32l0xx_hal_dma.c ****   /* Transfer Error Interrupt management **************************************/
 632:Drivers/STM32L0xx_HAL_Driver/Src/stm32l0xx_hal_dma.c ****   else if ((0U != (flag_it & (DMA_FLAG_TE1 << (hdma->ChannelIndex & 0x1cU)))) && (0U != (source_it 
 633:Drivers/STM32L0xx_HAL_Driver/Src/stm32l0xx_hal_dma.c ****   {
 634:Drivers/STM32L0xx_HAL_Driver/Src/stm32l0xx_hal_dma.c ****     /* When a DMA transfer error occurs */
 635:Drivers/STM32L0xx_HAL_Driver/Src/stm32l0xx_hal_dma.c ****     /* A hardware clear of its EN bits is performed */
 636:Drivers/STM32L0xx_HAL_Driver/Src/stm32l0xx_hal_dma.c ****     /* Disable ALL DMA IT */
 637:Drivers/STM32L0xx_HAL_Driver/Src/stm32l0xx_hal_dma.c ****     __HAL_DMA_DISABLE_IT(hdma, (DMA_IT_TC | DMA_IT_HT | DMA_IT_TE));
 638:Drivers/STM32L0xx_HAL_Driver/Src/stm32l0xx_hal_dma.c **** 
 639:Drivers/STM32L0xx_HAL_Driver/Src/stm32l0xx_hal_dma.c ****     /* Clear all flags */
 640:Drivers/STM32L0xx_HAL_Driver/Src/stm32l0xx_hal_dma.c ****     hdma->DmaBaseAddress->IFCR = (DMA_ISR_GIF1 << (hdma->ChannelIndex & 0x1cU));
 641:Drivers/STM32L0xx_HAL_Driver/Src/stm32l0xx_hal_dma.c **** 
 642:Drivers/STM32L0xx_HAL_Driver/Src/stm32l0xx_hal_dma.c ****     /* Update error code */
 643:Drivers/STM32L0xx_HAL_Driver/Src/stm32l0xx_hal_dma.c ****     hdma->ErrorCode = HAL_DMA_ERROR_TE;
 644:Drivers/STM32L0xx_HAL_Driver/Src/stm32l0xx_hal_dma.c **** 
 645:Drivers/STM32L0xx_HAL_Driver/Src/stm32l0xx_hal_dma.c ****     /* Change the DMA state */
 646:Drivers/STM32L0xx_HAL_Driver/Src/stm32l0xx_hal_dma.c ****     hdma->State = HAL_DMA_STATE_READY;
 647:Drivers/STM32L0xx_HAL_Driver/Src/stm32l0xx_hal_dma.c **** 
 648:Drivers/STM32L0xx_HAL_Driver/Src/stm32l0xx_hal_dma.c ****     /* Process Unlocked */
 649:Drivers/STM32L0xx_HAL_Driver/Src/stm32l0xx_hal_dma.c ****     __HAL_UNLOCK(hdma);
 650:Drivers/STM32L0xx_HAL_Driver/Src/stm32l0xx_hal_dma.c **** 
 651:Drivers/STM32L0xx_HAL_Driver/Src/stm32l0xx_hal_dma.c ****     if (hdma->XferErrorCallback != NULL)
 652:Drivers/STM32L0xx_HAL_Driver/Src/stm32l0xx_hal_dma.c ****     {
 653:Drivers/STM32L0xx_HAL_Driver/Src/stm32l0xx_hal_dma.c ****       /* Transfer error callback */
 654:Drivers/STM32L0xx_HAL_Driver/Src/stm32l0xx_hal_dma.c ****       hdma->XferErrorCallback(hdma);
 655:Drivers/STM32L0xx_HAL_Driver/Src/stm32l0xx_hal_dma.c ****     }
 656:Drivers/STM32L0xx_HAL_Driver/Src/stm32l0xx_hal_dma.c ****   }
 657:Drivers/STM32L0xx_HAL_Driver/Src/stm32l0xx_hal_dma.c ****   else
 658:Drivers/STM32L0xx_HAL_Driver/Src/stm32l0xx_hal_dma.c ****   {
 659:Drivers/STM32L0xx_HAL_Driver/Src/stm32l0xx_hal_dma.c ****     /* Nothing To Do */
ARM GAS  /tmp/ccjzcf4U.s 			page 13


 660:Drivers/STM32L0xx_HAL_Driver/Src/stm32l0xx_hal_dma.c ****   }
 661:Drivers/STM32L0xx_HAL_Driver/Src/stm32l0xx_hal_dma.c ****   return;
 662:Drivers/STM32L0xx_HAL_Driver/Src/stm32l0xx_hal_dma.c **** }
 663:Drivers/STM32L0xx_HAL_Driver/Src/stm32l0xx_hal_dma.c **** 
 664:Drivers/STM32L0xx_HAL_Driver/Src/stm32l0xx_hal_dma.c **** /**
 665:Drivers/STM32L0xx_HAL_Driver/Src/stm32l0xx_hal_dma.c ****   * @brief  Register callbacks
 666:Drivers/STM32L0xx_HAL_Driver/Src/stm32l0xx_hal_dma.c ****   * @param  hdma                 pointer to a DMA_HandleTypeDef structure that contains
 667:Drivers/STM32L0xx_HAL_Driver/Src/stm32l0xx_hal_dma.c ****   *                               the configuration information for the specified DMA Channel.
 668:Drivers/STM32L0xx_HAL_Driver/Src/stm32l0xx_hal_dma.c ****   * @param  CallbackID           User Callback identifier
 669:Drivers/STM32L0xx_HAL_Driver/Src/stm32l0xx_hal_dma.c ****   *                               a HAL_DMA_CallbackIDTypeDef ENUM as parameter.
 670:Drivers/STM32L0xx_HAL_Driver/Src/stm32l0xx_hal_dma.c ****   * @param  pCallback            pointer to private callback function which has pointer to
 671:Drivers/STM32L0xx_HAL_Driver/Src/stm32l0xx_hal_dma.c ****   *                               a DMA_HandleTypeDef structure as parameter.
 672:Drivers/STM32L0xx_HAL_Driver/Src/stm32l0xx_hal_dma.c ****   * @retval HAL status
 673:Drivers/STM32L0xx_HAL_Driver/Src/stm32l0xx_hal_dma.c ****   */
 674:Drivers/STM32L0xx_HAL_Driver/Src/stm32l0xx_hal_dma.c **** HAL_StatusTypeDef HAL_DMA_RegisterCallback(DMA_HandleTypeDef *hdma, HAL_DMA_CallbackIDTypeDef Callb
 675:Drivers/STM32L0xx_HAL_Driver/Src/stm32l0xx_hal_dma.c **** {
 676:Drivers/STM32L0xx_HAL_Driver/Src/stm32l0xx_hal_dma.c ****   HAL_StatusTypeDef status = HAL_OK;
 677:Drivers/STM32L0xx_HAL_Driver/Src/stm32l0xx_hal_dma.c **** 
 678:Drivers/STM32L0xx_HAL_Driver/Src/stm32l0xx_hal_dma.c ****   /* Process locked */
 679:Drivers/STM32L0xx_HAL_Driver/Src/stm32l0xx_hal_dma.c ****   __HAL_LOCK(hdma);
 680:Drivers/STM32L0xx_HAL_Driver/Src/stm32l0xx_hal_dma.c **** 
 681:Drivers/STM32L0xx_HAL_Driver/Src/stm32l0xx_hal_dma.c ****   if(HAL_DMA_STATE_READY == hdma->State)
 682:Drivers/STM32L0xx_HAL_Driver/Src/stm32l0xx_hal_dma.c ****   {
 683:Drivers/STM32L0xx_HAL_Driver/Src/stm32l0xx_hal_dma.c ****     switch (CallbackID)
 684:Drivers/STM32L0xx_HAL_Driver/Src/stm32l0xx_hal_dma.c ****     {
 685:Drivers/STM32L0xx_HAL_Driver/Src/stm32l0xx_hal_dma.c ****      case  HAL_DMA_XFER_CPLT_CB_ID:
 686:Drivers/STM32L0xx_HAL_Driver/Src/stm32l0xx_hal_dma.c ****            hdma->XferCpltCallback = pCallback;
 687:Drivers/STM32L0xx_HAL_Driver/Src/stm32l0xx_hal_dma.c ****            break;
 688:Drivers/STM32L0xx_HAL_Driver/Src/stm32l0xx_hal_dma.c **** 
 689:Drivers/STM32L0xx_HAL_Driver/Src/stm32l0xx_hal_dma.c ****      case  HAL_DMA_XFER_HALFCPLT_CB_ID:
 690:Drivers/STM32L0xx_HAL_Driver/Src/stm32l0xx_hal_dma.c ****            hdma->XferHalfCpltCallback = pCallback;
 691:Drivers/STM32L0xx_HAL_Driver/Src/stm32l0xx_hal_dma.c ****            break;
 692:Drivers/STM32L0xx_HAL_Driver/Src/stm32l0xx_hal_dma.c **** 
 693:Drivers/STM32L0xx_HAL_Driver/Src/stm32l0xx_hal_dma.c ****      case  HAL_DMA_XFER_ERROR_CB_ID:
 694:Drivers/STM32L0xx_HAL_Driver/Src/stm32l0xx_hal_dma.c ****            hdma->XferErrorCallback = pCallback;
 695:Drivers/STM32L0xx_HAL_Driver/Src/stm32l0xx_hal_dma.c ****            break;
 696:Drivers/STM32L0xx_HAL_Driver/Src/stm32l0xx_hal_dma.c **** 
 697:Drivers/STM32L0xx_HAL_Driver/Src/stm32l0xx_hal_dma.c ****      case  HAL_DMA_XFER_ABORT_CB_ID:
 698:Drivers/STM32L0xx_HAL_Driver/Src/stm32l0xx_hal_dma.c ****            hdma->XferAbortCallback = pCallback;
 699:Drivers/STM32L0xx_HAL_Driver/Src/stm32l0xx_hal_dma.c ****            break;
 700:Drivers/STM32L0xx_HAL_Driver/Src/stm32l0xx_hal_dma.c **** 
 701:Drivers/STM32L0xx_HAL_Driver/Src/stm32l0xx_hal_dma.c ****      default:
 702:Drivers/STM32L0xx_HAL_Driver/Src/stm32l0xx_hal_dma.c ****            status = HAL_ERROR;
 703:Drivers/STM32L0xx_HAL_Driver/Src/stm32l0xx_hal_dma.c ****            break;
 704:Drivers/STM32L0xx_HAL_Driver/Src/stm32l0xx_hal_dma.c ****     }
 705:Drivers/STM32L0xx_HAL_Driver/Src/stm32l0xx_hal_dma.c ****   }
 706:Drivers/STM32L0xx_HAL_Driver/Src/stm32l0xx_hal_dma.c ****   else
 707:Drivers/STM32L0xx_HAL_Driver/Src/stm32l0xx_hal_dma.c ****   {
 708:Drivers/STM32L0xx_HAL_Driver/Src/stm32l0xx_hal_dma.c ****     status = HAL_ERROR;
 709:Drivers/STM32L0xx_HAL_Driver/Src/stm32l0xx_hal_dma.c ****   }
 710:Drivers/STM32L0xx_HAL_Driver/Src/stm32l0xx_hal_dma.c **** 
 711:Drivers/STM32L0xx_HAL_Driver/Src/stm32l0xx_hal_dma.c ****   /* Release Lock */
 712:Drivers/STM32L0xx_HAL_Driver/Src/stm32l0xx_hal_dma.c ****   __HAL_UNLOCK(hdma);
 713:Drivers/STM32L0xx_HAL_Driver/Src/stm32l0xx_hal_dma.c **** 
 714:Drivers/STM32L0xx_HAL_Driver/Src/stm32l0xx_hal_dma.c ****   return status;
 715:Drivers/STM32L0xx_HAL_Driver/Src/stm32l0xx_hal_dma.c **** }
 716:Drivers/STM32L0xx_HAL_Driver/Src/stm32l0xx_hal_dma.c **** 
ARM GAS  /tmp/ccjzcf4U.s 			page 14


 717:Drivers/STM32L0xx_HAL_Driver/Src/stm32l0xx_hal_dma.c **** /**
 718:Drivers/STM32L0xx_HAL_Driver/Src/stm32l0xx_hal_dma.c ****   * @brief  UnRegister callbacks
 719:Drivers/STM32L0xx_HAL_Driver/Src/stm32l0xx_hal_dma.c ****   * @param  hdma                 pointer to a DMA_HandleTypeDef structure that contains
 720:Drivers/STM32L0xx_HAL_Driver/Src/stm32l0xx_hal_dma.c ****   *                               the configuration information for the specified DMA Channel.
 721:Drivers/STM32L0xx_HAL_Driver/Src/stm32l0xx_hal_dma.c ****   * @param  CallbackID           User Callback identifier
 722:Drivers/STM32L0xx_HAL_Driver/Src/stm32l0xx_hal_dma.c ****   *                               a HAL_DMA_CallbackIDTypeDef ENUM as parameter.
 723:Drivers/STM32L0xx_HAL_Driver/Src/stm32l0xx_hal_dma.c ****   * @retval HAL status
 724:Drivers/STM32L0xx_HAL_Driver/Src/stm32l0xx_hal_dma.c ****   */
 725:Drivers/STM32L0xx_HAL_Driver/Src/stm32l0xx_hal_dma.c **** HAL_StatusTypeDef HAL_DMA_UnRegisterCallback(DMA_HandleTypeDef *hdma, HAL_DMA_CallbackIDTypeDef Cal
 726:Drivers/STM32L0xx_HAL_Driver/Src/stm32l0xx_hal_dma.c **** {
 727:Drivers/STM32L0xx_HAL_Driver/Src/stm32l0xx_hal_dma.c ****   HAL_StatusTypeDef status = HAL_OK;
 728:Drivers/STM32L0xx_HAL_Driver/Src/stm32l0xx_hal_dma.c **** 
 729:Drivers/STM32L0xx_HAL_Driver/Src/stm32l0xx_hal_dma.c ****     /* Process locked */
 730:Drivers/STM32L0xx_HAL_Driver/Src/stm32l0xx_hal_dma.c ****   __HAL_LOCK(hdma);
 731:Drivers/STM32L0xx_HAL_Driver/Src/stm32l0xx_hal_dma.c **** 
 732:Drivers/STM32L0xx_HAL_Driver/Src/stm32l0xx_hal_dma.c ****   if(HAL_DMA_STATE_READY == hdma->State)
 733:Drivers/STM32L0xx_HAL_Driver/Src/stm32l0xx_hal_dma.c ****   {
 734:Drivers/STM32L0xx_HAL_Driver/Src/stm32l0xx_hal_dma.c ****     switch (CallbackID)
 735:Drivers/STM32L0xx_HAL_Driver/Src/stm32l0xx_hal_dma.c ****     {
 736:Drivers/STM32L0xx_HAL_Driver/Src/stm32l0xx_hal_dma.c ****      case  HAL_DMA_XFER_CPLT_CB_ID:
 737:Drivers/STM32L0xx_HAL_Driver/Src/stm32l0xx_hal_dma.c ****            hdma->XferCpltCallback = NULL;
 738:Drivers/STM32L0xx_HAL_Driver/Src/stm32l0xx_hal_dma.c ****            break;
 739:Drivers/STM32L0xx_HAL_Driver/Src/stm32l0xx_hal_dma.c **** 
 740:Drivers/STM32L0xx_HAL_Driver/Src/stm32l0xx_hal_dma.c ****      case  HAL_DMA_XFER_HALFCPLT_CB_ID:
 741:Drivers/STM32L0xx_HAL_Driver/Src/stm32l0xx_hal_dma.c ****            hdma->XferHalfCpltCallback = NULL;
 742:Drivers/STM32L0xx_HAL_Driver/Src/stm32l0xx_hal_dma.c ****            break;
 743:Drivers/STM32L0xx_HAL_Driver/Src/stm32l0xx_hal_dma.c **** 
 744:Drivers/STM32L0xx_HAL_Driver/Src/stm32l0xx_hal_dma.c ****      case  HAL_DMA_XFER_ERROR_CB_ID:
 745:Drivers/STM32L0xx_HAL_Driver/Src/stm32l0xx_hal_dma.c ****            hdma->XferErrorCallback = NULL;
 746:Drivers/STM32L0xx_HAL_Driver/Src/stm32l0xx_hal_dma.c ****            break;
 747:Drivers/STM32L0xx_HAL_Driver/Src/stm32l0xx_hal_dma.c **** 
 748:Drivers/STM32L0xx_HAL_Driver/Src/stm32l0xx_hal_dma.c ****      case  HAL_DMA_XFER_ABORT_CB_ID:
 749:Drivers/STM32L0xx_HAL_Driver/Src/stm32l0xx_hal_dma.c ****            hdma->XferAbortCallback = NULL;
 750:Drivers/STM32L0xx_HAL_Driver/Src/stm32l0xx_hal_dma.c ****            break;
 751:Drivers/STM32L0xx_HAL_Driver/Src/stm32l0xx_hal_dma.c **** 
 752:Drivers/STM32L0xx_HAL_Driver/Src/stm32l0xx_hal_dma.c ****     case   HAL_DMA_XFER_ALL_CB_ID:
 753:Drivers/STM32L0xx_HAL_Driver/Src/stm32l0xx_hal_dma.c ****            hdma->XferCpltCallback = NULL;
 754:Drivers/STM32L0xx_HAL_Driver/Src/stm32l0xx_hal_dma.c ****            hdma->XferHalfCpltCallback = NULL;
 755:Drivers/STM32L0xx_HAL_Driver/Src/stm32l0xx_hal_dma.c ****            hdma->XferErrorCallback = NULL;
 756:Drivers/STM32L0xx_HAL_Driver/Src/stm32l0xx_hal_dma.c ****            hdma->XferAbortCallback = NULL;
 757:Drivers/STM32L0xx_HAL_Driver/Src/stm32l0xx_hal_dma.c ****            break;
 758:Drivers/STM32L0xx_HAL_Driver/Src/stm32l0xx_hal_dma.c **** 
 759:Drivers/STM32L0xx_HAL_Driver/Src/stm32l0xx_hal_dma.c ****     default:
 760:Drivers/STM32L0xx_HAL_Driver/Src/stm32l0xx_hal_dma.c ****            status = HAL_ERROR;
 761:Drivers/STM32L0xx_HAL_Driver/Src/stm32l0xx_hal_dma.c ****            break;
 762:Drivers/STM32L0xx_HAL_Driver/Src/stm32l0xx_hal_dma.c ****     }
 763:Drivers/STM32L0xx_HAL_Driver/Src/stm32l0xx_hal_dma.c ****   }
 764:Drivers/STM32L0xx_HAL_Driver/Src/stm32l0xx_hal_dma.c ****   else
 765:Drivers/STM32L0xx_HAL_Driver/Src/stm32l0xx_hal_dma.c ****   {
 766:Drivers/STM32L0xx_HAL_Driver/Src/stm32l0xx_hal_dma.c ****     status = HAL_ERROR;
 767:Drivers/STM32L0xx_HAL_Driver/Src/stm32l0xx_hal_dma.c ****   }
 768:Drivers/STM32L0xx_HAL_Driver/Src/stm32l0xx_hal_dma.c **** 
 769:Drivers/STM32L0xx_HAL_Driver/Src/stm32l0xx_hal_dma.c ****   /* Release Lock */
 770:Drivers/STM32L0xx_HAL_Driver/Src/stm32l0xx_hal_dma.c ****   __HAL_UNLOCK(hdma);
 771:Drivers/STM32L0xx_HAL_Driver/Src/stm32l0xx_hal_dma.c **** 
 772:Drivers/STM32L0xx_HAL_Driver/Src/stm32l0xx_hal_dma.c ****   return status;
 773:Drivers/STM32L0xx_HAL_Driver/Src/stm32l0xx_hal_dma.c **** }
ARM GAS  /tmp/ccjzcf4U.s 			page 15


 774:Drivers/STM32L0xx_HAL_Driver/Src/stm32l0xx_hal_dma.c **** 
 775:Drivers/STM32L0xx_HAL_Driver/Src/stm32l0xx_hal_dma.c **** /**
 776:Drivers/STM32L0xx_HAL_Driver/Src/stm32l0xx_hal_dma.c ****   * @}
 777:Drivers/STM32L0xx_HAL_Driver/Src/stm32l0xx_hal_dma.c ****   */
 778:Drivers/STM32L0xx_HAL_Driver/Src/stm32l0xx_hal_dma.c **** 
 779:Drivers/STM32L0xx_HAL_Driver/Src/stm32l0xx_hal_dma.c **** 
 780:Drivers/STM32L0xx_HAL_Driver/Src/stm32l0xx_hal_dma.c **** 
 781:Drivers/STM32L0xx_HAL_Driver/Src/stm32l0xx_hal_dma.c **** /** @defgroup DMA_Exported_Functions_Group3 Peripheral State and Errors functions
 782:Drivers/STM32L0xx_HAL_Driver/Src/stm32l0xx_hal_dma.c ****  *  @brief    Peripheral State and Errors functions
 783:Drivers/STM32L0xx_HAL_Driver/Src/stm32l0xx_hal_dma.c ****  *
 784:Drivers/STM32L0xx_HAL_Driver/Src/stm32l0xx_hal_dma.c **** @verbatim
 785:Drivers/STM32L0xx_HAL_Driver/Src/stm32l0xx_hal_dma.c ****  ===============================================================================
 786:Drivers/STM32L0xx_HAL_Driver/Src/stm32l0xx_hal_dma.c ****             ##### Peripheral State and Errors functions #####
 787:Drivers/STM32L0xx_HAL_Driver/Src/stm32l0xx_hal_dma.c ****  ===============================================================================
 788:Drivers/STM32L0xx_HAL_Driver/Src/stm32l0xx_hal_dma.c ****     [..]
 789:Drivers/STM32L0xx_HAL_Driver/Src/stm32l0xx_hal_dma.c ****     This subsection provides functions allowing to
 790:Drivers/STM32L0xx_HAL_Driver/Src/stm32l0xx_hal_dma.c ****       (+) Check the DMA state
 791:Drivers/STM32L0xx_HAL_Driver/Src/stm32l0xx_hal_dma.c ****       (+) Get error code
 792:Drivers/STM32L0xx_HAL_Driver/Src/stm32l0xx_hal_dma.c **** 
 793:Drivers/STM32L0xx_HAL_Driver/Src/stm32l0xx_hal_dma.c **** @endverbatim
 794:Drivers/STM32L0xx_HAL_Driver/Src/stm32l0xx_hal_dma.c ****   * @{
 795:Drivers/STM32L0xx_HAL_Driver/Src/stm32l0xx_hal_dma.c ****   */
 796:Drivers/STM32L0xx_HAL_Driver/Src/stm32l0xx_hal_dma.c **** 
 797:Drivers/STM32L0xx_HAL_Driver/Src/stm32l0xx_hal_dma.c **** /**
 798:Drivers/STM32L0xx_HAL_Driver/Src/stm32l0xx_hal_dma.c ****   * @brief  Return the DMA handle state.
 799:Drivers/STM32L0xx_HAL_Driver/Src/stm32l0xx_hal_dma.c ****   * @param  hdma pointer to a DMA_HandleTypeDef structure that contains
 800:Drivers/STM32L0xx_HAL_Driver/Src/stm32l0xx_hal_dma.c ****   *               the configuration information for the specified DMA Channel.
 801:Drivers/STM32L0xx_HAL_Driver/Src/stm32l0xx_hal_dma.c ****   * @retval HAL state
 802:Drivers/STM32L0xx_HAL_Driver/Src/stm32l0xx_hal_dma.c ****   */
 803:Drivers/STM32L0xx_HAL_Driver/Src/stm32l0xx_hal_dma.c **** HAL_DMA_StateTypeDef HAL_DMA_GetState(DMA_HandleTypeDef *hdma)
 804:Drivers/STM32L0xx_HAL_Driver/Src/stm32l0xx_hal_dma.c **** {
 805:Drivers/STM32L0xx_HAL_Driver/Src/stm32l0xx_hal_dma.c ****   /* Return DMA handle state */
 806:Drivers/STM32L0xx_HAL_Driver/Src/stm32l0xx_hal_dma.c ****   return hdma->State;
 807:Drivers/STM32L0xx_HAL_Driver/Src/stm32l0xx_hal_dma.c **** }
 808:Drivers/STM32L0xx_HAL_Driver/Src/stm32l0xx_hal_dma.c **** 
 809:Drivers/STM32L0xx_HAL_Driver/Src/stm32l0xx_hal_dma.c **** /**
 810:Drivers/STM32L0xx_HAL_Driver/Src/stm32l0xx_hal_dma.c ****   * @brief  Return the DMA error code.
 811:Drivers/STM32L0xx_HAL_Driver/Src/stm32l0xx_hal_dma.c ****   * @param  hdma pointer to a DMA_HandleTypeDef structure that contains
 812:Drivers/STM32L0xx_HAL_Driver/Src/stm32l0xx_hal_dma.c ****   *              the configuration information for the specified DMA Channel.
 813:Drivers/STM32L0xx_HAL_Driver/Src/stm32l0xx_hal_dma.c ****   * @retval DMA Error Code
 814:Drivers/STM32L0xx_HAL_Driver/Src/stm32l0xx_hal_dma.c ****   */
 815:Drivers/STM32L0xx_HAL_Driver/Src/stm32l0xx_hal_dma.c **** uint32_t HAL_DMA_GetError(DMA_HandleTypeDef *hdma)
 816:Drivers/STM32L0xx_HAL_Driver/Src/stm32l0xx_hal_dma.c **** {
 817:Drivers/STM32L0xx_HAL_Driver/Src/stm32l0xx_hal_dma.c ****   return hdma->ErrorCode;
 818:Drivers/STM32L0xx_HAL_Driver/Src/stm32l0xx_hal_dma.c **** }
 819:Drivers/STM32L0xx_HAL_Driver/Src/stm32l0xx_hal_dma.c **** 
 820:Drivers/STM32L0xx_HAL_Driver/Src/stm32l0xx_hal_dma.c **** /**
 821:Drivers/STM32L0xx_HAL_Driver/Src/stm32l0xx_hal_dma.c ****   * @}
 822:Drivers/STM32L0xx_HAL_Driver/Src/stm32l0xx_hal_dma.c ****   */
 823:Drivers/STM32L0xx_HAL_Driver/Src/stm32l0xx_hal_dma.c **** 
 824:Drivers/STM32L0xx_HAL_Driver/Src/stm32l0xx_hal_dma.c **** /**
 825:Drivers/STM32L0xx_HAL_Driver/Src/stm32l0xx_hal_dma.c ****   * @}
 826:Drivers/STM32L0xx_HAL_Driver/Src/stm32l0xx_hal_dma.c ****   */
 827:Drivers/STM32L0xx_HAL_Driver/Src/stm32l0xx_hal_dma.c **** 
 828:Drivers/STM32L0xx_HAL_Driver/Src/stm32l0xx_hal_dma.c **** /** @addtogroup DMA_Private_Functions
 829:Drivers/STM32L0xx_HAL_Driver/Src/stm32l0xx_hal_dma.c ****   * @{
 830:Drivers/STM32L0xx_HAL_Driver/Src/stm32l0xx_hal_dma.c ****   */
ARM GAS  /tmp/ccjzcf4U.s 			page 16


 831:Drivers/STM32L0xx_HAL_Driver/Src/stm32l0xx_hal_dma.c **** 
 832:Drivers/STM32L0xx_HAL_Driver/Src/stm32l0xx_hal_dma.c **** /**
 833:Drivers/STM32L0xx_HAL_Driver/Src/stm32l0xx_hal_dma.c ****   * @brief  Sets the DMA Transfer parameter.
 834:Drivers/STM32L0xx_HAL_Driver/Src/stm32l0xx_hal_dma.c ****   * @param  hdma       pointer to a DMA_HandleTypeDef structure that contains
 835:Drivers/STM32L0xx_HAL_Driver/Src/stm32l0xx_hal_dma.c ****   *                     the configuration information for the specified DMA Channel.
 836:Drivers/STM32L0xx_HAL_Driver/Src/stm32l0xx_hal_dma.c ****   * @param  SrcAddress The source memory Buffer address
 837:Drivers/STM32L0xx_HAL_Driver/Src/stm32l0xx_hal_dma.c ****   * @param  DstAddress The destination memory Buffer address
 838:Drivers/STM32L0xx_HAL_Driver/Src/stm32l0xx_hal_dma.c ****   * @param  DataLength The amount of data items to be transferred from source to destination
 839:Drivers/STM32L0xx_HAL_Driver/Src/stm32l0xx_hal_dma.c ****   * @retval HAL status
 840:Drivers/STM32L0xx_HAL_Driver/Src/stm32l0xx_hal_dma.c ****   */
 841:Drivers/STM32L0xx_HAL_Driver/Src/stm32l0xx_hal_dma.c **** static void DMA_SetConfig(DMA_HandleTypeDef *hdma, uint32_t SrcAddress, uint32_t DstAddress, uint32
 842:Drivers/STM32L0xx_HAL_Driver/Src/stm32l0xx_hal_dma.c **** {
  27              		.loc 1 842 1 view -0
  28              		.cfi_startproc
  29              		@ args = 0, pretend = 0, frame = 0
  30              		@ frame_needed = 0, uses_anonymous_args = 0
  31              		.loc 1 842 1 is_stmt 0 view .LVU1
  32 0000 70B5     		push	{r4, r5, r6, lr}
  33              		.cfi_def_cfa_offset 16
  34              		.cfi_offset 4, -16
  35              		.cfi_offset 5, -12
  36              		.cfi_offset 6, -8
  37              		.cfi_offset 14, -4
 843:Drivers/STM32L0xx_HAL_Driver/Src/stm32l0xx_hal_dma.c ****   /* Clear all flags */
 844:Drivers/STM32L0xx_HAL_Driver/Src/stm32l0xx_hal_dma.c ****   hdma->DmaBaseAddress->IFCR = (DMA_ISR_GIF1 << (hdma->ChannelIndex & 0x1cU));
  38              		.loc 1 844 3 is_stmt 1 view .LVU2
  39              		.loc 1 844 54 is_stmt 0 view .LVU3
  40 0002 446C     		ldr	r4, [r0, #68]
  41              		.loc 1 844 69 view .LVU4
  42 0004 1C25     		movs	r5, #28
  43 0006 2540     		ands	r5, r4
  44              		.loc 1 844 7 view .LVU5
  45 0008 066C     		ldr	r6, [r0, #64]
  46              		.loc 1 844 46 view .LVU6
  47 000a 0124     		movs	r4, #1
  48 000c AC40     		lsls	r4, r4, r5
  49              		.loc 1 844 30 view .LVU7
  50 000e 7460     		str	r4, [r6, #4]
 845:Drivers/STM32L0xx_HAL_Driver/Src/stm32l0xx_hal_dma.c **** 
 846:Drivers/STM32L0xx_HAL_Driver/Src/stm32l0xx_hal_dma.c ****   /* Configure DMA Channel data length */
 847:Drivers/STM32L0xx_HAL_Driver/Src/stm32l0xx_hal_dma.c ****   hdma->Instance->CNDTR = DataLength;
  51              		.loc 1 847 3 is_stmt 1 view .LVU8
  52              		.loc 1 847 7 is_stmt 0 view .LVU9
  53 0010 0468     		ldr	r4, [r0]
  54              		.loc 1 847 25 view .LVU10
  55 0012 6360     		str	r3, [r4, #4]
 848:Drivers/STM32L0xx_HAL_Driver/Src/stm32l0xx_hal_dma.c **** 
 849:Drivers/STM32L0xx_HAL_Driver/Src/stm32l0xx_hal_dma.c ****   /* Memory to Peripheral */
 850:Drivers/STM32L0xx_HAL_Driver/Src/stm32l0xx_hal_dma.c ****   if((hdma->Init.Direction) == DMA_MEMORY_TO_PERIPH)
  56              		.loc 1 850 3 is_stmt 1 view .LVU11
  57              		.loc 1 850 17 is_stmt 0 view .LVU12
  58 0014 8368     		ldr	r3, [r0, #8]
  59              	.LVL1:
  60              		.loc 1 850 5 view .LVU13
  61 0016 102B     		cmp	r3, #16
  62 0018 04D0     		beq	.L4
 851:Drivers/STM32L0xx_HAL_Driver/Src/stm32l0xx_hal_dma.c ****   {
ARM GAS  /tmp/ccjzcf4U.s 			page 17


 852:Drivers/STM32L0xx_HAL_Driver/Src/stm32l0xx_hal_dma.c ****     /* Configure DMA Channel destination address */
 853:Drivers/STM32L0xx_HAL_Driver/Src/stm32l0xx_hal_dma.c ****     hdma->Instance->CPAR = DstAddress;
 854:Drivers/STM32L0xx_HAL_Driver/Src/stm32l0xx_hal_dma.c **** 
 855:Drivers/STM32L0xx_HAL_Driver/Src/stm32l0xx_hal_dma.c ****     /* Configure DMA Channel source address */
 856:Drivers/STM32L0xx_HAL_Driver/Src/stm32l0xx_hal_dma.c ****     hdma->Instance->CMAR = SrcAddress;
 857:Drivers/STM32L0xx_HAL_Driver/Src/stm32l0xx_hal_dma.c ****   }
 858:Drivers/STM32L0xx_HAL_Driver/Src/stm32l0xx_hal_dma.c ****   /* Peripheral to Memory */
 859:Drivers/STM32L0xx_HAL_Driver/Src/stm32l0xx_hal_dma.c ****   else
 860:Drivers/STM32L0xx_HAL_Driver/Src/stm32l0xx_hal_dma.c ****   {
 861:Drivers/STM32L0xx_HAL_Driver/Src/stm32l0xx_hal_dma.c ****     /* Configure DMA Channel source address */
 862:Drivers/STM32L0xx_HAL_Driver/Src/stm32l0xx_hal_dma.c ****     hdma->Instance->CPAR = SrcAddress;
  63              		.loc 1 862 5 is_stmt 1 view .LVU14
  64              		.loc 1 862 9 is_stmt 0 view .LVU15
  65 001a 0368     		ldr	r3, [r0]
  66              		.loc 1 862 26 view .LVU16
  67 001c 9960     		str	r1, [r3, #8]
  68              	.LVL2:
 863:Drivers/STM32L0xx_HAL_Driver/Src/stm32l0xx_hal_dma.c **** 
 864:Drivers/STM32L0xx_HAL_Driver/Src/stm32l0xx_hal_dma.c ****     /* Configure DMA Channel destination address */
 865:Drivers/STM32L0xx_HAL_Driver/Src/stm32l0xx_hal_dma.c ****     hdma->Instance->CMAR = DstAddress;
  69              		.loc 1 865 5 is_stmt 1 view .LVU17
  70              		.loc 1 865 9 is_stmt 0 view .LVU18
  71 001e 0368     		ldr	r3, [r0]
  72              		.loc 1 865 26 view .LVU19
  73 0020 DA60     		str	r2, [r3, #12]
  74              	.L1:
 866:Drivers/STM32L0xx_HAL_Driver/Src/stm32l0xx_hal_dma.c ****   }
 867:Drivers/STM32L0xx_HAL_Driver/Src/stm32l0xx_hal_dma.c **** }
  75              		.loc 1 867 1 view .LVU20
  76              		@ sp needed
  77 0022 70BD     		pop	{r4, r5, r6, pc}
  78              	.LVL3:
  79              	.L4:
 853:Drivers/STM32L0xx_HAL_Driver/Src/stm32l0xx_hal_dma.c **** 
  80              		.loc 1 853 5 is_stmt 1 view .LVU21
 853:Drivers/STM32L0xx_HAL_Driver/Src/stm32l0xx_hal_dma.c **** 
  81              		.loc 1 853 9 is_stmt 0 view .LVU22
  82 0024 0368     		ldr	r3, [r0]
 853:Drivers/STM32L0xx_HAL_Driver/Src/stm32l0xx_hal_dma.c **** 
  83              		.loc 1 853 26 view .LVU23
  84 0026 9A60     		str	r2, [r3, #8]
  85              	.LVL4:
 856:Drivers/STM32L0xx_HAL_Driver/Src/stm32l0xx_hal_dma.c ****   }
  86              		.loc 1 856 5 is_stmt 1 view .LVU24
 856:Drivers/STM32L0xx_HAL_Driver/Src/stm32l0xx_hal_dma.c ****   }
  87              		.loc 1 856 9 is_stmt 0 view .LVU25
  88 0028 0368     		ldr	r3, [r0]
 856:Drivers/STM32L0xx_HAL_Driver/Src/stm32l0xx_hal_dma.c ****   }
  89              		.loc 1 856 26 view .LVU26
  90 002a D960     		str	r1, [r3, #12]
  91 002c F9E7     		b	.L1
  92              		.cfi_endproc
  93              	.LFE52:
  95              		.global	__aeabi_uidiv
  96              		.section	.text.HAL_DMA_Init,"ax",%progbits
  97              		.align	1
  98              		.global	HAL_DMA_Init
ARM GAS  /tmp/ccjzcf4U.s 			page 18


  99              		.syntax unified
 100              		.code	16
 101              		.thumb_func
 103              	HAL_DMA_Init:
 104              	.LVL5:
 105              	.LFB40:
 141:Drivers/STM32L0xx_HAL_Driver/Src/stm32l0xx_hal_dma.c ****   uint32_t tmp;
 106              		.loc 1 141 1 is_stmt 1 view -0
 107              		.cfi_startproc
 108              		@ args = 0, pretend = 0, frame = 0
 109              		@ frame_needed = 0, uses_anonymous_args = 0
 141:Drivers/STM32L0xx_HAL_Driver/Src/stm32l0xx_hal_dma.c ****   uint32_t tmp;
 110              		.loc 1 141 1 is_stmt 0 view .LVU28
 111 0000 70B5     		push	{r4, r5, r6, lr}
 112              		.cfi_def_cfa_offset 16
 113              		.cfi_offset 4, -16
 114              		.cfi_offset 5, -12
 115              		.cfi_offset 6, -8
 116              		.cfi_offset 14, -4
 117 0002 041E     		subs	r4, r0, #0
 142:Drivers/STM32L0xx_HAL_Driver/Src/stm32l0xx_hal_dma.c **** 
 118              		.loc 1 142 3 is_stmt 1 view .LVU29
 145:Drivers/STM32L0xx_HAL_Driver/Src/stm32l0xx_hal_dma.c ****   {
 119              		.loc 1 145 3 view .LVU30
 145:Drivers/STM32L0xx_HAL_Driver/Src/stm32l0xx_hal_dma.c ****   {
 120              		.loc 1 145 5 is_stmt 0 view .LVU31
 121 0004 3DD0     		beq	.L8
 151:Drivers/STM32L0xx_HAL_Driver/Src/stm32l0xx_hal_dma.c ****   assert_param(IS_DMA_ALL_REQUEST(hdma->Init.Request));
 122              		.loc 1 151 3 is_stmt 1 view .LVU32
 152:Drivers/STM32L0xx_HAL_Driver/Src/stm32l0xx_hal_dma.c ****   assert_param(IS_DMA_DIRECTION(hdma->Init.Direction));
 123              		.loc 1 152 3 view .LVU33
 153:Drivers/STM32L0xx_HAL_Driver/Src/stm32l0xx_hal_dma.c ****   assert_param(IS_DMA_PERIPHERAL_INC_STATE(hdma->Init.PeriphInc));
 124              		.loc 1 153 3 view .LVU34
 154:Drivers/STM32L0xx_HAL_Driver/Src/stm32l0xx_hal_dma.c ****   assert_param(IS_DMA_MEMORY_INC_STATE(hdma->Init.MemInc));
 125              		.loc 1 154 3 view .LVU35
 155:Drivers/STM32L0xx_HAL_Driver/Src/stm32l0xx_hal_dma.c ****   assert_param(IS_DMA_PERIPHERAL_DATA_SIZE(hdma->Init.PeriphDataAlignment));
 126              		.loc 1 155 3 view .LVU36
 156:Drivers/STM32L0xx_HAL_Driver/Src/stm32l0xx_hal_dma.c ****   assert_param(IS_DMA_MEMORY_DATA_SIZE(hdma->Init.MemDataAlignment));
 127              		.loc 1 156 3 view .LVU37
 157:Drivers/STM32L0xx_HAL_Driver/Src/stm32l0xx_hal_dma.c ****   assert_param(IS_DMA_MODE(hdma->Init.Mode));
 128              		.loc 1 157 3 view .LVU38
 158:Drivers/STM32L0xx_HAL_Driver/Src/stm32l0xx_hal_dma.c ****   assert_param(IS_DMA_PRIORITY(hdma->Init.Priority));
 129              		.loc 1 158 3 view .LVU39
 159:Drivers/STM32L0xx_HAL_Driver/Src/stm32l0xx_hal_dma.c **** 
 130              		.loc 1 159 3 view .LVU40
 163:Drivers/STM32L0xx_HAL_Driver/Src/stm32l0xx_hal_dma.c ****   hdma->DmaBaseAddress = DMA1;
 131              		.loc 1 163 3 view .LVU41
 163:Drivers/STM32L0xx_HAL_Driver/Src/stm32l0xx_hal_dma.c ****   hdma->DmaBaseAddress = DMA1;
 132              		.loc 1 163 40 is_stmt 0 view .LVU42
 133 0006 0568     		ldr	r5, [r0]
 163:Drivers/STM32L0xx_HAL_Driver/Src/stm32l0xx_hal_dma.c ****   hdma->DmaBaseAddress = DMA1;
 134              		.loc 1 163 51 view .LVU43
 135 0008 1F4B     		ldr	r3, .L9
 136 000a E818     		adds	r0, r5, r3
 137              	.LVL6:
 163:Drivers/STM32L0xx_HAL_Driver/Src/stm32l0xx_hal_dma.c ****   hdma->DmaBaseAddress = DMA1;
 138              		.loc 1 163 78 view .LVU44
ARM GAS  /tmp/ccjzcf4U.s 			page 19


 139 000c 1421     		movs	r1, #20
 140 000e FFF7FEFF 		bl	__aeabi_uidiv
 141              	.LVL7:
 163:Drivers/STM32L0xx_HAL_Driver/Src/stm32l0xx_hal_dma.c ****   hdma->DmaBaseAddress = DMA1;
 142              		.loc 1 163 133 view .LVU45
 143 0012 8000     		lsls	r0, r0, #2
 163:Drivers/STM32L0xx_HAL_Driver/Src/stm32l0xx_hal_dma.c ****   hdma->DmaBaseAddress = DMA1;
 144              		.loc 1 163 22 view .LVU46
 145 0014 6064     		str	r0, [r4, #68]
 164:Drivers/STM32L0xx_HAL_Driver/Src/stm32l0xx_hal_dma.c **** 
 146              		.loc 1 164 3 is_stmt 1 view .LVU47
 164:Drivers/STM32L0xx_HAL_Driver/Src/stm32l0xx_hal_dma.c **** 
 147              		.loc 1 164 24 is_stmt 0 view .LVU48
 148 0016 1D4B     		ldr	r3, .L9+4
 149 0018 2364     		str	r3, [r4, #64]
 167:Drivers/STM32L0xx_HAL_Driver/Src/stm32l0xx_hal_dma.c **** 
 150              		.loc 1 167 3 is_stmt 1 view .LVU49
 167:Drivers/STM32L0xx_HAL_Driver/Src/stm32l0xx_hal_dma.c **** 
 151              		.loc 1 167 15 is_stmt 0 view .LVU50
 152 001a 2523     		movs	r3, #37
 153 001c 0222     		movs	r2, #2
 154 001e E254     		strb	r2, [r4, r3]
 170:Drivers/STM32L0xx_HAL_Driver/Src/stm32l0xx_hal_dma.c **** 
 155              		.loc 1 170 3 is_stmt 1 view .LVU51
 170:Drivers/STM32L0xx_HAL_Driver/Src/stm32l0xx_hal_dma.c **** 
 156              		.loc 1 170 7 is_stmt 0 view .LVU52
 157 0020 2A68     		ldr	r2, [r5]
 158              	.LVL8:
 173:Drivers/STM32L0xx_HAL_Driver/Src/stm32l0xx_hal_dma.c ****                       DMA_CCR_MINC  | DMA_CCR_PINC   | DMA_CCR_CIRC   |
 159              		.loc 1 173 3 is_stmt 1 view .LVU53
 173:Drivers/STM32L0xx_HAL_Driver/Src/stm32l0xx_hal_dma.c ****                       DMA_CCR_MINC  | DMA_CCR_PINC   | DMA_CCR_CIRC   |
 160              		.loc 1 173 7 is_stmt 0 view .LVU54
 161 0022 1B4B     		ldr	r3, .L9+8
 162 0024 1A40     		ands	r2, r3
 163              	.LVL9:
 178:Drivers/STM32L0xx_HAL_Driver/Src/stm32l0xx_hal_dma.c ****           hdma->Init.PeriphInc           | hdma->Init.MemInc           |
 164              		.loc 1 178 3 is_stmt 1 view .LVU55
 178:Drivers/STM32L0xx_HAL_Driver/Src/stm32l0xx_hal_dma.c ****           hdma->Init.PeriphInc           | hdma->Init.MemInc           |
 165              		.loc 1 178 21 is_stmt 0 view .LVU56
 166 0026 A368     		ldr	r3, [r4, #8]
 179:Drivers/STM32L0xx_HAL_Driver/Src/stm32l0xx_hal_dma.c ****           hdma->Init.PeriphDataAlignment | hdma->Init.MemDataAlignment |
 167              		.loc 1 179 21 view .LVU57
 168 0028 E168     		ldr	r1, [r4, #12]
 178:Drivers/STM32L0xx_HAL_Driver/Src/stm32l0xx_hal_dma.c ****           hdma->Init.PeriphInc           | hdma->Init.MemInc           |
 169              		.loc 1 178 39 view .LVU58
 170 002a 0B43     		orrs	r3, r1
 179:Drivers/STM32L0xx_HAL_Driver/Src/stm32l0xx_hal_dma.c ****           hdma->Init.PeriphDataAlignment | hdma->Init.MemDataAlignment |
 171              		.loc 1 179 54 view .LVU59
 172 002c 2169     		ldr	r1, [r4, #16]
 179:Drivers/STM32L0xx_HAL_Driver/Src/stm32l0xx_hal_dma.c ****           hdma->Init.PeriphDataAlignment | hdma->Init.MemDataAlignment |
 173              		.loc 1 179 42 view .LVU60
 174 002e 0B43     		orrs	r3, r1
 180:Drivers/STM32L0xx_HAL_Driver/Src/stm32l0xx_hal_dma.c ****           hdma->Init.Mode                | hdma->Init.Priority;
 175              		.loc 1 180 21 view .LVU61
 176 0030 6169     		ldr	r1, [r4, #20]
 179:Drivers/STM32L0xx_HAL_Driver/Src/stm32l0xx_hal_dma.c ****           hdma->Init.PeriphDataAlignment | hdma->Init.MemDataAlignment |
 177              		.loc 1 179 72 view .LVU62
ARM GAS  /tmp/ccjzcf4U.s 			page 20


 178 0032 0B43     		orrs	r3, r1
 180:Drivers/STM32L0xx_HAL_Driver/Src/stm32l0xx_hal_dma.c ****           hdma->Init.Mode                | hdma->Init.Priority;
 179              		.loc 1 180 54 view .LVU63
 180 0034 A169     		ldr	r1, [r4, #24]
 180:Drivers/STM32L0xx_HAL_Driver/Src/stm32l0xx_hal_dma.c ****           hdma->Init.Mode                | hdma->Init.Priority;
 181              		.loc 1 180 42 view .LVU64
 182 0036 0B43     		orrs	r3, r1
 181:Drivers/STM32L0xx_HAL_Driver/Src/stm32l0xx_hal_dma.c **** 
 183              		.loc 1 181 21 view .LVU65
 184 0038 E169     		ldr	r1, [r4, #28]
 180:Drivers/STM32L0xx_HAL_Driver/Src/stm32l0xx_hal_dma.c ****           hdma->Init.Mode                | hdma->Init.Priority;
 185              		.loc 1 180 72 view .LVU66
 186 003a 0B43     		orrs	r3, r1
 181:Drivers/STM32L0xx_HAL_Driver/Src/stm32l0xx_hal_dma.c **** 
 187              		.loc 1 181 54 view .LVU67
 188 003c 216A     		ldr	r1, [r4, #32]
 181:Drivers/STM32L0xx_HAL_Driver/Src/stm32l0xx_hal_dma.c **** 
 189              		.loc 1 181 42 view .LVU68
 190 003e 0B43     		orrs	r3, r1
 178:Drivers/STM32L0xx_HAL_Driver/Src/stm32l0xx_hal_dma.c ****           hdma->Init.PeriphInc           | hdma->Init.MemInc           |
 191              		.loc 1 178 7 view .LVU69
 192 0040 1343     		orrs	r3, r2
 193              	.LVL10:
 184:Drivers/STM32L0xx_HAL_Driver/Src/stm32l0xx_hal_dma.c **** 
 194              		.loc 1 184 3 is_stmt 1 view .LVU70
 184:Drivers/STM32L0xx_HAL_Driver/Src/stm32l0xx_hal_dma.c **** 
 195              		.loc 1 184 23 is_stmt 0 view .LVU71
 196 0042 2B60     		str	r3, [r5]
 187:Drivers/STM32L0xx_HAL_Driver/Src/stm32l0xx_hal_dma.c ****   {
 197              		.loc 1 187 3 is_stmt 1 view .LVU72
 187:Drivers/STM32L0xx_HAL_Driver/Src/stm32l0xx_hal_dma.c ****   {
 198              		.loc 1 187 16 is_stmt 0 view .LVU73
 199 0044 A268     		ldr	r2, [r4, #8]
 187:Drivers/STM32L0xx_HAL_Driver/Src/stm32l0xx_hal_dma.c ****   {
 200              		.loc 1 187 5 view .LVU74
 201 0046 8023     		movs	r3, #128
 202              	.LVL11:
 187:Drivers/STM32L0xx_HAL_Driver/Src/stm32l0xx_hal_dma.c ****   {
 203              		.loc 1 187 5 view .LVU75
 204 0048 DB01     		lsls	r3, r3, #7
 205 004a 9A42     		cmp	r2, r3
 206 004c 10D0     		beq	.L7
 191:Drivers/STM32L0xx_HAL_Driver/Src/stm32l0xx_hal_dma.c **** 
 207              		.loc 1 191 5 is_stmt 1 view .LVU76
 191:Drivers/STM32L0xx_HAL_Driver/Src/stm32l0xx_hal_dma.c **** 
 208              		.loc 1 191 15 is_stmt 0 view .LVU77
 209 004e 114B     		ldr	r3, .L9+12
 210 0050 1968     		ldr	r1, [r3]
 191:Drivers/STM32L0xx_HAL_Driver/Src/stm32l0xx_hal_dma.c **** 
 211              		.loc 1 191 50 view .LVU78
 212 0052 656C     		ldr	r5, [r4, #68]
 213              	.LVL12:
 191:Drivers/STM32L0xx_HAL_Driver/Src/stm32l0xx_hal_dma.c **** 
 214              		.loc 1 191 65 view .LVU79
 215 0054 1C22     		movs	r2, #28
 216 0056 1540     		ands	r5, r2
 191:Drivers/STM32L0xx_HAL_Driver/Src/stm32l0xx_hal_dma.c **** 
ARM GAS  /tmp/ccjzcf4U.s 			page 21


 217              		.loc 1 191 42 view .LVU80
 218 0058 0F20     		movs	r0, #15
 219 005a A840     		lsls	r0, r0, r5
 191:Drivers/STM32L0xx_HAL_Driver/Src/stm32l0xx_hal_dma.c **** 
 220              		.loc 1 191 23 view .LVU81
 221 005c 8143     		bics	r1, r0
 222 005e 1960     		str	r1, [r3]
 194:Drivers/STM32L0xx_HAL_Driver/Src/stm32l0xx_hal_dma.c ****   }
 223              		.loc 1 194 5 is_stmt 1 view .LVU82
 194:Drivers/STM32L0xx_HAL_Driver/Src/stm32l0xx_hal_dma.c ****   }
 224              		.loc 1 194 15 is_stmt 0 view .LVU83
 225 0060 1968     		ldr	r1, [r3]
 194:Drivers/STM32L0xx_HAL_Driver/Src/stm32l0xx_hal_dma.c ****   }
 226              		.loc 1 194 48 view .LVU84
 227 0062 6068     		ldr	r0, [r4, #4]
 194:Drivers/STM32L0xx_HAL_Driver/Src/stm32l0xx_hal_dma.c ****   }
 228              		.loc 1 194 65 view .LVU85
 229 0064 656C     		ldr	r5, [r4, #68]
 194:Drivers/STM32L0xx_HAL_Driver/Src/stm32l0xx_hal_dma.c ****   }
 230              		.loc 1 194 80 view .LVU86
 231 0066 2A40     		ands	r2, r5
 194:Drivers/STM32L0xx_HAL_Driver/Src/stm32l0xx_hal_dma.c ****   }
 232              		.loc 1 194 57 view .LVU87
 233 0068 9040     		lsls	r0, r0, r2
 234 006a 0200     		movs	r2, r0
 194:Drivers/STM32L0xx_HAL_Driver/Src/stm32l0xx_hal_dma.c ****   }
 235              		.loc 1 194 23 view .LVU88
 236 006c 0A43     		orrs	r2, r1
 237 006e 1A60     		str	r2, [r3]
 238              	.L7:
 198:Drivers/STM32L0xx_HAL_Driver/Src/stm32l0xx_hal_dma.c **** 
 239              		.loc 1 198 3 is_stmt 1 view .LVU89
 198:Drivers/STM32L0xx_HAL_Driver/Src/stm32l0xx_hal_dma.c **** 
 240              		.loc 1 198 19 is_stmt 0 view .LVU90
 241 0070 0023     		movs	r3, #0
 242 0072 E363     		str	r3, [r4, #60]
 201:Drivers/STM32L0xx_HAL_Driver/Src/stm32l0xx_hal_dma.c **** 
 243              		.loc 1 201 3 is_stmt 1 view .LVU91
 201:Drivers/STM32L0xx_HAL_Driver/Src/stm32l0xx_hal_dma.c **** 
 244              		.loc 1 201 16 is_stmt 0 view .LVU92
 245 0074 2522     		movs	r2, #37
 246 0076 0121     		movs	r1, #1
 247 0078 A154     		strb	r1, [r4, r2]
 204:Drivers/STM32L0xx_HAL_Driver/Src/stm32l0xx_hal_dma.c **** 
 248              		.loc 1 204 3 is_stmt 1 view .LVU93
 204:Drivers/STM32L0xx_HAL_Driver/Src/stm32l0xx_hal_dma.c **** 
 249              		.loc 1 204 14 is_stmt 0 view .LVU94
 250 007a 013A     		subs	r2, r2, #1
 251 007c A354     		strb	r3, [r4, r2]
 206:Drivers/STM32L0xx_HAL_Driver/Src/stm32l0xx_hal_dma.c **** }
 252              		.loc 1 206 3 is_stmt 1 view .LVU95
 206:Drivers/STM32L0xx_HAL_Driver/Src/stm32l0xx_hal_dma.c **** }
 253              		.loc 1 206 10 is_stmt 0 view .LVU96
 254 007e 0020     		movs	r0, #0
 255              	.LVL13:
 256              	.L6:
 207:Drivers/STM32L0xx_HAL_Driver/Src/stm32l0xx_hal_dma.c **** 
ARM GAS  /tmp/ccjzcf4U.s 			page 22


 257              		.loc 1 207 1 view .LVU97
 258              		@ sp needed
 259              	.LVL14:
 207:Drivers/STM32L0xx_HAL_Driver/Src/stm32l0xx_hal_dma.c **** 
 260              		.loc 1 207 1 view .LVU98
 261 0080 70BD     		pop	{r4, r5, r6, pc}
 262              	.LVL15:
 263              	.L8:
 147:Drivers/STM32L0xx_HAL_Driver/Src/stm32l0xx_hal_dma.c ****   }
 264              		.loc 1 147 12 view .LVU99
 265 0082 0120     		movs	r0, #1
 266              	.LVL16:
 147:Drivers/STM32L0xx_HAL_Driver/Src/stm32l0xx_hal_dma.c ****   }
 267              		.loc 1 147 12 view .LVU100
 268 0084 FCE7     		b	.L6
 269              	.L10:
 270 0086 C046     		.align	2
 271              	.L9:
 272 0088 F8FFFDBF 		.word	-1073872904
 273 008c 00000240 		.word	1073872896
 274 0090 0F80FFFF 		.word	-32753
 275 0094 A8000240 		.word	1073873064
 276              		.cfi_endproc
 277              	.LFE40:
 279              		.section	.text.HAL_DMA_DeInit,"ax",%progbits
 280              		.align	1
 281              		.global	HAL_DMA_DeInit
 282              		.syntax unified
 283              		.code	16
 284              		.thumb_func
 286              	HAL_DMA_DeInit:
 287              	.LVL17:
 288              	.LFB41:
 216:Drivers/STM32L0xx_HAL_Driver/Src/stm32l0xx_hal_dma.c **** 
 289              		.loc 1 216 1 is_stmt 1 view -0
 290              		.cfi_startproc
 291              		@ args = 0, pretend = 0, frame = 0
 292              		@ frame_needed = 0, uses_anonymous_args = 0
 216:Drivers/STM32L0xx_HAL_Driver/Src/stm32l0xx_hal_dma.c **** 
 293              		.loc 1 216 1 is_stmt 0 view .LVU102
 294 0000 70B5     		push	{r4, r5, r6, lr}
 295              		.cfi_def_cfa_offset 16
 296              		.cfi_offset 4, -16
 297              		.cfi_offset 5, -12
 298              		.cfi_offset 6, -8
 299              		.cfi_offset 14, -4
 300 0002 041E     		subs	r4, r0, #0
 219:Drivers/STM32L0xx_HAL_Driver/Src/stm32l0xx_hal_dma.c ****   {
 301              		.loc 1 219 3 is_stmt 1 view .LVU103
 219:Drivers/STM32L0xx_HAL_Driver/Src/stm32l0xx_hal_dma.c ****   {
 302              		.loc 1 219 6 is_stmt 0 view .LVU104
 303 0004 29D0     		beq	.L13
 225:Drivers/STM32L0xx_HAL_Driver/Src/stm32l0xx_hal_dma.c **** 
 304              		.loc 1 225 3 is_stmt 1 view .LVU105
 228:Drivers/STM32L0xx_HAL_Driver/Src/stm32l0xx_hal_dma.c **** 
 305              		.loc 1 228 3 view .LVU106
 306 0006 0268     		ldr	r2, [r0]
ARM GAS  /tmp/ccjzcf4U.s 			page 23


 307 0008 1368     		ldr	r3, [r2]
 308 000a 0125     		movs	r5, #1
 309 000c AB43     		bics	r3, r5
 310 000e 1360     		str	r3, [r2]
 232:Drivers/STM32L0xx_HAL_Driver/Src/stm32l0xx_hal_dma.c ****   hdma->DmaBaseAddress = DMA1;
 311              		.loc 1 232 3 view .LVU107
 232:Drivers/STM32L0xx_HAL_Driver/Src/stm32l0xx_hal_dma.c ****   hdma->DmaBaseAddress = DMA1;
 312              		.loc 1 232 40 is_stmt 0 view .LVU108
 313 0010 0668     		ldr	r6, [r0]
 232:Drivers/STM32L0xx_HAL_Driver/Src/stm32l0xx_hal_dma.c ****   hdma->DmaBaseAddress = DMA1;
 314              		.loc 1 232 51 view .LVU109
 315 0012 134B     		ldr	r3, .L14
 316 0014 F018     		adds	r0, r6, r3
 317              	.LVL18:
 232:Drivers/STM32L0xx_HAL_Driver/Src/stm32l0xx_hal_dma.c ****   hdma->DmaBaseAddress = DMA1;
 318              		.loc 1 232 78 view .LVU110
 319 0016 1421     		movs	r1, #20
 320 0018 FFF7FEFF 		bl	__aeabi_uidiv
 321              	.LVL19:
 232:Drivers/STM32L0xx_HAL_Driver/Src/stm32l0xx_hal_dma.c ****   hdma->DmaBaseAddress = DMA1;
 322              		.loc 1 232 133 view .LVU111
 323 001c 8000     		lsls	r0, r0, #2
 232:Drivers/STM32L0xx_HAL_Driver/Src/stm32l0xx_hal_dma.c ****   hdma->DmaBaseAddress = DMA1;
 324              		.loc 1 232 22 view .LVU112
 325 001e 6064     		str	r0, [r4, #68]
 233:Drivers/STM32L0xx_HAL_Driver/Src/stm32l0xx_hal_dma.c **** 
 326              		.loc 1 233 3 is_stmt 1 view .LVU113
 233:Drivers/STM32L0xx_HAL_Driver/Src/stm32l0xx_hal_dma.c **** 
 327              		.loc 1 233 24 is_stmt 0 view .LVU114
 328 0020 104B     		ldr	r3, .L14+4
 329 0022 2364     		str	r3, [r4, #64]
 236:Drivers/STM32L0xx_HAL_Driver/Src/stm32l0xx_hal_dma.c **** 
 330              		.loc 1 236 3 is_stmt 1 view .LVU115
 236:Drivers/STM32L0xx_HAL_Driver/Src/stm32l0xx_hal_dma.c **** 
 331              		.loc 1 236 24 is_stmt 0 view .LVU116
 332 0024 0023     		movs	r3, #0
 333 0026 3360     		str	r3, [r6]
 239:Drivers/STM32L0xx_HAL_Driver/Src/stm32l0xx_hal_dma.c **** 
 334              		.loc 1 239 3 is_stmt 1 view .LVU117
 239:Drivers/STM32L0xx_HAL_Driver/Src/stm32l0xx_hal_dma.c **** 
 335              		.loc 1 239 54 is_stmt 0 view .LVU118
 336 0028 616C     		ldr	r1, [r4, #68]
 239:Drivers/STM32L0xx_HAL_Driver/Src/stm32l0xx_hal_dma.c **** 
 337              		.loc 1 239 69 view .LVU119
 338 002a 1C22     		movs	r2, #28
 339 002c 1140     		ands	r1, r2
 239:Drivers/STM32L0xx_HAL_Driver/Src/stm32l0xx_hal_dma.c **** 
 340              		.loc 1 239 7 view .LVU120
 341 002e 206C     		ldr	r0, [r4, #64]
 239:Drivers/STM32L0xx_HAL_Driver/Src/stm32l0xx_hal_dma.c **** 
 342              		.loc 1 239 46 view .LVU121
 343 0030 8D40     		lsls	r5, r5, r1
 239:Drivers/STM32L0xx_HAL_Driver/Src/stm32l0xx_hal_dma.c **** 
 344              		.loc 1 239 30 view .LVU122
 345 0032 4560     		str	r5, [r0, #4]
 243:Drivers/STM32L0xx_HAL_Driver/Src/stm32l0xx_hal_dma.c **** 
 346              		.loc 1 243 3 is_stmt 1 view .LVU123
ARM GAS  /tmp/ccjzcf4U.s 			page 24


 243:Drivers/STM32L0xx_HAL_Driver/Src/stm32l0xx_hal_dma.c **** 
 347              		.loc 1 243 13 is_stmt 0 view .LVU124
 348 0034 0C4D     		ldr	r5, .L14+8
 349 0036 2968     		ldr	r1, [r5]
 243:Drivers/STM32L0xx_HAL_Driver/Src/stm32l0xx_hal_dma.c **** 
 350              		.loc 1 243 48 view .LVU125
 351 0038 606C     		ldr	r0, [r4, #68]
 243:Drivers/STM32L0xx_HAL_Driver/Src/stm32l0xx_hal_dma.c **** 
 352              		.loc 1 243 63 view .LVU126
 353 003a 0240     		ands	r2, r0
 243:Drivers/STM32L0xx_HAL_Driver/Src/stm32l0xx_hal_dma.c **** 
 354              		.loc 1 243 40 view .LVU127
 355 003c 0F20     		movs	r0, #15
 356 003e 9040     		lsls	r0, r0, r2
 243:Drivers/STM32L0xx_HAL_Driver/Src/stm32l0xx_hal_dma.c **** 
 357              		.loc 1 243 21 view .LVU128
 358 0040 8143     		bics	r1, r0
 359 0042 2960     		str	r1, [r5]
 246:Drivers/STM32L0xx_HAL_Driver/Src/stm32l0xx_hal_dma.c ****   hdma->XferHalfCpltCallback = NULL;
 360              		.loc 1 246 3 is_stmt 1 view .LVU129
 246:Drivers/STM32L0xx_HAL_Driver/Src/stm32l0xx_hal_dma.c ****   hdma->XferHalfCpltCallback = NULL;
 361              		.loc 1 246 26 is_stmt 0 view .LVU130
 362 0044 E362     		str	r3, [r4, #44]
 247:Drivers/STM32L0xx_HAL_Driver/Src/stm32l0xx_hal_dma.c ****   hdma->XferErrorCallback = NULL;
 363              		.loc 1 247 3 is_stmt 1 view .LVU131
 247:Drivers/STM32L0xx_HAL_Driver/Src/stm32l0xx_hal_dma.c ****   hdma->XferErrorCallback = NULL;
 364              		.loc 1 247 30 is_stmt 0 view .LVU132
 365 0046 2363     		str	r3, [r4, #48]
 248:Drivers/STM32L0xx_HAL_Driver/Src/stm32l0xx_hal_dma.c ****   hdma->XferAbortCallback = NULL;
 366              		.loc 1 248 3 is_stmt 1 view .LVU133
 248:Drivers/STM32L0xx_HAL_Driver/Src/stm32l0xx_hal_dma.c ****   hdma->XferAbortCallback = NULL;
 367              		.loc 1 248 27 is_stmt 0 view .LVU134
 368 0048 6363     		str	r3, [r4, #52]
 249:Drivers/STM32L0xx_HAL_Driver/Src/stm32l0xx_hal_dma.c **** 
 369              		.loc 1 249 3 is_stmt 1 view .LVU135
 249:Drivers/STM32L0xx_HAL_Driver/Src/stm32l0xx_hal_dma.c **** 
 370              		.loc 1 249 27 is_stmt 0 view .LVU136
 371 004a A363     		str	r3, [r4, #56]
 252:Drivers/STM32L0xx_HAL_Driver/Src/stm32l0xx_hal_dma.c **** 
 372              		.loc 1 252 3 is_stmt 1 view .LVU137
 252:Drivers/STM32L0xx_HAL_Driver/Src/stm32l0xx_hal_dma.c **** 
 373              		.loc 1 252 19 is_stmt 0 view .LVU138
 374 004c E363     		str	r3, [r4, #60]
 255:Drivers/STM32L0xx_HAL_Driver/Src/stm32l0xx_hal_dma.c **** 
 375              		.loc 1 255 3 is_stmt 1 view .LVU139
 255:Drivers/STM32L0xx_HAL_Driver/Src/stm32l0xx_hal_dma.c **** 
 376              		.loc 1 255 15 is_stmt 0 view .LVU140
 377 004e 2522     		movs	r2, #37
 378 0050 A354     		strb	r3, [r4, r2]
 258:Drivers/STM32L0xx_HAL_Driver/Src/stm32l0xx_hal_dma.c **** 
 379              		.loc 1 258 3 is_stmt 1 view .LVU141
 258:Drivers/STM32L0xx_HAL_Driver/Src/stm32l0xx_hal_dma.c **** 
 380              		.loc 1 258 3 view .LVU142
 381 0052 013A     		subs	r2, r2, #1
 382 0054 A354     		strb	r3, [r4, r2]
 258:Drivers/STM32L0xx_HAL_Driver/Src/stm32l0xx_hal_dma.c **** 
 383              		.loc 1 258 3 view .LVU143
ARM GAS  /tmp/ccjzcf4U.s 			page 25


 260:Drivers/STM32L0xx_HAL_Driver/Src/stm32l0xx_hal_dma.c **** }
 384              		.loc 1 260 3 view .LVU144
 260:Drivers/STM32L0xx_HAL_Driver/Src/stm32l0xx_hal_dma.c **** }
 385              		.loc 1 260 10 is_stmt 0 view .LVU145
 386 0056 0020     		movs	r0, #0
 387              	.L12:
 261:Drivers/STM32L0xx_HAL_Driver/Src/stm32l0xx_hal_dma.c **** 
 388              		.loc 1 261 1 view .LVU146
 389              		@ sp needed
 390              	.LVL20:
 261:Drivers/STM32L0xx_HAL_Driver/Src/stm32l0xx_hal_dma.c **** 
 391              		.loc 1 261 1 view .LVU147
 392 0058 70BD     		pop	{r4, r5, r6, pc}
 393              	.LVL21:
 394              	.L13:
 221:Drivers/STM32L0xx_HAL_Driver/Src/stm32l0xx_hal_dma.c ****   }
 395              		.loc 1 221 12 view .LVU148
 396 005a 0120     		movs	r0, #1
 397              	.LVL22:
 221:Drivers/STM32L0xx_HAL_Driver/Src/stm32l0xx_hal_dma.c ****   }
 398              		.loc 1 221 12 view .LVU149
 399 005c FCE7     		b	.L12
 400              	.L15:
 401 005e C046     		.align	2
 402              	.L14:
 403 0060 F8FFFDBF 		.word	-1073872904
 404 0064 00000240 		.word	1073872896
 405 0068 A8000240 		.word	1073873064
 406              		.cfi_endproc
 407              	.LFE41:
 409              		.section	.text.HAL_DMA_Start,"ax",%progbits
 410              		.align	1
 411              		.global	HAL_DMA_Start
 412              		.syntax unified
 413              		.code	16
 414              		.thumb_func
 416              	HAL_DMA_Start:
 417              	.LVL23:
 418              	.LFB42:
 296:Drivers/STM32L0xx_HAL_Driver/Src/stm32l0xx_hal_dma.c ****   HAL_StatusTypeDef status = HAL_OK;
 419              		.loc 1 296 1 is_stmt 1 view -0
 420              		.cfi_startproc
 421              		@ args = 0, pretend = 0, frame = 0
 422              		@ frame_needed = 0, uses_anonymous_args = 0
 296:Drivers/STM32L0xx_HAL_Driver/Src/stm32l0xx_hal_dma.c ****   HAL_StatusTypeDef status = HAL_OK;
 423              		.loc 1 296 1 is_stmt 0 view .LVU151
 424 0000 70B5     		push	{r4, r5, r6, lr}
 425              		.cfi_def_cfa_offset 16
 426              		.cfi_offset 4, -16
 427              		.cfi_offset 5, -12
 428              		.cfi_offset 6, -8
 429              		.cfi_offset 14, -4
 430 0002 0400     		movs	r4, r0
 297:Drivers/STM32L0xx_HAL_Driver/Src/stm32l0xx_hal_dma.c **** 
 431              		.loc 1 297 3 is_stmt 1 view .LVU152
 432              	.LVL24:
 300:Drivers/STM32L0xx_HAL_Driver/Src/stm32l0xx_hal_dma.c **** 
ARM GAS  /tmp/ccjzcf4U.s 			page 26


 433              		.loc 1 300 3 view .LVU153
 303:Drivers/STM32L0xx_HAL_Driver/Src/stm32l0xx_hal_dma.c **** 
 434              		.loc 1 303 3 view .LVU154
 303:Drivers/STM32L0xx_HAL_Driver/Src/stm32l0xx_hal_dma.c **** 
 435              		.loc 1 303 3 view .LVU155
 436 0004 2420     		movs	r0, #36
 437              	.LVL25:
 303:Drivers/STM32L0xx_HAL_Driver/Src/stm32l0xx_hal_dma.c **** 
 438              		.loc 1 303 3 is_stmt 0 view .LVU156
 439 0006 205C     		ldrb	r0, [r4, r0]
 440 0008 0128     		cmp	r0, #1
 441 000a 1ED0     		beq	.L19
 303:Drivers/STM32L0xx_HAL_Driver/Src/stm32l0xx_hal_dma.c **** 
 442              		.loc 1 303 3 is_stmt 1 discriminator 2 view .LVU157
 443 000c 2420     		movs	r0, #36
 444 000e 0125     		movs	r5, #1
 445 0010 2554     		strb	r5, [r4, r0]
 303:Drivers/STM32L0xx_HAL_Driver/Src/stm32l0xx_hal_dma.c **** 
 446              		.loc 1 303 3 discriminator 2 view .LVU158
 305:Drivers/STM32L0xx_HAL_Driver/Src/stm32l0xx_hal_dma.c ****   {
 447              		.loc 1 305 3 view .LVU159
 305:Drivers/STM32L0xx_HAL_Driver/Src/stm32l0xx_hal_dma.c ****   {
 448              		.loc 1 305 33 is_stmt 0 view .LVU160
 449 0012 0130     		adds	r0, r0, #1
 450 0014 205C     		ldrb	r0, [r4, r0]
 305:Drivers/STM32L0xx_HAL_Driver/Src/stm32l0xx_hal_dma.c ****   {
 451              		.loc 1 305 5 view .LVU161
 452 0016 0128     		cmp	r0, #1
 453 0018 04D0     		beq	.L20
 323:Drivers/STM32L0xx_HAL_Driver/Src/stm32l0xx_hal_dma.c ****     status = HAL_BUSY;
 454              		.loc 1 323 5 is_stmt 1 view .LVU162
 323:Drivers/STM32L0xx_HAL_Driver/Src/stm32l0xx_hal_dma.c ****     status = HAL_BUSY;
 455              		.loc 1 323 5 view .LVU163
 456 001a 2423     		movs	r3, #36
 457              	.LVL26:
 323:Drivers/STM32L0xx_HAL_Driver/Src/stm32l0xx_hal_dma.c ****     status = HAL_BUSY;
 458              		.loc 1 323 5 is_stmt 0 view .LVU164
 459 001c 0022     		movs	r2, #0
 460              	.LVL27:
 323:Drivers/STM32L0xx_HAL_Driver/Src/stm32l0xx_hal_dma.c ****     status = HAL_BUSY;
 461              		.loc 1 323 5 view .LVU165
 462 001e E254     		strb	r2, [r4, r3]
 323:Drivers/STM32L0xx_HAL_Driver/Src/stm32l0xx_hal_dma.c ****     status = HAL_BUSY;
 463              		.loc 1 323 5 is_stmt 1 view .LVU166
 324:Drivers/STM32L0xx_HAL_Driver/Src/stm32l0xx_hal_dma.c ****   }
 464              		.loc 1 324 5 view .LVU167
 465              	.LVL28:
 324:Drivers/STM32L0xx_HAL_Driver/Src/stm32l0xx_hal_dma.c ****   }
 466              		.loc 1 324 12 is_stmt 0 view .LVU168
 467 0020 0220     		movs	r0, #2
 468              	.LVL29:
 469              	.L17:
 327:Drivers/STM32L0xx_HAL_Driver/Src/stm32l0xx_hal_dma.c **** 
 470              		.loc 1 327 1 view .LVU169
 471              		@ sp needed
 472              	.LVL30:
 327:Drivers/STM32L0xx_HAL_Driver/Src/stm32l0xx_hal_dma.c **** 
ARM GAS  /tmp/ccjzcf4U.s 			page 27


 473              		.loc 1 327 1 view .LVU170
 474 0022 70BD     		pop	{r4, r5, r6, pc}
 475              	.LVL31:
 476              	.L20:
 308:Drivers/STM32L0xx_HAL_Driver/Src/stm32l0xx_hal_dma.c ****     hdma->ErrorCode = HAL_DMA_ERROR_NONE;
 477              		.loc 1 308 5 is_stmt 1 view .LVU171
 308:Drivers/STM32L0xx_HAL_Driver/Src/stm32l0xx_hal_dma.c ****     hdma->ErrorCode = HAL_DMA_ERROR_NONE;
 478              		.loc 1 308 17 is_stmt 0 view .LVU172
 479 0024 2430     		adds	r0, r0, #36
 480 0026 0135     		adds	r5, r5, #1
 481 0028 2554     		strb	r5, [r4, r0]
 309:Drivers/STM32L0xx_HAL_Driver/Src/stm32l0xx_hal_dma.c **** 
 482              		.loc 1 309 5 is_stmt 1 view .LVU173
 309:Drivers/STM32L0xx_HAL_Driver/Src/stm32l0xx_hal_dma.c **** 
 483              		.loc 1 309 21 is_stmt 0 view .LVU174
 484 002a 0020     		movs	r0, #0
 485 002c E063     		str	r0, [r4, #60]
 312:Drivers/STM32L0xx_HAL_Driver/Src/stm32l0xx_hal_dma.c **** 
 486              		.loc 1 312 5 is_stmt 1 view .LVU175
 487 002e 2668     		ldr	r6, [r4]
 488 0030 3068     		ldr	r0, [r6]
 489 0032 013D     		subs	r5, r5, #1
 490 0034 A843     		bics	r0, r5
 491 0036 3060     		str	r0, [r6]
 315:Drivers/STM32L0xx_HAL_Driver/Src/stm32l0xx_hal_dma.c **** 
 492              		.loc 1 315 5 view .LVU176
 493 0038 2000     		movs	r0, r4
 494 003a FFF7FEFF 		bl	DMA_SetConfig
 495              	.LVL32:
 318:Drivers/STM32L0xx_HAL_Driver/Src/stm32l0xx_hal_dma.c ****   }
 496              		.loc 1 318 5 view .LVU177
 497 003e 2268     		ldr	r2, [r4]
 498 0040 1368     		ldr	r3, [r2]
 499 0042 2B43     		orrs	r3, r5
 500 0044 1360     		str	r3, [r2]
 297:Drivers/STM32L0xx_HAL_Driver/Src/stm32l0xx_hal_dma.c **** 
 501              		.loc 1 297 21 is_stmt 0 view .LVU178
 502 0046 0020     		movs	r0, #0
 503 0048 EBE7     		b	.L17
 504              	.LVL33:
 505              	.L19:
 303:Drivers/STM32L0xx_HAL_Driver/Src/stm32l0xx_hal_dma.c **** 
 506              		.loc 1 303 3 discriminator 1 view .LVU179
 507 004a 0220     		movs	r0, #2
 508 004c E9E7     		b	.L17
 509              		.cfi_endproc
 510              	.LFE42:
 512              		.section	.text.HAL_DMA_Start_IT,"ax",%progbits
 513              		.align	1
 514              		.global	HAL_DMA_Start_IT
 515              		.syntax unified
 516              		.code	16
 517              		.thumb_func
 519              	HAL_DMA_Start_IT:
 520              	.LVL34:
 521              	.LFB43:
 339:Drivers/STM32L0xx_HAL_Driver/Src/stm32l0xx_hal_dma.c ****   HAL_StatusTypeDef status = HAL_OK;
ARM GAS  /tmp/ccjzcf4U.s 			page 28


 522              		.loc 1 339 1 is_stmt 1 view -0
 523              		.cfi_startproc
 524              		@ args = 0, pretend = 0, frame = 0
 525              		@ frame_needed = 0, uses_anonymous_args = 0
 339:Drivers/STM32L0xx_HAL_Driver/Src/stm32l0xx_hal_dma.c ****   HAL_StatusTypeDef status = HAL_OK;
 526              		.loc 1 339 1 is_stmt 0 view .LVU181
 527 0000 70B5     		push	{r4, r5, r6, lr}
 528              		.cfi_def_cfa_offset 16
 529              		.cfi_offset 4, -16
 530              		.cfi_offset 5, -12
 531              		.cfi_offset 6, -8
 532              		.cfi_offset 14, -4
 533 0002 0400     		movs	r4, r0
 340:Drivers/STM32L0xx_HAL_Driver/Src/stm32l0xx_hal_dma.c **** 
 534              		.loc 1 340 3 is_stmt 1 view .LVU182
 535              	.LVL35:
 343:Drivers/STM32L0xx_HAL_Driver/Src/stm32l0xx_hal_dma.c **** 
 536              		.loc 1 343 3 view .LVU183
 346:Drivers/STM32L0xx_HAL_Driver/Src/stm32l0xx_hal_dma.c **** 
 537              		.loc 1 346 3 view .LVU184
 346:Drivers/STM32L0xx_HAL_Driver/Src/stm32l0xx_hal_dma.c **** 
 538              		.loc 1 346 3 view .LVU185
 539 0004 2420     		movs	r0, #36
 540              	.LVL36:
 346:Drivers/STM32L0xx_HAL_Driver/Src/stm32l0xx_hal_dma.c **** 
 541              		.loc 1 346 3 is_stmt 0 view .LVU186
 542 0006 205C     		ldrb	r0, [r4, r0]
 543 0008 0128     		cmp	r0, #1
 544 000a 32D0     		beq	.L26
 346:Drivers/STM32L0xx_HAL_Driver/Src/stm32l0xx_hal_dma.c **** 
 545              		.loc 1 346 3 is_stmt 1 discriminator 2 view .LVU187
 546 000c 2420     		movs	r0, #36
 547 000e 0125     		movs	r5, #1
 548 0010 2554     		strb	r5, [r4, r0]
 346:Drivers/STM32L0xx_HAL_Driver/Src/stm32l0xx_hal_dma.c **** 
 549              		.loc 1 346 3 discriminator 2 view .LVU188
 348:Drivers/STM32L0xx_HAL_Driver/Src/stm32l0xx_hal_dma.c ****   {
 550              		.loc 1 348 3 view .LVU189
 348:Drivers/STM32L0xx_HAL_Driver/Src/stm32l0xx_hal_dma.c ****   {
 551              		.loc 1 348 33 is_stmt 0 view .LVU190
 552 0012 0130     		adds	r0, r0, #1
 553 0014 205C     		ldrb	r0, [r4, r0]
 348:Drivers/STM32L0xx_HAL_Driver/Src/stm32l0xx_hal_dma.c ****   {
 554              		.loc 1 348 5 view .LVU191
 555 0016 0128     		cmp	r0, #1
 556 0018 04D0     		beq	.L27
 379:Drivers/STM32L0xx_HAL_Driver/Src/stm32l0xx_hal_dma.c **** 
 557              		.loc 1 379 5 is_stmt 1 view .LVU192
 379:Drivers/STM32L0xx_HAL_Driver/Src/stm32l0xx_hal_dma.c **** 
 558              		.loc 1 379 5 view .LVU193
 559 001a 2423     		movs	r3, #36
 560              	.LVL37:
 379:Drivers/STM32L0xx_HAL_Driver/Src/stm32l0xx_hal_dma.c **** 
 561              		.loc 1 379 5 is_stmt 0 view .LVU194
 562 001c 0022     		movs	r2, #0
 563              	.LVL38:
 379:Drivers/STM32L0xx_HAL_Driver/Src/stm32l0xx_hal_dma.c **** 
ARM GAS  /tmp/ccjzcf4U.s 			page 29


 564              		.loc 1 379 5 view .LVU195
 565 001e E254     		strb	r2, [r4, r3]
 379:Drivers/STM32L0xx_HAL_Driver/Src/stm32l0xx_hal_dma.c **** 
 566              		.loc 1 379 5 is_stmt 1 view .LVU196
 382:Drivers/STM32L0xx_HAL_Driver/Src/stm32l0xx_hal_dma.c ****   }
 567              		.loc 1 382 5 view .LVU197
 568              	.LVL39:
 382:Drivers/STM32L0xx_HAL_Driver/Src/stm32l0xx_hal_dma.c ****   }
 569              		.loc 1 382 12 is_stmt 0 view .LVU198
 570 0020 0220     		movs	r0, #2
 571              	.LVL40:
 572              	.L22:
 385:Drivers/STM32L0xx_HAL_Driver/Src/stm32l0xx_hal_dma.c **** 
 573              		.loc 1 385 1 view .LVU199
 574              		@ sp needed
 575              	.LVL41:
 385:Drivers/STM32L0xx_HAL_Driver/Src/stm32l0xx_hal_dma.c **** 
 576              		.loc 1 385 1 view .LVU200
 577 0022 70BD     		pop	{r4, r5, r6, pc}
 578              	.LVL42:
 579              	.L27:
 351:Drivers/STM32L0xx_HAL_Driver/Src/stm32l0xx_hal_dma.c ****     hdma->ErrorCode = HAL_DMA_ERROR_NONE;
 580              		.loc 1 351 5 is_stmt 1 view .LVU201
 351:Drivers/STM32L0xx_HAL_Driver/Src/stm32l0xx_hal_dma.c ****     hdma->ErrorCode = HAL_DMA_ERROR_NONE;
 581              		.loc 1 351 17 is_stmt 0 view .LVU202
 582 0024 2430     		adds	r0, r0, #36
 583 0026 0135     		adds	r5, r5, #1
 584 0028 2554     		strb	r5, [r4, r0]
 352:Drivers/STM32L0xx_HAL_Driver/Src/stm32l0xx_hal_dma.c **** 
 585              		.loc 1 352 5 is_stmt 1 view .LVU203
 352:Drivers/STM32L0xx_HAL_Driver/Src/stm32l0xx_hal_dma.c **** 
 586              		.loc 1 352 21 is_stmt 0 view .LVU204
 587 002a 0020     		movs	r0, #0
 588 002c E063     		str	r0, [r4, #60]
 355:Drivers/STM32L0xx_HAL_Driver/Src/stm32l0xx_hal_dma.c **** 
 589              		.loc 1 355 5 is_stmt 1 view .LVU205
 590 002e 2568     		ldr	r5, [r4]
 591 0030 2868     		ldr	r0, [r5]
 592 0032 0126     		movs	r6, #1
 593 0034 B043     		bics	r0, r6
 594 0036 2860     		str	r0, [r5]
 358:Drivers/STM32L0xx_HAL_Driver/Src/stm32l0xx_hal_dma.c **** 
 595              		.loc 1 358 5 view .LVU206
 596 0038 2000     		movs	r0, r4
 597 003a FFF7FEFF 		bl	DMA_SetConfig
 598              	.LVL43:
 362:Drivers/STM32L0xx_HAL_Driver/Src/stm32l0xx_hal_dma.c ****     {
 599              		.loc 1 362 5 view .LVU207
 362:Drivers/STM32L0xx_HAL_Driver/Src/stm32l0xx_hal_dma.c ****     {
 600              		.loc 1 362 20 is_stmt 0 view .LVU208
 601 003e 236B     		ldr	r3, [r4, #48]
 362:Drivers/STM32L0xx_HAL_Driver/Src/stm32l0xx_hal_dma.c ****     {
 602              		.loc 1 362 7 view .LVU209
 603 0040 002B     		cmp	r3, #0
 604 0042 0BD0     		beq	.L24
 365:Drivers/STM32L0xx_HAL_Driver/Src/stm32l0xx_hal_dma.c ****     }
 605              		.loc 1 365 7 is_stmt 1 view .LVU210
ARM GAS  /tmp/ccjzcf4U.s 			page 30


 606 0044 2268     		ldr	r2, [r4]
 607 0046 1368     		ldr	r3, [r2]
 608 0048 0E21     		movs	r1, #14
 609 004a 0B43     		orrs	r3, r1
 610 004c 1360     		str	r3, [r2]
 611              	.L25:
 374:Drivers/STM32L0xx_HAL_Driver/Src/stm32l0xx_hal_dma.c ****   }
 612              		.loc 1 374 5 view .LVU211
 613 004e 2268     		ldr	r2, [r4]
 614 0050 1368     		ldr	r3, [r2]
 615 0052 0121     		movs	r1, #1
 616 0054 0B43     		orrs	r3, r1
 617 0056 1360     		str	r3, [r2]
 340:Drivers/STM32L0xx_HAL_Driver/Src/stm32l0xx_hal_dma.c **** 
 618              		.loc 1 340 21 is_stmt 0 view .LVU212
 619 0058 0020     		movs	r0, #0
 620 005a E2E7     		b	.L22
 621              	.L24:
 369:Drivers/STM32L0xx_HAL_Driver/Src/stm32l0xx_hal_dma.c ****       __HAL_DMA_ENABLE_IT(hdma, (DMA_IT_TC | DMA_IT_TE));
 622              		.loc 1 369 7 is_stmt 1 view .LVU213
 623 005c 2268     		ldr	r2, [r4]
 624 005e 1368     		ldr	r3, [r2]
 625 0060 0421     		movs	r1, #4
 626 0062 8B43     		bics	r3, r1
 627 0064 1360     		str	r3, [r2]
 370:Drivers/STM32L0xx_HAL_Driver/Src/stm32l0xx_hal_dma.c ****     }
 628              		.loc 1 370 7 view .LVU214
 629 0066 2268     		ldr	r2, [r4]
 630 0068 1368     		ldr	r3, [r2]
 631 006a 0631     		adds	r1, r1, #6
 632 006c 0B43     		orrs	r3, r1
 633 006e 1360     		str	r3, [r2]
 634 0070 EDE7     		b	.L25
 635              	.LVL44:
 636              	.L26:
 346:Drivers/STM32L0xx_HAL_Driver/Src/stm32l0xx_hal_dma.c **** 
 637              		.loc 1 346 3 is_stmt 0 discriminator 1 view .LVU215
 638 0072 0220     		movs	r0, #2
 639 0074 D5E7     		b	.L22
 640              		.cfi_endproc
 641              	.LFE43:
 643              		.section	.text.HAL_DMA_Abort,"ax",%progbits
 644              		.align	1
 645              		.global	HAL_DMA_Abort
 646              		.syntax unified
 647              		.code	16
 648              		.thumb_func
 650              	HAL_DMA_Abort:
 651              	.LVL45:
 652              	.LFB44:
 394:Drivers/STM32L0xx_HAL_Driver/Src/stm32l0xx_hal_dma.c ****   HAL_StatusTypeDef status = HAL_OK;
 653              		.loc 1 394 1 is_stmt 1 view -0
 654              		.cfi_startproc
 655              		@ args = 0, pretend = 0, frame = 0
 656              		@ frame_needed = 0, uses_anonymous_args = 0
 394:Drivers/STM32L0xx_HAL_Driver/Src/stm32l0xx_hal_dma.c ****   HAL_StatusTypeDef status = HAL_OK;
 657              		.loc 1 394 1 is_stmt 0 view .LVU217
ARM GAS  /tmp/ccjzcf4U.s 			page 31


 658 0000 10B5     		push	{r4, lr}
 659              		.cfi_def_cfa_offset 8
 660              		.cfi_offset 4, -8
 661              		.cfi_offset 14, -4
 395:Drivers/STM32L0xx_HAL_Driver/Src/stm32l0xx_hal_dma.c **** 
 662              		.loc 1 395 3 is_stmt 1 view .LVU218
 663              	.LVL46:
 398:Drivers/STM32L0xx_HAL_Driver/Src/stm32l0xx_hal_dma.c ****   {
 664              		.loc 1 398 3 view .LVU219
 398:Drivers/STM32L0xx_HAL_Driver/Src/stm32l0xx_hal_dma.c ****   {
 665              		.loc 1 398 10 is_stmt 0 view .LVU220
 666 0002 2523     		movs	r3, #37
 667 0004 C35C     		ldrb	r3, [r0, r3]
 398:Drivers/STM32L0xx_HAL_Driver/Src/stm32l0xx_hal_dma.c ****   {
 668              		.loc 1 398 5 view .LVU221
 669 0006 022B     		cmp	r3, #2
 670 0008 06D0     		beq	.L29
 400:Drivers/STM32L0xx_HAL_Driver/Src/stm32l0xx_hal_dma.c **** 
 671              		.loc 1 400 5 is_stmt 1 view .LVU222
 400:Drivers/STM32L0xx_HAL_Driver/Src/stm32l0xx_hal_dma.c **** 
 672              		.loc 1 400 21 is_stmt 0 view .LVU223
 673 000a 0423     		movs	r3, #4
 674 000c C363     		str	r3, [r0, #60]
 403:Drivers/STM32L0xx_HAL_Driver/Src/stm32l0xx_hal_dma.c **** 
 675              		.loc 1 403 5 is_stmt 1 view .LVU224
 403:Drivers/STM32L0xx_HAL_Driver/Src/stm32l0xx_hal_dma.c **** 
 676              		.loc 1 403 5 view .LVU225
 677 000e 2033     		adds	r3, r3, #32
 678 0010 0022     		movs	r2, #0
 679 0012 C254     		strb	r2, [r0, r3]
 403:Drivers/STM32L0xx_HAL_Driver/Src/stm32l0xx_hal_dma.c **** 
 680              		.loc 1 403 5 view .LVU226
 405:Drivers/STM32L0xx_HAL_Driver/Src/stm32l0xx_hal_dma.c ****   }
 681              		.loc 1 405 5 view .LVU227
 405:Drivers/STM32L0xx_HAL_Driver/Src/stm32l0xx_hal_dma.c ****   }
 682              		.loc 1 405 12 is_stmt 0 view .LVU228
 683 0014 0120     		movs	r0, #1
 684              	.LVL47:
 685              	.L30:
 426:Drivers/STM32L0xx_HAL_Driver/Src/stm32l0xx_hal_dma.c **** 
 686              		.loc 1 426 1 view .LVU229
 687              		@ sp needed
 688 0016 10BD     		pop	{r4, pc}
 689              	.LVL48:
 690              	.L29:
 410:Drivers/STM32L0xx_HAL_Driver/Src/stm32l0xx_hal_dma.c **** 
 691              		.loc 1 410 5 is_stmt 1 view .LVU230
 692 0018 0268     		ldr	r2, [r0]
 693 001a 1368     		ldr	r3, [r2]
 694 001c 0E21     		movs	r1, #14
 695 001e 8B43     		bics	r3, r1
 696 0020 1360     		str	r3, [r2]
 413:Drivers/STM32L0xx_HAL_Driver/Src/stm32l0xx_hal_dma.c **** 
 697              		.loc 1 413 5 view .LVU231
 698 0022 0168     		ldr	r1, [r0]
 699 0024 0A68     		ldr	r2, [r1]
 700 0026 0123     		movs	r3, #1
ARM GAS  /tmp/ccjzcf4U.s 			page 32


 701 0028 9A43     		bics	r2, r3
 702 002a 0A60     		str	r2, [r1]
 416:Drivers/STM32L0xx_HAL_Driver/Src/stm32l0xx_hal_dma.c **** 
 703              		.loc 1 416 5 view .LVU232
 416:Drivers/STM32L0xx_HAL_Driver/Src/stm32l0xx_hal_dma.c **** 
 704              		.loc 1 416 56 is_stmt 0 view .LVU233
 705 002c 416C     		ldr	r1, [r0, #68]
 416:Drivers/STM32L0xx_HAL_Driver/Src/stm32l0xx_hal_dma.c **** 
 706              		.loc 1 416 71 view .LVU234
 707 002e 1C22     		movs	r2, #28
 708 0030 0A40     		ands	r2, r1
 416:Drivers/STM32L0xx_HAL_Driver/Src/stm32l0xx_hal_dma.c **** 
 709              		.loc 1 416 9 view .LVU235
 710 0032 016C     		ldr	r1, [r0, #64]
 416:Drivers/STM32L0xx_HAL_Driver/Src/stm32l0xx_hal_dma.c **** 
 711              		.loc 1 416 48 view .LVU236
 712 0034 1C00     		movs	r4, r3
 713 0036 9440     		lsls	r4, r4, r2
 416:Drivers/STM32L0xx_HAL_Driver/Src/stm32l0xx_hal_dma.c **** 
 714              		.loc 1 416 32 view .LVU237
 715 0038 4C60     		str	r4, [r1, #4]
 419:Drivers/STM32L0xx_HAL_Driver/Src/stm32l0xx_hal_dma.c **** 
 716              		.loc 1 419 5 is_stmt 1 view .LVU238
 419:Drivers/STM32L0xx_HAL_Driver/Src/stm32l0xx_hal_dma.c **** 
 717              		.loc 1 419 17 is_stmt 0 view .LVU239
 718 003a 2522     		movs	r2, #37
 719 003c 8354     		strb	r3, [r0, r2]
 422:Drivers/STM32L0xx_HAL_Driver/Src/stm32l0xx_hal_dma.c **** 
 720              		.loc 1 422 5 is_stmt 1 view .LVU240
 422:Drivers/STM32L0xx_HAL_Driver/Src/stm32l0xx_hal_dma.c **** 
 721              		.loc 1 422 5 view .LVU241
 722 003e 2333     		adds	r3, r3, #35
 723 0040 0022     		movs	r2, #0
 724 0042 C254     		strb	r2, [r0, r3]
 422:Drivers/STM32L0xx_HAL_Driver/Src/stm32l0xx_hal_dma.c **** 
 725              		.loc 1 422 5 view .LVU242
 424:Drivers/STM32L0xx_HAL_Driver/Src/stm32l0xx_hal_dma.c ****   }
 726              		.loc 1 424 5 view .LVU243
 424:Drivers/STM32L0xx_HAL_Driver/Src/stm32l0xx_hal_dma.c ****   }
 727              		.loc 1 424 12 is_stmt 0 view .LVU244
 728 0044 0020     		movs	r0, #0
 729              	.LVL49:
 424:Drivers/STM32L0xx_HAL_Driver/Src/stm32l0xx_hal_dma.c ****   }
 730              		.loc 1 424 12 view .LVU245
 731 0046 E6E7     		b	.L30
 732              		.cfi_endproc
 733              	.LFE44:
 735              		.section	.text.HAL_DMA_Abort_IT,"ax",%progbits
 736              		.align	1
 737              		.global	HAL_DMA_Abort_IT
 738              		.syntax unified
 739              		.code	16
 740              		.thumb_func
 742              	HAL_DMA_Abort_IT:
 743              	.LVL50:
 744              	.LFB45:
 435:Drivers/STM32L0xx_HAL_Driver/Src/stm32l0xx_hal_dma.c ****   HAL_StatusTypeDef status = HAL_OK;
ARM GAS  /tmp/ccjzcf4U.s 			page 33


 745              		.loc 1 435 1 is_stmt 1 view -0
 746              		.cfi_startproc
 747              		@ args = 0, pretend = 0, frame = 0
 748              		@ frame_needed = 0, uses_anonymous_args = 0
 435:Drivers/STM32L0xx_HAL_Driver/Src/stm32l0xx_hal_dma.c ****   HAL_StatusTypeDef status = HAL_OK;
 749              		.loc 1 435 1 is_stmt 0 view .LVU247
 750 0000 10B5     		push	{r4, lr}
 751              		.cfi_def_cfa_offset 8
 752              		.cfi_offset 4, -8
 753              		.cfi_offset 14, -4
 436:Drivers/STM32L0xx_HAL_Driver/Src/stm32l0xx_hal_dma.c **** 
 754              		.loc 1 436 3 is_stmt 1 view .LVU248
 755              	.LVL51:
 438:Drivers/STM32L0xx_HAL_Driver/Src/stm32l0xx_hal_dma.c ****   {
 756              		.loc 1 438 3 view .LVU249
 438:Drivers/STM32L0xx_HAL_Driver/Src/stm32l0xx_hal_dma.c ****   {
 757              		.loc 1 438 32 is_stmt 0 view .LVU250
 758 0002 2523     		movs	r3, #37
 759 0004 C35C     		ldrb	r3, [r0, r3]
 438:Drivers/STM32L0xx_HAL_Driver/Src/stm32l0xx_hal_dma.c ****   {
 760              		.loc 1 438 5 view .LVU251
 761 0006 022B     		cmp	r3, #2
 762 0008 03D0     		beq	.L32
 441:Drivers/STM32L0xx_HAL_Driver/Src/stm32l0xx_hal_dma.c **** 
 763              		.loc 1 441 5 is_stmt 1 view .LVU252
 441:Drivers/STM32L0xx_HAL_Driver/Src/stm32l0xx_hal_dma.c **** 
 764              		.loc 1 441 21 is_stmt 0 view .LVU253
 765 000a 0423     		movs	r3, #4
 766 000c C363     		str	r3, [r0, #60]
 443:Drivers/STM32L0xx_HAL_Driver/Src/stm32l0xx_hal_dma.c ****   }
 767              		.loc 1 443 5 is_stmt 1 view .LVU254
 768              	.LVL52:
 443:Drivers/STM32L0xx_HAL_Driver/Src/stm32l0xx_hal_dma.c ****   }
 769              		.loc 1 443 12 is_stmt 0 view .LVU255
 770 000e 0120     		movs	r0, #1
 771              	.LVL53:
 772              	.L33:
 468:Drivers/STM32L0xx_HAL_Driver/Src/stm32l0xx_hal_dma.c **** }
 773              		.loc 1 468 3 is_stmt 1 view .LVU256
 469:Drivers/STM32L0xx_HAL_Driver/Src/stm32l0xx_hal_dma.c **** 
 774              		.loc 1 469 1 is_stmt 0 view .LVU257
 775              		@ sp needed
 776 0010 10BD     		pop	{r4, pc}
 777              	.LVL54:
 778              	.L32:
 448:Drivers/STM32L0xx_HAL_Driver/Src/stm32l0xx_hal_dma.c **** 
 779              		.loc 1 448 5 is_stmt 1 view .LVU258
 780 0012 0268     		ldr	r2, [r0]
 781 0014 1368     		ldr	r3, [r2]
 782 0016 0E21     		movs	r1, #14
 783 0018 8B43     		bics	r3, r1
 784 001a 1360     		str	r3, [r2]
 451:Drivers/STM32L0xx_HAL_Driver/Src/stm32l0xx_hal_dma.c **** 
 785              		.loc 1 451 5 view .LVU259
 786 001c 0168     		ldr	r1, [r0]
 787 001e 0A68     		ldr	r2, [r1]
 788 0020 0123     		movs	r3, #1
ARM GAS  /tmp/ccjzcf4U.s 			page 34


 789 0022 9A43     		bics	r2, r3
 790 0024 0A60     		str	r2, [r1]
 454:Drivers/STM32L0xx_HAL_Driver/Src/stm32l0xx_hal_dma.c **** 
 791              		.loc 1 454 5 view .LVU260
 454:Drivers/STM32L0xx_HAL_Driver/Src/stm32l0xx_hal_dma.c **** 
 792              		.loc 1 454 56 is_stmt 0 view .LVU261
 793 0026 416C     		ldr	r1, [r0, #68]
 454:Drivers/STM32L0xx_HAL_Driver/Src/stm32l0xx_hal_dma.c **** 
 794              		.loc 1 454 71 view .LVU262
 795 0028 1C22     		movs	r2, #28
 796 002a 0A40     		ands	r2, r1
 454:Drivers/STM32L0xx_HAL_Driver/Src/stm32l0xx_hal_dma.c **** 
 797              		.loc 1 454 9 view .LVU263
 798 002c 016C     		ldr	r1, [r0, #64]
 454:Drivers/STM32L0xx_HAL_Driver/Src/stm32l0xx_hal_dma.c **** 
 799              		.loc 1 454 48 view .LVU264
 800 002e 1C00     		movs	r4, r3
 801 0030 9440     		lsls	r4, r4, r2
 454:Drivers/STM32L0xx_HAL_Driver/Src/stm32l0xx_hal_dma.c **** 
 802              		.loc 1 454 32 view .LVU265
 803 0032 4C60     		str	r4, [r1, #4]
 457:Drivers/STM32L0xx_HAL_Driver/Src/stm32l0xx_hal_dma.c **** 
 804              		.loc 1 457 5 is_stmt 1 view .LVU266
 457:Drivers/STM32L0xx_HAL_Driver/Src/stm32l0xx_hal_dma.c **** 
 805              		.loc 1 457 17 is_stmt 0 view .LVU267
 806 0034 2522     		movs	r2, #37
 807 0036 8354     		strb	r3, [r0, r2]
 460:Drivers/STM32L0xx_HAL_Driver/Src/stm32l0xx_hal_dma.c **** 
 808              		.loc 1 460 5 is_stmt 1 view .LVU268
 460:Drivers/STM32L0xx_HAL_Driver/Src/stm32l0xx_hal_dma.c **** 
 809              		.loc 1 460 5 view .LVU269
 810 0038 2333     		adds	r3, r3, #35
 811 003a 0022     		movs	r2, #0
 812 003c C254     		strb	r2, [r0, r3]
 460:Drivers/STM32L0xx_HAL_Driver/Src/stm32l0xx_hal_dma.c **** 
 813              		.loc 1 460 5 view .LVU270
 463:Drivers/STM32L0xx_HAL_Driver/Src/stm32l0xx_hal_dma.c ****     {
 814              		.loc 1 463 5 view .LVU271
 463:Drivers/STM32L0xx_HAL_Driver/Src/stm32l0xx_hal_dma.c ****     {
 815              		.loc 1 463 12 is_stmt 0 view .LVU272
 816 003e 836B     		ldr	r3, [r0, #56]
 463:Drivers/STM32L0xx_HAL_Driver/Src/stm32l0xx_hal_dma.c ****     {
 817              		.loc 1 463 7 view .LVU273
 818 0040 002B     		cmp	r3, #0
 819 0042 02D0     		beq	.L34
 465:Drivers/STM32L0xx_HAL_Driver/Src/stm32l0xx_hal_dma.c ****     }
 820              		.loc 1 465 7 is_stmt 1 view .LVU274
 821 0044 9847     		blx	r3
 822              	.LVL55:
 436:Drivers/STM32L0xx_HAL_Driver/Src/stm32l0xx_hal_dma.c **** 
 823              		.loc 1 436 21 is_stmt 0 view .LVU275
 824 0046 0020     		movs	r0, #0
 825 0048 E2E7     		b	.L33
 826              	.LVL56:
 827              	.L34:
 436:Drivers/STM32L0xx_HAL_Driver/Src/stm32l0xx_hal_dma.c **** 
 828              		.loc 1 436 21 view .LVU276
ARM GAS  /tmp/ccjzcf4U.s 			page 35


 829 004a 0020     		movs	r0, #0
 830              	.LVL57:
 436:Drivers/STM32L0xx_HAL_Driver/Src/stm32l0xx_hal_dma.c **** 
 831              		.loc 1 436 21 view .LVU277
 832 004c E0E7     		b	.L33
 833              		.cfi_endproc
 834              	.LFE45:
 836              		.section	.text.HAL_DMA_PollForTransfer,"ax",%progbits
 837              		.align	1
 838              		.global	HAL_DMA_PollForTransfer
 839              		.syntax unified
 840              		.code	16
 841              		.thumb_func
 843              	HAL_DMA_PollForTransfer:
 844              	.LVL58:
 845              	.LFB46:
 480:Drivers/STM32L0xx_HAL_Driver/Src/stm32l0xx_hal_dma.c ****   uint32_t temp;
 846              		.loc 1 480 1 is_stmt 1 view -0
 847              		.cfi_startproc
 848              		@ args = 0, pretend = 0, frame = 8
 849              		@ frame_needed = 0, uses_anonymous_args = 0
 480:Drivers/STM32L0xx_HAL_Driver/Src/stm32l0xx_hal_dma.c ****   uint32_t temp;
 850              		.loc 1 480 1 is_stmt 0 view .LVU279
 851 0000 F0B5     		push	{r4, r5, r6, r7, lr}
 852              		.cfi_def_cfa_offset 20
 853              		.cfi_offset 4, -20
 854              		.cfi_offset 5, -16
 855              		.cfi_offset 6, -12
 856              		.cfi_offset 7, -8
 857              		.cfi_offset 14, -4
 858 0002 83B0     		sub	sp, sp, #12
 859              		.cfi_def_cfa_offset 32
 860 0004 0600     		movs	r6, r0
 861 0006 0C00     		movs	r4, r1
 862 0008 1700     		movs	r7, r2
 481:Drivers/STM32L0xx_HAL_Driver/Src/stm32l0xx_hal_dma.c ****   uint32_t tickstart;
 863              		.loc 1 481 3 is_stmt 1 view .LVU280
 482:Drivers/STM32L0xx_HAL_Driver/Src/stm32l0xx_hal_dma.c **** 
 864              		.loc 1 482 3 view .LVU281
 484:Drivers/STM32L0xx_HAL_Driver/Src/stm32l0xx_hal_dma.c ****   {
 865              		.loc 1 484 3 view .LVU282
 484:Drivers/STM32L0xx_HAL_Driver/Src/stm32l0xx_hal_dma.c ****   {
 866              		.loc 1 484 32 is_stmt 0 view .LVU283
 867 000a 2523     		movs	r3, #37
 868 000c C35C     		ldrb	r3, [r0, r3]
 484:Drivers/STM32L0xx_HAL_Driver/Src/stm32l0xx_hal_dma.c ****   {
 869              		.loc 1 484 5 view .LVU284
 870 000e 022B     		cmp	r3, #2
 871 0010 07D0     		beq	.L36
 487:Drivers/STM32L0xx_HAL_Driver/Src/stm32l0xx_hal_dma.c ****     __HAL_UNLOCK(hdma);
 872              		.loc 1 487 5 is_stmt 1 view .LVU285
 487:Drivers/STM32L0xx_HAL_Driver/Src/stm32l0xx_hal_dma.c ****     __HAL_UNLOCK(hdma);
 873              		.loc 1 487 21 is_stmt 0 view .LVU286
 874 0012 0423     		movs	r3, #4
 875 0014 C363     		str	r3, [r0, #60]
 488:Drivers/STM32L0xx_HAL_Driver/Src/stm32l0xx_hal_dma.c ****     return HAL_ERROR;
 876              		.loc 1 488 5 is_stmt 1 view .LVU287
ARM GAS  /tmp/ccjzcf4U.s 			page 36


 488:Drivers/STM32L0xx_HAL_Driver/Src/stm32l0xx_hal_dma.c ****     return HAL_ERROR;
 877              		.loc 1 488 5 view .LVU288
 878 0016 2033     		adds	r3, r3, #32
 879 0018 0022     		movs	r2, #0
 880              	.LVL59:
 488:Drivers/STM32L0xx_HAL_Driver/Src/stm32l0xx_hal_dma.c ****     return HAL_ERROR;
 881              		.loc 1 488 5 is_stmt 0 view .LVU289
 882 001a C254     		strb	r2, [r0, r3]
 488:Drivers/STM32L0xx_HAL_Driver/Src/stm32l0xx_hal_dma.c ****     return HAL_ERROR;
 883              		.loc 1 488 5 is_stmt 1 view .LVU290
 489:Drivers/STM32L0xx_HAL_Driver/Src/stm32l0xx_hal_dma.c ****   }
 884              		.loc 1 489 5 view .LVU291
 489:Drivers/STM32L0xx_HAL_Driver/Src/stm32l0xx_hal_dma.c ****   }
 885              		.loc 1 489 12 is_stmt 0 view .LVU292
 886 001c 0120     		movs	r0, #1
 887              	.LVL60:
 888              	.L37:
 572:Drivers/STM32L0xx_HAL_Driver/Src/stm32l0xx_hal_dma.c **** 
 889              		.loc 1 572 1 view .LVU293
 890 001e 03B0     		add	sp, sp, #12
 891              		@ sp needed
 892              	.LVL61:
 893              	.LVL62:
 894              	.LVL63:
 572:Drivers/STM32L0xx_HAL_Driver/Src/stm32l0xx_hal_dma.c **** 
 895              		.loc 1 572 1 view .LVU294
 896 0020 F0BD     		pop	{r4, r5, r6, r7, pc}
 897              	.LVL64:
 898              	.L36:
 493:Drivers/STM32L0xx_HAL_Driver/Src/stm32l0xx_hal_dma.c ****   {
 899              		.loc 1 493 3 is_stmt 1 view .LVU295
 493:Drivers/STM32L0xx_HAL_Driver/Src/stm32l0xx_hal_dma.c ****   {
 900              		.loc 1 493 18 is_stmt 0 view .LVU296
 901 0022 0368     		ldr	r3, [r0]
 493:Drivers/STM32L0xx_HAL_Driver/Src/stm32l0xx_hal_dma.c ****   {
 902              		.loc 1 493 28 view .LVU297
 903 0024 1B68     		ldr	r3, [r3]
 493:Drivers/STM32L0xx_HAL_Driver/Src/stm32l0xx_hal_dma.c ****   {
 904              		.loc 1 493 6 view .LVU298
 905 0026 9B06     		lsls	r3, r3, #26
 906 0028 29D4     		bmi	.L49
 500:Drivers/STM32L0xx_HAL_Driver/Src/stm32l0xx_hal_dma.c ****   {
 907              		.loc 1 500 3 is_stmt 1 view .LVU299
 500:Drivers/STM32L0xx_HAL_Driver/Src/stm32l0xx_hal_dma.c ****   {
 908              		.loc 1 500 6 is_stmt 0 view .LVU300
 909 002a 0029     		cmp	r1, #0
 910 002c 2CD1     		bne	.L39
 503:Drivers/STM32L0xx_HAL_Driver/Src/stm32l0xx_hal_dma.c ****   }
 911              		.loc 1 503 5 is_stmt 1 view .LVU301
 503:Drivers/STM32L0xx_HAL_Driver/Src/stm32l0xx_hal_dma.c ****   }
 912              		.loc 1 503 33 is_stmt 0 view .LVU302
 913 002e 426C     		ldr	r2, [r0, #68]
 914              	.LVL65:
 503:Drivers/STM32L0xx_HAL_Driver/Src/stm32l0xx_hal_dma.c ****   }
 915              		.loc 1 503 48 view .LVU303
 916 0030 1C23     		movs	r3, #28
 917 0032 1340     		ands	r3, r2
ARM GAS  /tmp/ccjzcf4U.s 			page 37


 503:Drivers/STM32L0xx_HAL_Driver/Src/stm32l0xx_hal_dma.c ****   }
 918              		.loc 1 503 10 view .LVU304
 919 0034 0225     		movs	r5, #2
 920 0036 9D40     		lsls	r5, r5, r3
 921              	.LVL66:
 922              	.L40:
 512:Drivers/STM32L0xx_HAL_Driver/Src/stm32l0xx_hal_dma.c **** 
 923              		.loc 1 512 3 is_stmt 1 view .LVU305
 512:Drivers/STM32L0xx_HAL_Driver/Src/stm32l0xx_hal_dma.c **** 
 924              		.loc 1 512 15 is_stmt 0 view .LVU306
 925 0038 FFF7FEFF 		bl	HAL_GetTick
 926              	.LVL67:
 512:Drivers/STM32L0xx_HAL_Driver/Src/stm32l0xx_hal_dma.c **** 
 927              		.loc 1 512 15 view .LVU307
 928 003c 0190     		str	r0, [sp, #4]
 929              	.LVL68:
 514:Drivers/STM32L0xx_HAL_Driver/Src/stm32l0xx_hal_dma.c ****   {
 930              		.loc 1 514 3 is_stmt 1 view .LVU308
 931              	.L43:
 514:Drivers/STM32L0xx_HAL_Driver/Src/stm32l0xx_hal_dma.c ****   {
 932              		.loc 1 514 12 view .LVU309
 514:Drivers/STM32L0xx_HAL_Driver/Src/stm32l0xx_hal_dma.c ****   {
 933              		.loc 1 514 20 is_stmt 0 view .LVU310
 934 003e 326C     		ldr	r2, [r6, #64]
 514:Drivers/STM32L0xx_HAL_Driver/Src/stm32l0xx_hal_dma.c ****   {
 935              		.loc 1 514 36 view .LVU311
 936 0040 1368     		ldr	r3, [r2]
 514:Drivers/STM32L0xx_HAL_Driver/Src/stm32l0xx_hal_dma.c ****   {
 937              		.loc 1 514 12 view .LVU312
 938 0042 1D42     		tst	r5, r3
 939 0044 32D1     		bne	.L50
 516:Drivers/STM32L0xx_HAL_Driver/Src/stm32l0xx_hal_dma.c ****     {
 940              		.loc 1 516 5 is_stmt 1 view .LVU313
 516:Drivers/STM32L0xx_HAL_Driver/Src/stm32l0xx_hal_dma.c ****     {
 941              		.loc 1 516 36 is_stmt 0 view .LVU314
 942 0046 1068     		ldr	r0, [r2]
 516:Drivers/STM32L0xx_HAL_Driver/Src/stm32l0xx_hal_dma.c ****     {
 943              		.loc 1 516 66 view .LVU315
 944 0048 716C     		ldr	r1, [r6, #68]
 516:Drivers/STM32L0xx_HAL_Driver/Src/stm32l0xx_hal_dma.c ****     {
 945              		.loc 1 516 80 view .LVU316
 946 004a 1C23     		movs	r3, #28
 947 004c 0B40     		ands	r3, r1
 516:Drivers/STM32L0xx_HAL_Driver/Src/stm32l0xx_hal_dma.c ****     {
 948              		.loc 1 516 58 view .LVU317
 949 004e 0821     		movs	r1, #8
 950 0050 9940     		lsls	r1, r1, r3
 516:Drivers/STM32L0xx_HAL_Driver/Src/stm32l0xx_hal_dma.c ****     {
 951              		.loc 1 516 7 view .LVU318
 952 0052 0142     		tst	r1, r0
 953 0054 1ED1     		bne	.L51
 535:Drivers/STM32L0xx_HAL_Driver/Src/stm32l0xx_hal_dma.c ****     {
 954              		.loc 1 535 5 is_stmt 1 view .LVU319
 535:Drivers/STM32L0xx_HAL_Driver/Src/stm32l0xx_hal_dma.c ****     {
 955              		.loc 1 535 7 is_stmt 0 view .LVU320
 956 0056 7B1C     		adds	r3, r7, #1
 957 0058 F1D0     		beq	.L43
ARM GAS  /tmp/ccjzcf4U.s 			page 38


 537:Drivers/STM32L0xx_HAL_Driver/Src/stm32l0xx_hal_dma.c ****       {
 958              		.loc 1 537 7 is_stmt 1 view .LVU321
 537:Drivers/STM32L0xx_HAL_Driver/Src/stm32l0xx_hal_dma.c ****       {
 959              		.loc 1 537 12 is_stmt 0 view .LVU322
 960 005a FFF7FEFF 		bl	HAL_GetTick
 961              	.LVL69:
 537:Drivers/STM32L0xx_HAL_Driver/Src/stm32l0xx_hal_dma.c ****       {
 962              		.loc 1 537 26 discriminator 1 view .LVU323
 963 005e 019B     		ldr	r3, [sp, #4]
 964 0060 C01A     		subs	r0, r0, r3
 537:Drivers/STM32L0xx_HAL_Driver/Src/stm32l0xx_hal_dma.c ****       {
 965              		.loc 1 537 9 discriminator 1 view .LVU324
 966 0062 B842     		cmp	r0, r7
 967 0064 01D8     		bhi	.L44
 537:Drivers/STM32L0xx_HAL_Driver/Src/stm32l0xx_hal_dma.c ****       {
 968              		.loc 1 537 50 discriminator 1 view .LVU325
 969 0066 002F     		cmp	r7, #0
 970 0068 E9D1     		bne	.L43
 971              	.L44:
 540:Drivers/STM32L0xx_HAL_Driver/Src/stm32l0xx_hal_dma.c **** 
 972              		.loc 1 540 9 is_stmt 1 view .LVU326
 540:Drivers/STM32L0xx_HAL_Driver/Src/stm32l0xx_hal_dma.c **** 
 973              		.loc 1 540 25 is_stmt 0 view .LVU327
 974 006a 2023     		movs	r3, #32
 975 006c F363     		str	r3, [r6, #60]
 543:Drivers/STM32L0xx_HAL_Driver/Src/stm32l0xx_hal_dma.c **** 
 976              		.loc 1 543 9 is_stmt 1 view .LVU328
 543:Drivers/STM32L0xx_HAL_Driver/Src/stm32l0xx_hal_dma.c **** 
 977              		.loc 1 543 21 is_stmt 0 view .LVU329
 978 006e 0533     		adds	r3, r3, #5
 979 0070 0122     		movs	r2, #1
 980 0072 F254     		strb	r2, [r6, r3]
 546:Drivers/STM32L0xx_HAL_Driver/Src/stm32l0xx_hal_dma.c **** 
 981              		.loc 1 546 9 is_stmt 1 view .LVU330
 546:Drivers/STM32L0xx_HAL_Driver/Src/stm32l0xx_hal_dma.c **** 
 982              		.loc 1 546 9 view .LVU331
 983 0074 013B     		subs	r3, r3, #1
 984 0076 0022     		movs	r2, #0
 985 0078 F254     		strb	r2, [r6, r3]
 546:Drivers/STM32L0xx_HAL_Driver/Src/stm32l0xx_hal_dma.c **** 
 986              		.loc 1 546 9 view .LVU332
 548:Drivers/STM32L0xx_HAL_Driver/Src/stm32l0xx_hal_dma.c ****       }
 987              		.loc 1 548 9 view .LVU333
 548:Drivers/STM32L0xx_HAL_Driver/Src/stm32l0xx_hal_dma.c ****       }
 988              		.loc 1 548 16 is_stmt 0 view .LVU334
 989 007a 0120     		movs	r0, #1
 990 007c CFE7     		b	.L37
 991              	.LVL70:
 992              	.L49:
 495:Drivers/STM32L0xx_HAL_Driver/Src/stm32l0xx_hal_dma.c ****     return HAL_ERROR;
 993              		.loc 1 495 5 is_stmt 1 view .LVU335
 495:Drivers/STM32L0xx_HAL_Driver/Src/stm32l0xx_hal_dma.c ****     return HAL_ERROR;
 994              		.loc 1 495 21 is_stmt 0 view .LVU336
 995 007e 8023     		movs	r3, #128
 996 0080 5B00     		lsls	r3, r3, #1
 997 0082 C363     		str	r3, [r0, #60]
 496:Drivers/STM32L0xx_HAL_Driver/Src/stm32l0xx_hal_dma.c ****   }
ARM GAS  /tmp/ccjzcf4U.s 			page 39


 998              		.loc 1 496 5 is_stmt 1 view .LVU337
 496:Drivers/STM32L0xx_HAL_Driver/Src/stm32l0xx_hal_dma.c ****   }
 999              		.loc 1 496 12 is_stmt 0 view .LVU338
 1000 0084 0120     		movs	r0, #1
 1001              	.LVL71:
 496:Drivers/STM32L0xx_HAL_Driver/Src/stm32l0xx_hal_dma.c ****   }
 1002              		.loc 1 496 12 view .LVU339
 1003 0086 CAE7     		b	.L37
 1004              	.LVL72:
 1005              	.L39:
 508:Drivers/STM32L0xx_HAL_Driver/Src/stm32l0xx_hal_dma.c ****   }
 1006              		.loc 1 508 5 is_stmt 1 view .LVU340
 508:Drivers/STM32L0xx_HAL_Driver/Src/stm32l0xx_hal_dma.c ****   }
 1007              		.loc 1 508 33 is_stmt 0 view .LVU341
 1008 0088 426C     		ldr	r2, [r0, #68]
 1009              	.LVL73:
 508:Drivers/STM32L0xx_HAL_Driver/Src/stm32l0xx_hal_dma.c ****   }
 1010              		.loc 1 508 48 view .LVU342
 1011 008a 1C23     		movs	r3, #28
 1012 008c 1340     		ands	r3, r2
 508:Drivers/STM32L0xx_HAL_Driver/Src/stm32l0xx_hal_dma.c ****   }
 1013              		.loc 1 508 10 view .LVU343
 1014 008e 0425     		movs	r5, #4
 1015 0090 9D40     		lsls	r5, r5, r3
 1016              	.LVL74:
 508:Drivers/STM32L0xx_HAL_Driver/Src/stm32l0xx_hal_dma.c ****   }
 1017              		.loc 1 508 10 view .LVU344
 1018 0092 D1E7     		b	.L40
 1019              	.LVL75:
 1020              	.L51:
 521:Drivers/STM32L0xx_HAL_Driver/Src/stm32l0xx_hal_dma.c **** 
 1021              		.loc 1 521 7 is_stmt 1 view .LVU345
 521:Drivers/STM32L0xx_HAL_Driver/Src/stm32l0xx_hal_dma.c **** 
 1022              		.loc 1 521 50 is_stmt 0 view .LVU346
 1023 0094 0121     		movs	r1, #1
 1024 0096 0800     		movs	r0, r1
 1025 0098 9840     		lsls	r0, r0, r3
 521:Drivers/STM32L0xx_HAL_Driver/Src/stm32l0xx_hal_dma.c **** 
 1026              		.loc 1 521 34 view .LVU347
 1027 009a 5060     		str	r0, [r2, #4]
 524:Drivers/STM32L0xx_HAL_Driver/Src/stm32l0xx_hal_dma.c **** 
 1028              		.loc 1 524 7 is_stmt 1 view .LVU348
 524:Drivers/STM32L0xx_HAL_Driver/Src/stm32l0xx_hal_dma.c **** 
 1029              		.loc 1 524 23 is_stmt 0 view .LVU349
 1030 009c F163     		str	r1, [r6, #60]
 527:Drivers/STM32L0xx_HAL_Driver/Src/stm32l0xx_hal_dma.c **** 
 1031              		.loc 1 527 7 is_stmt 1 view .LVU350
 527:Drivers/STM32L0xx_HAL_Driver/Src/stm32l0xx_hal_dma.c **** 
 1032              		.loc 1 527 18 is_stmt 0 view .LVU351
 1033 009e 2523     		movs	r3, #37
 1034 00a0 F154     		strb	r1, [r6, r3]
 530:Drivers/STM32L0xx_HAL_Driver/Src/stm32l0xx_hal_dma.c **** 
 1035              		.loc 1 530 7 is_stmt 1 view .LVU352
 530:Drivers/STM32L0xx_HAL_Driver/Src/stm32l0xx_hal_dma.c **** 
 1036              		.loc 1 530 7 view .LVU353
 1037 00a2 013B     		subs	r3, r3, #1
 1038 00a4 0022     		movs	r2, #0
ARM GAS  /tmp/ccjzcf4U.s 			page 40


 1039 00a6 F254     		strb	r2, [r6, r3]
 530:Drivers/STM32L0xx_HAL_Driver/Src/stm32l0xx_hal_dma.c **** 
 1040              		.loc 1 530 7 view .LVU354
 532:Drivers/STM32L0xx_HAL_Driver/Src/stm32l0xx_hal_dma.c ****     }
 1041              		.loc 1 532 7 view .LVU355
 532:Drivers/STM32L0xx_HAL_Driver/Src/stm32l0xx_hal_dma.c ****     }
 1042              		.loc 1 532 14 is_stmt 0 view .LVU356
 1043 00a8 0120     		movs	r0, #1
 1044 00aa B8E7     		b	.L37
 1045              	.L50:
 553:Drivers/STM32L0xx_HAL_Driver/Src/stm32l0xx_hal_dma.c ****   {
 1046              		.loc 1 553 3 is_stmt 1 view .LVU357
 553:Drivers/STM32L0xx_HAL_Driver/Src/stm32l0xx_hal_dma.c ****   {
 1047              		.loc 1 553 5 is_stmt 0 view .LVU358
 1048 00ac 002C     		cmp	r4, #0
 1049 00ae 0DD1     		bne	.L46
 556:Drivers/STM32L0xx_HAL_Driver/Src/stm32l0xx_hal_dma.c **** 
 1050              		.loc 1 556 5 is_stmt 1 view .LVU359
 556:Drivers/STM32L0xx_HAL_Driver/Src/stm32l0xx_hal_dma.c **** 
 1051              		.loc 1 556 56 is_stmt 0 view .LVU360
 1052 00b0 736C     		ldr	r3, [r6, #68]
 556:Drivers/STM32L0xx_HAL_Driver/Src/stm32l0xx_hal_dma.c **** 
 1053              		.loc 1 556 70 view .LVU361
 1054 00b2 1C21     		movs	r1, #28
 1055 00b4 1940     		ands	r1, r3
 556:Drivers/STM32L0xx_HAL_Driver/Src/stm32l0xx_hal_dma.c **** 
 1056              		.loc 1 556 48 view .LVU362
 1057 00b6 0223     		movs	r3, #2
 1058 00b8 8B40     		lsls	r3, r3, r1
 556:Drivers/STM32L0xx_HAL_Driver/Src/stm32l0xx_hal_dma.c **** 
 1059              		.loc 1 556 32 view .LVU363
 1060 00ba 5360     		str	r3, [r2, #4]
 560:Drivers/STM32L0xx_HAL_Driver/Src/stm32l0xx_hal_dma.c ****   }
 1061              		.loc 1 560 5 is_stmt 1 view .LVU364
 560:Drivers/STM32L0xx_HAL_Driver/Src/stm32l0xx_hal_dma.c ****   }
 1062              		.loc 1 560 17 is_stmt 0 view .LVU365
 1063 00bc 2523     		movs	r3, #37
 1064 00be 0122     		movs	r2, #1
 1065 00c0 F254     		strb	r2, [r6, r3]
 1066              	.L47:
 569:Drivers/STM32L0xx_HAL_Driver/Src/stm32l0xx_hal_dma.c **** 
 1067              		.loc 1 569 3 is_stmt 1 view .LVU366
 569:Drivers/STM32L0xx_HAL_Driver/Src/stm32l0xx_hal_dma.c **** 
 1068              		.loc 1 569 3 view .LVU367
 1069 00c2 2423     		movs	r3, #36
 1070 00c4 0022     		movs	r2, #0
 1071 00c6 F254     		strb	r2, [r6, r3]
 569:Drivers/STM32L0xx_HAL_Driver/Src/stm32l0xx_hal_dma.c **** 
 1072              		.loc 1 569 3 view .LVU368
 571:Drivers/STM32L0xx_HAL_Driver/Src/stm32l0xx_hal_dma.c **** }
 1073              		.loc 1 571 3 view .LVU369
 571:Drivers/STM32L0xx_HAL_Driver/Src/stm32l0xx_hal_dma.c **** }
 1074              		.loc 1 571 10 is_stmt 0 view .LVU370
 1075 00c8 0020     		movs	r0, #0
 1076 00ca A8E7     		b	.L37
 1077              	.L46:
 565:Drivers/STM32L0xx_HAL_Driver/Src/stm32l0xx_hal_dma.c ****   }
ARM GAS  /tmp/ccjzcf4U.s 			page 41


 1078              		.loc 1 565 5 is_stmt 1 view .LVU371
 565:Drivers/STM32L0xx_HAL_Driver/Src/stm32l0xx_hal_dma.c ****   }
 1079              		.loc 1 565 56 is_stmt 0 view .LVU372
 1080 00cc 736C     		ldr	r3, [r6, #68]
 565:Drivers/STM32L0xx_HAL_Driver/Src/stm32l0xx_hal_dma.c ****   }
 1081              		.loc 1 565 71 view .LVU373
 1082 00ce 1C21     		movs	r1, #28
 1083 00d0 1940     		ands	r1, r3
 565:Drivers/STM32L0xx_HAL_Driver/Src/stm32l0xx_hal_dma.c ****   }
 1084              		.loc 1 565 48 view .LVU374
 1085 00d2 0423     		movs	r3, #4
 1086 00d4 8B40     		lsls	r3, r3, r1
 565:Drivers/STM32L0xx_HAL_Driver/Src/stm32l0xx_hal_dma.c ****   }
 1087              		.loc 1 565 32 view .LVU375
 1088 00d6 5360     		str	r3, [r2, #4]
 1089 00d8 F3E7     		b	.L47
 1090              		.cfi_endproc
 1091              	.LFE46:
 1093              		.section	.text.HAL_DMA_IRQHandler,"ax",%progbits
 1094              		.align	1
 1095              		.global	HAL_DMA_IRQHandler
 1096              		.syntax unified
 1097              		.code	16
 1098              		.thumb_func
 1100              	HAL_DMA_IRQHandler:
 1101              	.LVL76:
 1102              	.LFB47:
 581:Drivers/STM32L0xx_HAL_Driver/Src/stm32l0xx_hal_dma.c ****   uint32_t flag_it = hdma->DmaBaseAddress->ISR;
 1103              		.loc 1 581 1 is_stmt 1 view -0
 1104              		.cfi_startproc
 1105              		@ args = 0, pretend = 0, frame = 0
 1106              		@ frame_needed = 0, uses_anonymous_args = 0
 581:Drivers/STM32L0xx_HAL_Driver/Src/stm32l0xx_hal_dma.c ****   uint32_t flag_it = hdma->DmaBaseAddress->ISR;
 1107              		.loc 1 581 1 is_stmt 0 view .LVU377
 1108 0000 70B5     		push	{r4, r5, r6, lr}
 1109              		.cfi_def_cfa_offset 16
 1110              		.cfi_offset 4, -16
 1111              		.cfi_offset 5, -12
 1112              		.cfi_offset 6, -8
 1113              		.cfi_offset 14, -4
 582:Drivers/STM32L0xx_HAL_Driver/Src/stm32l0xx_hal_dma.c ****   uint32_t source_it = hdma->Instance->CCR;
 1114              		.loc 1 582 3 is_stmt 1 view .LVU378
 582:Drivers/STM32L0xx_HAL_Driver/Src/stm32l0xx_hal_dma.c ****   uint32_t source_it = hdma->Instance->CCR;
 1115              		.loc 1 582 26 is_stmt 0 view .LVU379
 1116 0002 036C     		ldr	r3, [r0, #64]
 582:Drivers/STM32L0xx_HAL_Driver/Src/stm32l0xx_hal_dma.c ****   uint32_t source_it = hdma->Instance->CCR;
 1117              		.loc 1 582 12 view .LVU380
 1118 0004 1968     		ldr	r1, [r3]
 1119              	.LVL77:
 583:Drivers/STM32L0xx_HAL_Driver/Src/stm32l0xx_hal_dma.c **** 
 1120              		.loc 1 583 3 is_stmt 1 view .LVU381
 583:Drivers/STM32L0xx_HAL_Driver/Src/stm32l0xx_hal_dma.c **** 
 1121              		.loc 1 583 28 is_stmt 0 view .LVU382
 1122 0006 0468     		ldr	r4, [r0]
 583:Drivers/STM32L0xx_HAL_Driver/Src/stm32l0xx_hal_dma.c **** 
 1123              		.loc 1 583 12 view .LVU383
 1124 0008 2568     		ldr	r5, [r4]
ARM GAS  /tmp/ccjzcf4U.s 			page 42


 1125              	.LVL78:
 586:Drivers/STM32L0xx_HAL_Driver/Src/stm32l0xx_hal_dma.c ****   {
 1126              		.loc 1 586 3 is_stmt 1 view .LVU384
 586:Drivers/STM32L0xx_HAL_Driver/Src/stm32l0xx_hal_dma.c ****   {
 1127              		.loc 1 586 47 is_stmt 0 view .LVU385
 1128 000a 426C     		ldr	r2, [r0, #68]
 586:Drivers/STM32L0xx_HAL_Driver/Src/stm32l0xx_hal_dma.c ****   {
 1129              		.loc 1 586 62 view .LVU386
 1130 000c 1C23     		movs	r3, #28
 1131 000e 1340     		ands	r3, r2
 586:Drivers/STM32L0xx_HAL_Driver/Src/stm32l0xx_hal_dma.c ****   {
 1132              		.loc 1 586 39 view .LVU387
 1133 0010 0422     		movs	r2, #4
 1134 0012 9A40     		lsls	r2, r2, r3
 586:Drivers/STM32L0xx_HAL_Driver/Src/stm32l0xx_hal_dma.c ****   {
 1135              		.loc 1 586 6 view .LVU388
 1136 0014 1142     		tst	r1, r2
 1137 0016 14D0     		beq	.L53
 586:Drivers/STM32L0xx_HAL_Driver/Src/stm32l0xx_hal_dma.c ****   {
 1138              		.loc 1 586 74 discriminator 1 view .LVU389
 1139 0018 6A07     		lsls	r2, r5, #29
 1140 001a 12D5     		bpl	.L53
 589:Drivers/STM32L0xx_HAL_Driver/Src/stm32l0xx_hal_dma.c ****       {
 1141              		.loc 1 589 7 is_stmt 1 view .LVU390
 589:Drivers/STM32L0xx_HAL_Driver/Src/stm32l0xx_hal_dma.c ****       {
 1142              		.loc 1 589 25 is_stmt 0 view .LVU391
 1143 001c 2368     		ldr	r3, [r4]
 589:Drivers/STM32L0xx_HAL_Driver/Src/stm32l0xx_hal_dma.c ****       {
 1144              		.loc 1 589 9 view .LVU392
 1145 001e 9B06     		lsls	r3, r3, #26
 1146 0020 03D4     		bmi	.L54
 592:Drivers/STM32L0xx_HAL_Driver/Src/stm32l0xx_hal_dma.c ****       }
 1147              		.loc 1 592 9 is_stmt 1 view .LVU393
 1148 0022 2368     		ldr	r3, [r4]
 1149 0024 0422     		movs	r2, #4
 1150 0026 9343     		bics	r3, r2
 1151 0028 2360     		str	r3, [r4]
 1152              	.L54:
 595:Drivers/STM32L0xx_HAL_Driver/Src/stm32l0xx_hal_dma.c **** 
 1153              		.loc 1 595 7 view .LVU394
 595:Drivers/STM32L0xx_HAL_Driver/Src/stm32l0xx_hal_dma.c **** 
 1154              		.loc 1 595 58 is_stmt 0 view .LVU395
 1155 002a 436C     		ldr	r3, [r0, #68]
 595:Drivers/STM32L0xx_HAL_Driver/Src/stm32l0xx_hal_dma.c **** 
 1156              		.loc 1 595 73 view .LVU396
 1157 002c 1C22     		movs	r2, #28
 1158 002e 1A40     		ands	r2, r3
 595:Drivers/STM32L0xx_HAL_Driver/Src/stm32l0xx_hal_dma.c **** 
 1159              		.loc 1 595 11 view .LVU397
 1160 0030 016C     		ldr	r1, [r0, #64]
 1161              	.LVL79:
 595:Drivers/STM32L0xx_HAL_Driver/Src/stm32l0xx_hal_dma.c **** 
 1162              		.loc 1 595 50 view .LVU398
 1163 0032 0423     		movs	r3, #4
 1164 0034 9340     		lsls	r3, r3, r2
 595:Drivers/STM32L0xx_HAL_Driver/Src/stm32l0xx_hal_dma.c **** 
 1165              		.loc 1 595 34 view .LVU399
ARM GAS  /tmp/ccjzcf4U.s 			page 43


 1166 0036 4B60     		str	r3, [r1, #4]
 600:Drivers/STM32L0xx_HAL_Driver/Src/stm32l0xx_hal_dma.c ****       {
 1167              		.loc 1 600 6 is_stmt 1 view .LVU400
 600:Drivers/STM32L0xx_HAL_Driver/Src/stm32l0xx_hal_dma.c ****       {
 1168              		.loc 1 600 13 is_stmt 0 view .LVU401
 1169 0038 036B     		ldr	r3, [r0, #48]
 600:Drivers/STM32L0xx_HAL_Driver/Src/stm32l0xx_hal_dma.c ****       {
 1170              		.loc 1 600 8 view .LVU402
 1171 003a 002B     		cmp	r3, #0
 1172 003c 00D0     		beq	.L52
 603:Drivers/STM32L0xx_HAL_Driver/Src/stm32l0xx_hal_dma.c ****       }
 1173              		.loc 1 603 9 is_stmt 1 view .LVU403
 1174 003e 9847     		blx	r3
 1175              	.LVL80:
 1176              	.L52:
 662:Drivers/STM32L0xx_HAL_Driver/Src/stm32l0xx_hal_dma.c **** 
 1177              		.loc 1 662 1 is_stmt 0 view .LVU404
 1178              		@ sp needed
 1179 0040 70BD     		pop	{r4, r5, r6, pc}
 1180              	.LVL81:
 1181              	.L53:
 608:Drivers/STM32L0xx_HAL_Driver/Src/stm32l0xx_hal_dma.c ****   {
 1182              		.loc 1 608 8 is_stmt 1 view .LVU405
 608:Drivers/STM32L0xx_HAL_Driver/Src/stm32l0xx_hal_dma.c ****   {
 1183              		.loc 1 608 44 is_stmt 0 view .LVU406
 1184 0042 0222     		movs	r2, #2
 1185 0044 9A40     		lsls	r2, r2, r3
 608:Drivers/STM32L0xx_HAL_Driver/Src/stm32l0xx_hal_dma.c ****   {
 1186              		.loc 1 608 11 view .LVU407
 1187 0046 1142     		tst	r1, r2
 1188 0048 1AD0     		beq	.L56
 608:Drivers/STM32L0xx_HAL_Driver/Src/stm32l0xx_hal_dma.c ****   {
 1189              		.loc 1 608 79 discriminator 1 view .LVU408
 1190 004a AA07     		lsls	r2, r5, #30
 1191 004c 18D5     		bpl	.L56
 610:Drivers/STM32L0xx_HAL_Driver/Src/stm32l0xx_hal_dma.c ****     {
 1192              		.loc 1 610 5 is_stmt 1 view .LVU409
 610:Drivers/STM32L0xx_HAL_Driver/Src/stm32l0xx_hal_dma.c ****     {
 1193              		.loc 1 610 23 is_stmt 0 view .LVU410
 1194 004e 2368     		ldr	r3, [r4]
 610:Drivers/STM32L0xx_HAL_Driver/Src/stm32l0xx_hal_dma.c ****     {
 1195              		.loc 1 610 7 view .LVU411
 1196 0050 9B06     		lsls	r3, r3, #26
 1197 0052 06D4     		bmi	.L57
 613:Drivers/STM32L0xx_HAL_Driver/Src/stm32l0xx_hal_dma.c **** 
 1198              		.loc 1 613 7 is_stmt 1 view .LVU412
 1199 0054 2368     		ldr	r3, [r4]
 1200 0056 0A22     		movs	r2, #10
 1201 0058 9343     		bics	r3, r2
 1202 005a 2360     		str	r3, [r4]
 616:Drivers/STM32L0xx_HAL_Driver/Src/stm32l0xx_hal_dma.c ****     }
 1203              		.loc 1 616 7 view .LVU413
 616:Drivers/STM32L0xx_HAL_Driver/Src/stm32l0xx_hal_dma.c ****     }
 1204              		.loc 1 616 19 is_stmt 0 view .LVU414
 1205 005c 2523     		movs	r3, #37
 1206 005e 093A     		subs	r2, r2, #9
 1207 0060 C254     		strb	r2, [r0, r3]
ARM GAS  /tmp/ccjzcf4U.s 			page 44


 1208              	.L57:
 619:Drivers/STM32L0xx_HAL_Driver/Src/stm32l0xx_hal_dma.c **** 
 1209              		.loc 1 619 5 is_stmt 1 view .LVU415
 619:Drivers/STM32L0xx_HAL_Driver/Src/stm32l0xx_hal_dma.c **** 
 1210              		.loc 1 619 57 is_stmt 0 view .LVU416
 1211 0062 436C     		ldr	r3, [r0, #68]
 619:Drivers/STM32L0xx_HAL_Driver/Src/stm32l0xx_hal_dma.c **** 
 1212              		.loc 1 619 72 view .LVU417
 1213 0064 1C22     		movs	r2, #28
 1214 0066 1A40     		ands	r2, r3
 619:Drivers/STM32L0xx_HAL_Driver/Src/stm32l0xx_hal_dma.c **** 
 1215              		.loc 1 619 9 view .LVU418
 1216 0068 016C     		ldr	r1, [r0, #64]
 1217              	.LVL82:
 619:Drivers/STM32L0xx_HAL_Driver/Src/stm32l0xx_hal_dma.c **** 
 1218              		.loc 1 619 49 view .LVU419
 1219 006a 0223     		movs	r3, #2
 1220 006c 9340     		lsls	r3, r3, r2
 619:Drivers/STM32L0xx_HAL_Driver/Src/stm32l0xx_hal_dma.c **** 
 1221              		.loc 1 619 32 view .LVU420
 1222 006e 4B60     		str	r3, [r1, #4]
 622:Drivers/STM32L0xx_HAL_Driver/Src/stm32l0xx_hal_dma.c **** 
 1223              		.loc 1 622 5 is_stmt 1 view .LVU421
 622:Drivers/STM32L0xx_HAL_Driver/Src/stm32l0xx_hal_dma.c **** 
 1224              		.loc 1 622 5 view .LVU422
 1225 0070 2423     		movs	r3, #36
 1226 0072 0022     		movs	r2, #0
 1227 0074 C254     		strb	r2, [r0, r3]
 622:Drivers/STM32L0xx_HAL_Driver/Src/stm32l0xx_hal_dma.c **** 
 1228              		.loc 1 622 5 view .LVU423
 624:Drivers/STM32L0xx_HAL_Driver/Src/stm32l0xx_hal_dma.c ****     {
 1229              		.loc 1 624 5 view .LVU424
 624:Drivers/STM32L0xx_HAL_Driver/Src/stm32l0xx_hal_dma.c ****     {
 1230              		.loc 1 624 12 is_stmt 0 view .LVU425
 1231 0076 C36A     		ldr	r3, [r0, #44]
 624:Drivers/STM32L0xx_HAL_Driver/Src/stm32l0xx_hal_dma.c ****     {
 1232              		.loc 1 624 7 view .LVU426
 1233 0078 002B     		cmp	r3, #0
 1234 007a E1D0     		beq	.L52
 627:Drivers/STM32L0xx_HAL_Driver/Src/stm32l0xx_hal_dma.c ****     }
 1235              		.loc 1 627 7 is_stmt 1 view .LVU427
 1236 007c 9847     		blx	r3
 1237              	.LVL83:
 627:Drivers/STM32L0xx_HAL_Driver/Src/stm32l0xx_hal_dma.c ****     }
 1238              		.loc 1 627 7 is_stmt 0 view .LVU428
 1239 007e DFE7     		b	.L52
 1240              	.LVL84:
 1241              	.L56:
 632:Drivers/STM32L0xx_HAL_Driver/Src/stm32l0xx_hal_dma.c ****   {
 1242              		.loc 1 632 8 is_stmt 1 view .LVU429
 632:Drivers/STM32L0xx_HAL_Driver/Src/stm32l0xx_hal_dma.c ****   {
 1243              		.loc 1 632 44 is_stmt 0 view .LVU430
 1244 0080 0822     		movs	r2, #8
 1245 0082 9A40     		lsls	r2, r2, r3
 632:Drivers/STM32L0xx_HAL_Driver/Src/stm32l0xx_hal_dma.c ****   {
 1246              		.loc 1 632 11 view .LVU431
 1247 0084 1142     		tst	r1, r2
ARM GAS  /tmp/ccjzcf4U.s 			page 45


 1248 0086 DBD0     		beq	.L52
 632:Drivers/STM32L0xx_HAL_Driver/Src/stm32l0xx_hal_dma.c ****   {
 1249              		.loc 1 632 79 discriminator 1 view .LVU432
 1250 0088 2D07     		lsls	r5, r5, #28
 1251 008a D9D5     		bpl	.L52
 1252              	.LVL85:
 637:Drivers/STM32L0xx_HAL_Driver/Src/stm32l0xx_hal_dma.c **** 
 1253              		.loc 1 637 5 is_stmt 1 view .LVU433
 1254 008c 2368     		ldr	r3, [r4]
 1255 008e 0E22     		movs	r2, #14
 1256 0090 9343     		bics	r3, r2
 1257 0092 2360     		str	r3, [r4]
 640:Drivers/STM32L0xx_HAL_Driver/Src/stm32l0xx_hal_dma.c **** 
 1258              		.loc 1 640 5 view .LVU434
 640:Drivers/STM32L0xx_HAL_Driver/Src/stm32l0xx_hal_dma.c **** 
 1259              		.loc 1 640 56 is_stmt 0 view .LVU435
 1260 0094 436C     		ldr	r3, [r0, #68]
 640:Drivers/STM32L0xx_HAL_Driver/Src/stm32l0xx_hal_dma.c **** 
 1261              		.loc 1 640 71 view .LVU436
 1262 0096 0E32     		adds	r2, r2, #14
 1263 0098 1A40     		ands	r2, r3
 640:Drivers/STM32L0xx_HAL_Driver/Src/stm32l0xx_hal_dma.c **** 
 1264              		.loc 1 640 9 view .LVU437
 1265 009a 016C     		ldr	r1, [r0, #64]
 1266              	.LVL86:
 640:Drivers/STM32L0xx_HAL_Driver/Src/stm32l0xx_hal_dma.c **** 
 1267              		.loc 1 640 48 view .LVU438
 1268 009c 0123     		movs	r3, #1
 1269 009e 1C00     		movs	r4, r3
 1270 00a0 9440     		lsls	r4, r4, r2
 640:Drivers/STM32L0xx_HAL_Driver/Src/stm32l0xx_hal_dma.c **** 
 1271              		.loc 1 640 32 view .LVU439
 1272 00a2 4C60     		str	r4, [r1, #4]
 643:Drivers/STM32L0xx_HAL_Driver/Src/stm32l0xx_hal_dma.c **** 
 1273              		.loc 1 643 5 is_stmt 1 view .LVU440
 643:Drivers/STM32L0xx_HAL_Driver/Src/stm32l0xx_hal_dma.c **** 
 1274              		.loc 1 643 21 is_stmt 0 view .LVU441
 1275 00a4 C363     		str	r3, [r0, #60]
 646:Drivers/STM32L0xx_HAL_Driver/Src/stm32l0xx_hal_dma.c **** 
 1276              		.loc 1 646 5 is_stmt 1 view .LVU442
 646:Drivers/STM32L0xx_HAL_Driver/Src/stm32l0xx_hal_dma.c **** 
 1277              		.loc 1 646 17 is_stmt 0 view .LVU443
 1278 00a6 2522     		movs	r2, #37
 1279 00a8 8354     		strb	r3, [r0, r2]
 649:Drivers/STM32L0xx_HAL_Driver/Src/stm32l0xx_hal_dma.c **** 
 1280              		.loc 1 649 5 is_stmt 1 view .LVU444
 649:Drivers/STM32L0xx_HAL_Driver/Src/stm32l0xx_hal_dma.c **** 
 1281              		.loc 1 649 5 view .LVU445
 1282 00aa 2333     		adds	r3, r3, #35
 1283 00ac 0022     		movs	r2, #0
 1284 00ae C254     		strb	r2, [r0, r3]
 649:Drivers/STM32L0xx_HAL_Driver/Src/stm32l0xx_hal_dma.c **** 
 1285              		.loc 1 649 5 view .LVU446
 651:Drivers/STM32L0xx_HAL_Driver/Src/stm32l0xx_hal_dma.c ****     {
 1286              		.loc 1 651 5 view .LVU447
 651:Drivers/STM32L0xx_HAL_Driver/Src/stm32l0xx_hal_dma.c ****     {
 1287              		.loc 1 651 13 is_stmt 0 view .LVU448
ARM GAS  /tmp/ccjzcf4U.s 			page 46


 1288 00b0 436B     		ldr	r3, [r0, #52]
 651:Drivers/STM32L0xx_HAL_Driver/Src/stm32l0xx_hal_dma.c ****     {
 1289              		.loc 1 651 8 view .LVU449
 1290 00b2 002B     		cmp	r3, #0
 1291 00b4 C4D0     		beq	.L52
 654:Drivers/STM32L0xx_HAL_Driver/Src/stm32l0xx_hal_dma.c ****     }
 1292              		.loc 1 654 7 is_stmt 1 view .LVU450
 1293 00b6 9847     		blx	r3
 1294              	.LVL87:
 660:Drivers/STM32L0xx_HAL_Driver/Src/stm32l0xx_hal_dma.c ****   return;
 1295              		.loc 1 660 3 view .LVU451
 661:Drivers/STM32L0xx_HAL_Driver/Src/stm32l0xx_hal_dma.c **** }
 1296              		.loc 1 661 3 view .LVU452
 1297 00b8 C2E7     		b	.L52
 1298              		.cfi_endproc
 1299              	.LFE47:
 1301              		.section	.text.HAL_DMA_RegisterCallback,"ax",%progbits
 1302              		.align	1
 1303              		.global	HAL_DMA_RegisterCallback
 1304              		.syntax unified
 1305              		.code	16
 1306              		.thumb_func
 1308              	HAL_DMA_RegisterCallback:
 1309              	.LVL88:
 1310              	.LFB48:
 675:Drivers/STM32L0xx_HAL_Driver/Src/stm32l0xx_hal_dma.c ****   HAL_StatusTypeDef status = HAL_OK;
 1311              		.loc 1 675 1 view -0
 1312              		.cfi_startproc
 1313              		@ args = 0, pretend = 0, frame = 0
 1314              		@ frame_needed = 0, uses_anonymous_args = 0
 675:Drivers/STM32L0xx_HAL_Driver/Src/stm32l0xx_hal_dma.c ****   HAL_StatusTypeDef status = HAL_OK;
 1315              		.loc 1 675 1 is_stmt 0 view .LVU454
 1316 0000 10B5     		push	{r4, lr}
 1317              		.cfi_def_cfa_offset 8
 1318              		.cfi_offset 4, -8
 1319              		.cfi_offset 14, -4
 1320 0002 0300     		movs	r3, r0
 676:Drivers/STM32L0xx_HAL_Driver/Src/stm32l0xx_hal_dma.c **** 
 1321              		.loc 1 676 3 is_stmt 1 view .LVU455
 1322              	.LVL89:
 679:Drivers/STM32L0xx_HAL_Driver/Src/stm32l0xx_hal_dma.c **** 
 1323              		.loc 1 679 3 view .LVU456
 679:Drivers/STM32L0xx_HAL_Driver/Src/stm32l0xx_hal_dma.c **** 
 1324              		.loc 1 679 3 view .LVU457
 1325 0004 2420     		movs	r0, #36
 1326              	.LVL90:
 679:Drivers/STM32L0xx_HAL_Driver/Src/stm32l0xx_hal_dma.c **** 
 1327              		.loc 1 679 3 is_stmt 0 view .LVU458
 1328 0006 185C     		ldrb	r0, [r3, r0]
 1329 0008 0128     		cmp	r0, #1
 1330 000a 21D0     		beq	.L71
 679:Drivers/STM32L0xx_HAL_Driver/Src/stm32l0xx_hal_dma.c **** 
 1331              		.loc 1 679 3 is_stmt 1 discriminator 2 view .LVU459
 1332 000c 2420     		movs	r0, #36
 1333 000e 0124     		movs	r4, #1
 1334 0010 1C54     		strb	r4, [r3, r0]
 679:Drivers/STM32L0xx_HAL_Driver/Src/stm32l0xx_hal_dma.c **** 
ARM GAS  /tmp/ccjzcf4U.s 			page 47


 1335              		.loc 1 679 3 discriminator 2 view .LVU460
 681:Drivers/STM32L0xx_HAL_Driver/Src/stm32l0xx_hal_dma.c ****   {
 1336              		.loc 1 681 3 view .LVU461
 681:Drivers/STM32L0xx_HAL_Driver/Src/stm32l0xx_hal_dma.c ****   {
 1337              		.loc 1 681 33 is_stmt 0 view .LVU462
 1338 0012 0130     		adds	r0, r0, #1
 1339 0014 1C5C     		ldrb	r4, [r3, r0]
 1340 0016 E0B2     		uxtb	r0, r4
 681:Drivers/STM32L0xx_HAL_Driver/Src/stm32l0xx_hal_dma.c ****   {
 1341              		.loc 1 681 5 view .LVU463
 1342 0018 012C     		cmp	r4, #1
 1343 001a 04D0     		beq	.L73
 708:Drivers/STM32L0xx_HAL_Driver/Src/stm32l0xx_hal_dma.c ****   }
 1344              		.loc 1 708 12 view .LVU464
 1345 001c 0120     		movs	r0, #1
 1346              	.L65:
 1347              	.LVL91:
 712:Drivers/STM32L0xx_HAL_Driver/Src/stm32l0xx_hal_dma.c **** 
 1348              		.loc 1 712 3 is_stmt 1 view .LVU465
 712:Drivers/STM32L0xx_HAL_Driver/Src/stm32l0xx_hal_dma.c **** 
 1349              		.loc 1 712 3 view .LVU466
 1350 001e 2422     		movs	r2, #36
 1351              	.LVL92:
 712:Drivers/STM32L0xx_HAL_Driver/Src/stm32l0xx_hal_dma.c **** 
 1352              		.loc 1 712 3 is_stmt 0 view .LVU467
 1353 0020 0021     		movs	r1, #0
 1354              	.LVL93:
 712:Drivers/STM32L0xx_HAL_Driver/Src/stm32l0xx_hal_dma.c **** 
 1355              		.loc 1 712 3 view .LVU468
 1356 0022 9954     		strb	r1, [r3, r2]
 712:Drivers/STM32L0xx_HAL_Driver/Src/stm32l0xx_hal_dma.c **** 
 1357              		.loc 1 712 3 is_stmt 1 view .LVU469
 714:Drivers/STM32L0xx_HAL_Driver/Src/stm32l0xx_hal_dma.c **** }
 1358              		.loc 1 714 3 view .LVU470
 1359              	.LVL94:
 1360              	.L64:
 715:Drivers/STM32L0xx_HAL_Driver/Src/stm32l0xx_hal_dma.c **** 
 1361              		.loc 1 715 1 is_stmt 0 view .LVU471
 1362              		@ sp needed
 1363 0024 10BD     		pop	{r4, pc}
 1364              	.LVL95:
 1365              	.L73:
 683:Drivers/STM32L0xx_HAL_Driver/Src/stm32l0xx_hal_dma.c ****     {
 1366              		.loc 1 683 5 is_stmt 1 view .LVU472
 1367 0026 0229     		cmp	r1, #2
 1368 0028 0FD0     		beq	.L66
 1369 002a 06D8     		bhi	.L67
 1370 002c 0029     		cmp	r1, #0
 1371 002e 09D0     		beq	.L68
 1372 0030 0129     		cmp	r1, #1
 1373 0032 F4D1     		bne	.L65
 690:Drivers/STM32L0xx_HAL_Driver/Src/stm32l0xx_hal_dma.c ****            break;
 1374              		.loc 1 690 12 view .LVU473
 690:Drivers/STM32L0xx_HAL_Driver/Src/stm32l0xx_hal_dma.c ****            break;
 1375              		.loc 1 690 39 is_stmt 0 view .LVU474
 1376 0034 1A63     		str	r2, [r3, #48]
 691:Drivers/STM32L0xx_HAL_Driver/Src/stm32l0xx_hal_dma.c **** 
ARM GAS  /tmp/ccjzcf4U.s 			page 48


 1377              		.loc 1 691 12 is_stmt 1 view .LVU475
 676:Drivers/STM32L0xx_HAL_Driver/Src/stm32l0xx_hal_dma.c **** 
 1378              		.loc 1 676 21 is_stmt 0 view .LVU476
 1379 0036 0020     		movs	r0, #0
 691:Drivers/STM32L0xx_HAL_Driver/Src/stm32l0xx_hal_dma.c **** 
 1380              		.loc 1 691 12 view .LVU477
 1381 0038 F1E7     		b	.L65
 1382              	.L67:
 683:Drivers/STM32L0xx_HAL_Driver/Src/stm32l0xx_hal_dma.c ****     {
 1383              		.loc 1 683 5 view .LVU478
 1384 003a 0329     		cmp	r1, #3
 1385 003c EFD1     		bne	.L65
 698:Drivers/STM32L0xx_HAL_Driver/Src/stm32l0xx_hal_dma.c ****            break;
 1386              		.loc 1 698 12 is_stmt 1 view .LVU479
 698:Drivers/STM32L0xx_HAL_Driver/Src/stm32l0xx_hal_dma.c ****            break;
 1387              		.loc 1 698 36 is_stmt 0 view .LVU480
 1388 003e 9A63     		str	r2, [r3, #56]
 699:Drivers/STM32L0xx_HAL_Driver/Src/stm32l0xx_hal_dma.c **** 
 1389              		.loc 1 699 12 is_stmt 1 view .LVU481
 676:Drivers/STM32L0xx_HAL_Driver/Src/stm32l0xx_hal_dma.c **** 
 1390              		.loc 1 676 21 is_stmt 0 view .LVU482
 1391 0040 0020     		movs	r0, #0
 699:Drivers/STM32L0xx_HAL_Driver/Src/stm32l0xx_hal_dma.c **** 
 1392              		.loc 1 699 12 view .LVU483
 1393 0042 ECE7     		b	.L65
 1394              	.L68:
 686:Drivers/STM32L0xx_HAL_Driver/Src/stm32l0xx_hal_dma.c ****            break;
 1395              		.loc 1 686 12 is_stmt 1 view .LVU484
 686:Drivers/STM32L0xx_HAL_Driver/Src/stm32l0xx_hal_dma.c ****            break;
 1396              		.loc 1 686 35 is_stmt 0 view .LVU485
 1397 0044 DA62     		str	r2, [r3, #44]
 687:Drivers/STM32L0xx_HAL_Driver/Src/stm32l0xx_hal_dma.c **** 
 1398              		.loc 1 687 12 is_stmt 1 view .LVU486
 676:Drivers/STM32L0xx_HAL_Driver/Src/stm32l0xx_hal_dma.c **** 
 1399              		.loc 1 676 21 is_stmt 0 view .LVU487
 1400 0046 0800     		movs	r0, r1
 687:Drivers/STM32L0xx_HAL_Driver/Src/stm32l0xx_hal_dma.c **** 
 1401              		.loc 1 687 12 view .LVU488
 1402 0048 E9E7     		b	.L65
 1403              	.L66:
 694:Drivers/STM32L0xx_HAL_Driver/Src/stm32l0xx_hal_dma.c ****            break;
 1404              		.loc 1 694 12 is_stmt 1 view .LVU489
 694:Drivers/STM32L0xx_HAL_Driver/Src/stm32l0xx_hal_dma.c ****            break;
 1405              		.loc 1 694 36 is_stmt 0 view .LVU490
 1406 004a 5A63     		str	r2, [r3, #52]
 695:Drivers/STM32L0xx_HAL_Driver/Src/stm32l0xx_hal_dma.c **** 
 1407              		.loc 1 695 12 is_stmt 1 view .LVU491
 676:Drivers/STM32L0xx_HAL_Driver/Src/stm32l0xx_hal_dma.c **** 
 1408              		.loc 1 676 21 is_stmt 0 view .LVU492
 1409 004c 0020     		movs	r0, #0
 695:Drivers/STM32L0xx_HAL_Driver/Src/stm32l0xx_hal_dma.c **** 
 1410              		.loc 1 695 12 view .LVU493
 1411 004e E6E7     		b	.L65
 1412              	.L71:
 679:Drivers/STM32L0xx_HAL_Driver/Src/stm32l0xx_hal_dma.c **** 
 1413              		.loc 1 679 3 discriminator 1 view .LVU494
 1414 0050 0220     		movs	r0, #2
ARM GAS  /tmp/ccjzcf4U.s 			page 49


 1415 0052 E7E7     		b	.L64
 1416              		.cfi_endproc
 1417              	.LFE48:
 1419              		.section	.text.HAL_DMA_UnRegisterCallback,"ax",%progbits
 1420              		.align	1
 1421              		.global	HAL_DMA_UnRegisterCallback
 1422              		.syntax unified
 1423              		.code	16
 1424              		.thumb_func
 1426              	HAL_DMA_UnRegisterCallback:
 1427              	.LVL96:
 1428              	.LFB49:
 726:Drivers/STM32L0xx_HAL_Driver/Src/stm32l0xx_hal_dma.c ****   HAL_StatusTypeDef status = HAL_OK;
 1429              		.loc 1 726 1 is_stmt 1 view -0
 1430              		.cfi_startproc
 1431              		@ args = 0, pretend = 0, frame = 0
 1432              		@ frame_needed = 0, uses_anonymous_args = 0
 1433              		@ link register save eliminated.
 726:Drivers/STM32L0xx_HAL_Driver/Src/stm32l0xx_hal_dma.c ****   HAL_StatusTypeDef status = HAL_OK;
 1434              		.loc 1 726 1 is_stmt 0 view .LVU496
 1435 0000 0300     		movs	r3, r0
 727:Drivers/STM32L0xx_HAL_Driver/Src/stm32l0xx_hal_dma.c **** 
 1436              		.loc 1 727 3 is_stmt 1 view .LVU497
 1437              	.LVL97:
 730:Drivers/STM32L0xx_HAL_Driver/Src/stm32l0xx_hal_dma.c **** 
 1438              		.loc 1 730 3 view .LVU498
 730:Drivers/STM32L0xx_HAL_Driver/Src/stm32l0xx_hal_dma.c **** 
 1439              		.loc 1 730 3 view .LVU499
 1440 0002 2422     		movs	r2, #36
 1441 0004 825C     		ldrb	r2, [r0, r2]
 1442 0006 012A     		cmp	r2, #1
 1443 0008 29D0     		beq	.L83
 730:Drivers/STM32L0xx_HAL_Driver/Src/stm32l0xx_hal_dma.c **** 
 1444              		.loc 1 730 3 discriminator 2 view .LVU500
 1445 000a 2422     		movs	r2, #36
 1446 000c 0120     		movs	r0, #1
 1447              	.LVL98:
 730:Drivers/STM32L0xx_HAL_Driver/Src/stm32l0xx_hal_dma.c **** 
 1448              		.loc 1 730 3 is_stmt 0 discriminator 2 view .LVU501
 1449 000e 9854     		strb	r0, [r3, r2]
 730:Drivers/STM32L0xx_HAL_Driver/Src/stm32l0xx_hal_dma.c **** 
 1450              		.loc 1 730 3 is_stmt 1 discriminator 2 view .LVU502
 732:Drivers/STM32L0xx_HAL_Driver/Src/stm32l0xx_hal_dma.c ****   {
 1451              		.loc 1 732 3 view .LVU503
 732:Drivers/STM32L0xx_HAL_Driver/Src/stm32l0xx_hal_dma.c ****   {
 1452              		.loc 1 732 33 is_stmt 0 view .LVU504
 1453 0010 0132     		adds	r2, r2, #1
 1454 0012 9A5C     		ldrb	r2, [r3, r2]
 1455 0014 D0B2     		uxtb	r0, r2
 732:Drivers/STM32L0xx_HAL_Driver/Src/stm32l0xx_hal_dma.c ****   {
 1456              		.loc 1 732 5 view .LVU505
 1457 0016 012A     		cmp	r2, #1
 1458 0018 04D0     		beq	.L85
 766:Drivers/STM32L0xx_HAL_Driver/Src/stm32l0xx_hal_dma.c ****   }
 1459              		.loc 1 766 12 view .LVU506
 1460 001a 0120     		movs	r0, #1
 1461              	.L76:
ARM GAS  /tmp/ccjzcf4U.s 			page 50


 1462              	.LVL99:
 770:Drivers/STM32L0xx_HAL_Driver/Src/stm32l0xx_hal_dma.c **** 
 1463              		.loc 1 770 3 is_stmt 1 view .LVU507
 770:Drivers/STM32L0xx_HAL_Driver/Src/stm32l0xx_hal_dma.c **** 
 1464              		.loc 1 770 3 view .LVU508
 1465 001c 2422     		movs	r2, #36
 1466 001e 0021     		movs	r1, #0
 1467              	.LVL100:
 770:Drivers/STM32L0xx_HAL_Driver/Src/stm32l0xx_hal_dma.c **** 
 1468              		.loc 1 770 3 is_stmt 0 view .LVU509
 1469 0020 9954     		strb	r1, [r3, r2]
 770:Drivers/STM32L0xx_HAL_Driver/Src/stm32l0xx_hal_dma.c **** 
 1470              		.loc 1 770 3 is_stmt 1 view .LVU510
 772:Drivers/STM32L0xx_HAL_Driver/Src/stm32l0xx_hal_dma.c **** }
 1471              		.loc 1 772 3 view .LVU511
 1472              	.LVL101:
 1473              	.L75:
 773:Drivers/STM32L0xx_HAL_Driver/Src/stm32l0xx_hal_dma.c **** 
 1474              		.loc 1 773 1 is_stmt 0 view .LVU512
 1475              		@ sp needed
 1476 0022 7047     		bx	lr
 1477              	.LVL102:
 1478              	.L85:
 734:Drivers/STM32L0xx_HAL_Driver/Src/stm32l0xx_hal_dma.c ****     {
 1479              		.loc 1 734 5 is_stmt 1 view .LVU513
 1480 0024 0429     		cmp	r1, #4
 1481 0026 F9D8     		bhi	.L76
 1482 0028 8A00     		lsls	r2, r1, #2
 1483 002a 0E48     		ldr	r0, .L86
 1484 002c 8258     		ldr	r2, [r0, r2]
 1485 002e 9746     		mov	pc, r2
 1486              		.section	.rodata.HAL_DMA_UnRegisterCallback,"a",%progbits
 1487              		.align	2
 1488              	.L78:
 1489 0000 30000000 		.word	.L82
 1490 0004 38000000 		.word	.L81
 1491 0008 40000000 		.word	.L80
 1492 000c 48000000 		.word	.L79
 1493 0010 50000000 		.word	.L77
 1494              		.section	.text.HAL_DMA_UnRegisterCallback
 1495              	.L82:
 737:Drivers/STM32L0xx_HAL_Driver/Src/stm32l0xx_hal_dma.c ****            break;
 1496              		.loc 1 737 12 view .LVU514
 737:Drivers/STM32L0xx_HAL_Driver/Src/stm32l0xx_hal_dma.c ****            break;
 1497              		.loc 1 737 35 is_stmt 0 view .LVU515
 1498 0030 0022     		movs	r2, #0
 1499 0032 DA62     		str	r2, [r3, #44]
 738:Drivers/STM32L0xx_HAL_Driver/Src/stm32l0xx_hal_dma.c **** 
 1500              		.loc 1 738 12 is_stmt 1 view .LVU516
 727:Drivers/STM32L0xx_HAL_Driver/Src/stm32l0xx_hal_dma.c **** 
 1501              		.loc 1 727 21 is_stmt 0 view .LVU517
 1502 0034 0800     		movs	r0, r1
 738:Drivers/STM32L0xx_HAL_Driver/Src/stm32l0xx_hal_dma.c **** 
 1503              		.loc 1 738 12 view .LVU518
 1504 0036 F1E7     		b	.L76
 1505              	.L81:
 741:Drivers/STM32L0xx_HAL_Driver/Src/stm32l0xx_hal_dma.c ****            break;
ARM GAS  /tmp/ccjzcf4U.s 			page 51


 1506              		.loc 1 741 12 is_stmt 1 view .LVU519
 741:Drivers/STM32L0xx_HAL_Driver/Src/stm32l0xx_hal_dma.c ****            break;
 1507              		.loc 1 741 39 is_stmt 0 view .LVU520
 1508 0038 0022     		movs	r2, #0
 1509 003a 1A63     		str	r2, [r3, #48]
 742:Drivers/STM32L0xx_HAL_Driver/Src/stm32l0xx_hal_dma.c **** 
 1510              		.loc 1 742 12 is_stmt 1 view .LVU521
 727:Drivers/STM32L0xx_HAL_Driver/Src/stm32l0xx_hal_dma.c **** 
 1511              		.loc 1 727 21 is_stmt 0 view .LVU522
 1512 003c 0020     		movs	r0, #0
 742:Drivers/STM32L0xx_HAL_Driver/Src/stm32l0xx_hal_dma.c **** 
 1513              		.loc 1 742 12 view .LVU523
 1514 003e EDE7     		b	.L76
 1515              	.L80:
 745:Drivers/STM32L0xx_HAL_Driver/Src/stm32l0xx_hal_dma.c ****            break;
 1516              		.loc 1 745 12 is_stmt 1 view .LVU524
 745:Drivers/STM32L0xx_HAL_Driver/Src/stm32l0xx_hal_dma.c ****            break;
 1517              		.loc 1 745 36 is_stmt 0 view .LVU525
 1518 0040 0022     		movs	r2, #0
 1519 0042 5A63     		str	r2, [r3, #52]
 746:Drivers/STM32L0xx_HAL_Driver/Src/stm32l0xx_hal_dma.c **** 
 1520              		.loc 1 746 12 is_stmt 1 view .LVU526
 727:Drivers/STM32L0xx_HAL_Driver/Src/stm32l0xx_hal_dma.c **** 
 1521              		.loc 1 727 21 is_stmt 0 view .LVU527
 1522 0044 0020     		movs	r0, #0
 746:Drivers/STM32L0xx_HAL_Driver/Src/stm32l0xx_hal_dma.c **** 
 1523              		.loc 1 746 12 view .LVU528
 1524 0046 E9E7     		b	.L76
 1525              	.L79:
 749:Drivers/STM32L0xx_HAL_Driver/Src/stm32l0xx_hal_dma.c ****            break;
 1526              		.loc 1 749 12 is_stmt 1 view .LVU529
 749:Drivers/STM32L0xx_HAL_Driver/Src/stm32l0xx_hal_dma.c ****            break;
 1527              		.loc 1 749 36 is_stmt 0 view .LVU530
 1528 0048 0022     		movs	r2, #0
 1529 004a 9A63     		str	r2, [r3, #56]
 750:Drivers/STM32L0xx_HAL_Driver/Src/stm32l0xx_hal_dma.c **** 
 1530              		.loc 1 750 12 is_stmt 1 view .LVU531
 727:Drivers/STM32L0xx_HAL_Driver/Src/stm32l0xx_hal_dma.c **** 
 1531              		.loc 1 727 21 is_stmt 0 view .LVU532
 1532 004c 0020     		movs	r0, #0
 750:Drivers/STM32L0xx_HAL_Driver/Src/stm32l0xx_hal_dma.c **** 
 1533              		.loc 1 750 12 view .LVU533
 1534 004e E5E7     		b	.L76
 1535              	.L77:
 753:Drivers/STM32L0xx_HAL_Driver/Src/stm32l0xx_hal_dma.c ****            hdma->XferHalfCpltCallback = NULL;
 1536              		.loc 1 753 12 is_stmt 1 view .LVU534
 753:Drivers/STM32L0xx_HAL_Driver/Src/stm32l0xx_hal_dma.c ****            hdma->XferHalfCpltCallback = NULL;
 1537              		.loc 1 753 35 is_stmt 0 view .LVU535
 1538 0050 0022     		movs	r2, #0
 1539 0052 DA62     		str	r2, [r3, #44]
 754:Drivers/STM32L0xx_HAL_Driver/Src/stm32l0xx_hal_dma.c ****            hdma->XferErrorCallback = NULL;
 1540              		.loc 1 754 12 is_stmt 1 view .LVU536
 754:Drivers/STM32L0xx_HAL_Driver/Src/stm32l0xx_hal_dma.c ****            hdma->XferErrorCallback = NULL;
 1541              		.loc 1 754 39 is_stmt 0 view .LVU537
 1542 0054 1A63     		str	r2, [r3, #48]
 755:Drivers/STM32L0xx_HAL_Driver/Src/stm32l0xx_hal_dma.c ****            hdma->XferAbortCallback = NULL;
 1543              		.loc 1 755 12 is_stmt 1 view .LVU538
ARM GAS  /tmp/ccjzcf4U.s 			page 52


 755:Drivers/STM32L0xx_HAL_Driver/Src/stm32l0xx_hal_dma.c ****            hdma->XferAbortCallback = NULL;
 1544              		.loc 1 755 36 is_stmt 0 view .LVU539
 1545 0056 5A63     		str	r2, [r3, #52]
 756:Drivers/STM32L0xx_HAL_Driver/Src/stm32l0xx_hal_dma.c ****            break;
 1546              		.loc 1 756 12 is_stmt 1 view .LVU540
 756:Drivers/STM32L0xx_HAL_Driver/Src/stm32l0xx_hal_dma.c ****            break;
 1547              		.loc 1 756 36 is_stmt 0 view .LVU541
 1548 0058 9A63     		str	r2, [r3, #56]
 757:Drivers/STM32L0xx_HAL_Driver/Src/stm32l0xx_hal_dma.c **** 
 1549              		.loc 1 757 12 is_stmt 1 view .LVU542
 727:Drivers/STM32L0xx_HAL_Driver/Src/stm32l0xx_hal_dma.c **** 
 1550              		.loc 1 727 21 is_stmt 0 view .LVU543
 1551 005a 0020     		movs	r0, #0
 757:Drivers/STM32L0xx_HAL_Driver/Src/stm32l0xx_hal_dma.c **** 
 1552              		.loc 1 757 12 view .LVU544
 1553 005c DEE7     		b	.L76
 1554              	.LVL103:
 1555              	.L83:
 730:Drivers/STM32L0xx_HAL_Driver/Src/stm32l0xx_hal_dma.c **** 
 1556              		.loc 1 730 3 discriminator 1 view .LVU545
 1557 005e 0220     		movs	r0, #2
 1558              	.LVL104:
 730:Drivers/STM32L0xx_HAL_Driver/Src/stm32l0xx_hal_dma.c **** 
 1559              		.loc 1 730 3 discriminator 1 view .LVU546
 1560 0060 DFE7     		b	.L75
 1561              	.L87:
 1562 0062 C046     		.align	2
 1563              	.L86:
 1564 0064 00000000 		.word	.L78
 1565              		.cfi_endproc
 1566              	.LFE49:
 1568              		.section	.text.HAL_DMA_GetState,"ax",%progbits
 1569              		.align	1
 1570              		.global	HAL_DMA_GetState
 1571              		.syntax unified
 1572              		.code	16
 1573              		.thumb_func
 1575              	HAL_DMA_GetState:
 1576              	.LVL105:
 1577              	.LFB50:
 804:Drivers/STM32L0xx_HAL_Driver/Src/stm32l0xx_hal_dma.c ****   /* Return DMA handle state */
 1578              		.loc 1 804 1 is_stmt 1 view -0
 1579              		.cfi_startproc
 1580              		@ args = 0, pretend = 0, frame = 0
 1581              		@ frame_needed = 0, uses_anonymous_args = 0
 1582              		@ link register save eliminated.
 806:Drivers/STM32L0xx_HAL_Driver/Src/stm32l0xx_hal_dma.c **** }
 1583              		.loc 1 806 3 view .LVU548
 806:Drivers/STM32L0xx_HAL_Driver/Src/stm32l0xx_hal_dma.c **** }
 1584              		.loc 1 806 14 is_stmt 0 view .LVU549
 1585 0000 2523     		movs	r3, #37
 1586 0002 C05C     		ldrb	r0, [r0, r3]
 1587              	.LVL106:
 806:Drivers/STM32L0xx_HAL_Driver/Src/stm32l0xx_hal_dma.c **** }
 1588              		.loc 1 806 14 view .LVU550
 1589 0004 C0B2     		uxtb	r0, r0
 807:Drivers/STM32L0xx_HAL_Driver/Src/stm32l0xx_hal_dma.c **** 
ARM GAS  /tmp/ccjzcf4U.s 			page 53


 1590              		.loc 1 807 1 view .LVU551
 1591              		@ sp needed
 1592 0006 7047     		bx	lr
 1593              		.cfi_endproc
 1594              	.LFE50:
 1596              		.section	.text.HAL_DMA_GetError,"ax",%progbits
 1597              		.align	1
 1598              		.global	HAL_DMA_GetError
 1599              		.syntax unified
 1600              		.code	16
 1601              		.thumb_func
 1603              	HAL_DMA_GetError:
 1604              	.LVL107:
 1605              	.LFB51:
 816:Drivers/STM32L0xx_HAL_Driver/Src/stm32l0xx_hal_dma.c ****   return hdma->ErrorCode;
 1606              		.loc 1 816 1 is_stmt 1 view -0
 1607              		.cfi_startproc
 1608              		@ args = 0, pretend = 0, frame = 0
 1609              		@ frame_needed = 0, uses_anonymous_args = 0
 1610              		@ link register save eliminated.
 817:Drivers/STM32L0xx_HAL_Driver/Src/stm32l0xx_hal_dma.c **** }
 1611              		.loc 1 817 3 view .LVU553
 817:Drivers/STM32L0xx_HAL_Driver/Src/stm32l0xx_hal_dma.c **** }
 1612              		.loc 1 817 14 is_stmt 0 view .LVU554
 1613 0000 C06B     		ldr	r0, [r0, #60]
 1614              	.LVL108:
 818:Drivers/STM32L0xx_HAL_Driver/Src/stm32l0xx_hal_dma.c **** 
 1615              		.loc 1 818 1 view .LVU555
 1616              		@ sp needed
 1617 0002 7047     		bx	lr
 1618              		.cfi_endproc
 1619              	.LFE51:
 1621              		.text
 1622              	.Letext0:
 1623              		.file 2 "/usr/arm-none-eabi/include/machine/_default_types.h"
 1624              		.file 3 "/usr/arm-none-eabi/include/sys/_stdint.h"
 1625              		.file 4 "Drivers/CMSIS/Device/ST/STM32L0xx/Include/stm32l031xx.h"
 1626              		.file 5 "Drivers/STM32L0xx_HAL_Driver/Inc/stm32l0xx_hal_def.h"
 1627              		.file 6 "Drivers/STM32L0xx_HAL_Driver/Inc/stm32l0xx_hal_dma.h"
 1628              		.file 7 "Drivers/STM32L0xx_HAL_Driver/Inc/stm32l0xx_hal.h"
ARM GAS  /tmp/ccjzcf4U.s 			page 54

