ARM GAS  /tmp/ccObnYkQ.s 			page 1


   1              		.cpu cortex-m0plus
   2              		.arch armv6s-m
   3              		.fpu softvfp
   4              		.eabi_attribute 20, 1
   5              		.eabi_attribute 21, 1
   6              		.eabi_attribute 23, 3
   7              		.eabi_attribute 24, 1
   8              		.eabi_attribute 25, 1
   9              		.eabi_attribute 26, 1
  10              		.eabi_attribute 30, 1
  11              		.eabi_attribute 34, 0
  12              		.eabi_attribute 18, 4
  13              		.file	"stm32l0xx_hal.c"
  14              		.text
  15              	.Ltext0:
  16              		.cfi_sections	.debug_frame
  17              		.file 1 "Drivers/STM32L0xx_HAL_Driver/Src/stm32l0xx_hal.c"
  18              		.section	.text.HAL_MspInit,"ax",%progbits
  19              		.align	1
  20              		.weak	HAL_MspInit
  21              		.syntax unified
  22              		.code	16
  23              		.thumb_func
  25              	HAL_MspInit:
  26              	.LFB42:
   1:Drivers/STM32L0xx_HAL_Driver/Src/stm32l0xx_hal.c **** /**
   2:Drivers/STM32L0xx_HAL_Driver/Src/stm32l0xx_hal.c ****   ******************************************************************************
   3:Drivers/STM32L0xx_HAL_Driver/Src/stm32l0xx_hal.c ****   * @file    stm32l0xx_hal.c
   4:Drivers/STM32L0xx_HAL_Driver/Src/stm32l0xx_hal.c ****   * @author  MCD Application Team
   5:Drivers/STM32L0xx_HAL_Driver/Src/stm32l0xx_hal.c ****   * @brief   HAL module driver.
   6:Drivers/STM32L0xx_HAL_Driver/Src/stm32l0xx_hal.c ****   *          This is the common part of the HAL initialization
   7:Drivers/STM32L0xx_HAL_Driver/Src/stm32l0xx_hal.c ****   *
   8:Drivers/STM32L0xx_HAL_Driver/Src/stm32l0xx_hal.c ****   ******************************************************************************
   9:Drivers/STM32L0xx_HAL_Driver/Src/stm32l0xx_hal.c ****   * @attention
  10:Drivers/STM32L0xx_HAL_Driver/Src/stm32l0xx_hal.c ****   *
  11:Drivers/STM32L0xx_HAL_Driver/Src/stm32l0xx_hal.c ****   * Copyright (c) 2016 STMicroelectronics.
  12:Drivers/STM32L0xx_HAL_Driver/Src/stm32l0xx_hal.c ****   * All rights reserved.
  13:Drivers/STM32L0xx_HAL_Driver/Src/stm32l0xx_hal.c ****   *
  14:Drivers/STM32L0xx_HAL_Driver/Src/stm32l0xx_hal.c ****   * This software is licensed under terms that can be found in the LICENSE file
  15:Drivers/STM32L0xx_HAL_Driver/Src/stm32l0xx_hal.c ****   * in the root directory of this software component.
  16:Drivers/STM32L0xx_HAL_Driver/Src/stm32l0xx_hal.c ****   * If no LICENSE file comes with this software, it is provided AS-IS.
  17:Drivers/STM32L0xx_HAL_Driver/Src/stm32l0xx_hal.c ****   *
  18:Drivers/STM32L0xx_HAL_Driver/Src/stm32l0xx_hal.c ****   ******************************************************************************
  19:Drivers/STM32L0xx_HAL_Driver/Src/stm32l0xx_hal.c ****   @verbatim
  20:Drivers/STM32L0xx_HAL_Driver/Src/stm32l0xx_hal.c ****   ==============================================================================
  21:Drivers/STM32L0xx_HAL_Driver/Src/stm32l0xx_hal.c ****                      ##### How to use this driver #####
  22:Drivers/STM32L0xx_HAL_Driver/Src/stm32l0xx_hal.c ****   ==============================================================================
  23:Drivers/STM32L0xx_HAL_Driver/Src/stm32l0xx_hal.c ****     [..]
  24:Drivers/STM32L0xx_HAL_Driver/Src/stm32l0xx_hal.c ****     The common HAL driver contains a set of generic and common APIs that can be
  25:Drivers/STM32L0xx_HAL_Driver/Src/stm32l0xx_hal.c ****     used by the PPP peripheral drivers and the user to start using the HAL.
  26:Drivers/STM32L0xx_HAL_Driver/Src/stm32l0xx_hal.c ****     [..]
  27:Drivers/STM32L0xx_HAL_Driver/Src/stm32l0xx_hal.c ****     The HAL contains two APIs categories:
  28:Drivers/STM32L0xx_HAL_Driver/Src/stm32l0xx_hal.c ****          (+) Common HAL APIs
  29:Drivers/STM32L0xx_HAL_Driver/Src/stm32l0xx_hal.c ****          (+) Services HAL APIs
  30:Drivers/STM32L0xx_HAL_Driver/Src/stm32l0xx_hal.c **** 
  31:Drivers/STM32L0xx_HAL_Driver/Src/stm32l0xx_hal.c ****   @endverbatim
  32:Drivers/STM32L0xx_HAL_Driver/Src/stm32l0xx_hal.c ****   ******************************************************************************
ARM GAS  /tmp/ccObnYkQ.s 			page 2


  33:Drivers/STM32L0xx_HAL_Driver/Src/stm32l0xx_hal.c ****   */
  34:Drivers/STM32L0xx_HAL_Driver/Src/stm32l0xx_hal.c **** 
  35:Drivers/STM32L0xx_HAL_Driver/Src/stm32l0xx_hal.c **** /* Includes ------------------------------------------------------------------*/
  36:Drivers/STM32L0xx_HAL_Driver/Src/stm32l0xx_hal.c **** #include "stm32l0xx_hal.h"
  37:Drivers/STM32L0xx_HAL_Driver/Src/stm32l0xx_hal.c **** 
  38:Drivers/STM32L0xx_HAL_Driver/Src/stm32l0xx_hal.c **** /** @addtogroup STM32L0xx_HAL_Driver
  39:Drivers/STM32L0xx_HAL_Driver/Src/stm32l0xx_hal.c ****   * @{
  40:Drivers/STM32L0xx_HAL_Driver/Src/stm32l0xx_hal.c ****   */
  41:Drivers/STM32L0xx_HAL_Driver/Src/stm32l0xx_hal.c **** 
  42:Drivers/STM32L0xx_HAL_Driver/Src/stm32l0xx_hal.c **** #ifdef HAL_MODULE_ENABLED
  43:Drivers/STM32L0xx_HAL_Driver/Src/stm32l0xx_hal.c **** 
  44:Drivers/STM32L0xx_HAL_Driver/Src/stm32l0xx_hal.c **** /** @addtogroup HAL
  45:Drivers/STM32L0xx_HAL_Driver/Src/stm32l0xx_hal.c ****   * @brief HAL module driver.
  46:Drivers/STM32L0xx_HAL_Driver/Src/stm32l0xx_hal.c ****   * @{
  47:Drivers/STM32L0xx_HAL_Driver/Src/stm32l0xx_hal.c ****   */
  48:Drivers/STM32L0xx_HAL_Driver/Src/stm32l0xx_hal.c **** 
  49:Drivers/STM32L0xx_HAL_Driver/Src/stm32l0xx_hal.c **** /** @addtogroup HAL_Exported_Constants
  50:Drivers/STM32L0xx_HAL_Driver/Src/stm32l0xx_hal.c ****   * @{
  51:Drivers/STM32L0xx_HAL_Driver/Src/stm32l0xx_hal.c ****   */
  52:Drivers/STM32L0xx_HAL_Driver/Src/stm32l0xx_hal.c **** 
  53:Drivers/STM32L0xx_HAL_Driver/Src/stm32l0xx_hal.c **** /** @defgroup HAL_Version HAL Version
  54:Drivers/STM32L0xx_HAL_Driver/Src/stm32l0xx_hal.c ****   * @{
  55:Drivers/STM32L0xx_HAL_Driver/Src/stm32l0xx_hal.c ****   */
  56:Drivers/STM32L0xx_HAL_Driver/Src/stm32l0xx_hal.c **** 
  57:Drivers/STM32L0xx_HAL_Driver/Src/stm32l0xx_hal.c **** /**
  58:Drivers/STM32L0xx_HAL_Driver/Src/stm32l0xx_hal.c ****  * @brief STM32L0xx HAL Driver version number
  59:Drivers/STM32L0xx_HAL_Driver/Src/stm32l0xx_hal.c ****  */
  60:Drivers/STM32L0xx_HAL_Driver/Src/stm32l0xx_hal.c **** #define __STM32L0xx_HAL_VERSION_MAIN   (0x01U) /*!< [31:24] main version */
  61:Drivers/STM32L0xx_HAL_Driver/Src/stm32l0xx_hal.c **** #define __STM32L0xx_HAL_VERSION_SUB1   (0x0AU) /*!< [23:16] sub1 version */
  62:Drivers/STM32L0xx_HAL_Driver/Src/stm32l0xx_hal.c **** #define __STM32L0xx_HAL_VERSION_SUB2   (0x06U) /*!< [15:8]  sub2 version */
  63:Drivers/STM32L0xx_HAL_Driver/Src/stm32l0xx_hal.c **** #define __STM32L0xx_HAL_VERSION_RC     (0x00U) /*!< [7:0]  release candidate */
  64:Drivers/STM32L0xx_HAL_Driver/Src/stm32l0xx_hal.c **** #define __STM32L0xx_HAL_VERSION         ((__STM32L0xx_HAL_VERSION_MAIN << 24U)\
  65:Drivers/STM32L0xx_HAL_Driver/Src/stm32l0xx_hal.c ****                                         |(__STM32L0xx_HAL_VERSION_SUB1 << 16U)\
  66:Drivers/STM32L0xx_HAL_Driver/Src/stm32l0xx_hal.c ****                                         |(__STM32L0xx_HAL_VERSION_SUB2 << 8U )\
  67:Drivers/STM32L0xx_HAL_Driver/Src/stm32l0xx_hal.c ****                                         |(__STM32L0xx_HAL_VERSION_RC))
  68:Drivers/STM32L0xx_HAL_Driver/Src/stm32l0xx_hal.c **** 
  69:Drivers/STM32L0xx_HAL_Driver/Src/stm32l0xx_hal.c **** #define IDCODE_DEVID_MASK    (0x00000FFFU)
  70:Drivers/STM32L0xx_HAL_Driver/Src/stm32l0xx_hal.c **** 
  71:Drivers/STM32L0xx_HAL_Driver/Src/stm32l0xx_hal.c **** /**
  72:Drivers/STM32L0xx_HAL_Driver/Src/stm32l0xx_hal.c ****   * @}
  73:Drivers/STM32L0xx_HAL_Driver/Src/stm32l0xx_hal.c ****   */
  74:Drivers/STM32L0xx_HAL_Driver/Src/stm32l0xx_hal.c **** 
  75:Drivers/STM32L0xx_HAL_Driver/Src/stm32l0xx_hal.c **** /**
  76:Drivers/STM32L0xx_HAL_Driver/Src/stm32l0xx_hal.c ****   * @}
  77:Drivers/STM32L0xx_HAL_Driver/Src/stm32l0xx_hal.c ****   */
  78:Drivers/STM32L0xx_HAL_Driver/Src/stm32l0xx_hal.c **** 
  79:Drivers/STM32L0xx_HAL_Driver/Src/stm32l0xx_hal.c **** /* Exported variables --------------------------------------------------------*/
  80:Drivers/STM32L0xx_HAL_Driver/Src/stm32l0xx_hal.c **** /** @addtogroup HAL_Exported_Variables
  81:Drivers/STM32L0xx_HAL_Driver/Src/stm32l0xx_hal.c ****   * @{
  82:Drivers/STM32L0xx_HAL_Driver/Src/stm32l0xx_hal.c ****   */
  83:Drivers/STM32L0xx_HAL_Driver/Src/stm32l0xx_hal.c **** __IO uint32_t uwTick;
  84:Drivers/STM32L0xx_HAL_Driver/Src/stm32l0xx_hal.c **** uint32_t uwTickPrio   = (1UL << __NVIC_PRIO_BITS); /* Invalid PRIO */
  85:Drivers/STM32L0xx_HAL_Driver/Src/stm32l0xx_hal.c **** HAL_TickFreqTypeDef uwTickFreq = HAL_TICK_FREQ_DEFAULT;  /* 1KHz */
  86:Drivers/STM32L0xx_HAL_Driver/Src/stm32l0xx_hal.c **** /**
  87:Drivers/STM32L0xx_HAL_Driver/Src/stm32l0xx_hal.c ****   * @}
  88:Drivers/STM32L0xx_HAL_Driver/Src/stm32l0xx_hal.c ****   */
  89:Drivers/STM32L0xx_HAL_Driver/Src/stm32l0xx_hal.c **** 
ARM GAS  /tmp/ccObnYkQ.s 			page 3


  90:Drivers/STM32L0xx_HAL_Driver/Src/stm32l0xx_hal.c **** /* Exported functions --------------------------------------------------------*/
  91:Drivers/STM32L0xx_HAL_Driver/Src/stm32l0xx_hal.c **** /** @addtogroup HAL_Exported_Functions
  92:Drivers/STM32L0xx_HAL_Driver/Src/stm32l0xx_hal.c ****   * @{
  93:Drivers/STM32L0xx_HAL_Driver/Src/stm32l0xx_hal.c ****   */
  94:Drivers/STM32L0xx_HAL_Driver/Src/stm32l0xx_hal.c **** 
  95:Drivers/STM32L0xx_HAL_Driver/Src/stm32l0xx_hal.c **** /** @addtogroup HAL_Exported_Functions_Group1
  96:Drivers/STM32L0xx_HAL_Driver/Src/stm32l0xx_hal.c ****  *  @brief    Initialization and de-initialization functions
  97:Drivers/STM32L0xx_HAL_Driver/Src/stm32l0xx_hal.c ****  *
  98:Drivers/STM32L0xx_HAL_Driver/Src/stm32l0xx_hal.c **** @verbatim
  99:Drivers/STM32L0xx_HAL_Driver/Src/stm32l0xx_hal.c ****  ===============================================================================
 100:Drivers/STM32L0xx_HAL_Driver/Src/stm32l0xx_hal.c ****               ##### Initialization and de-initialization functions #####
 101:Drivers/STM32L0xx_HAL_Driver/Src/stm32l0xx_hal.c ****  ===============================================================================
 102:Drivers/STM32L0xx_HAL_Driver/Src/stm32l0xx_hal.c ****    [..]  This section provides functions allowing to:
 103:Drivers/STM32L0xx_HAL_Driver/Src/stm32l0xx_hal.c ****       (+) Initialize the Flash interface, the NVIC allocation and initial clock
 104:Drivers/STM32L0xx_HAL_Driver/Src/stm32l0xx_hal.c ****           configuration. It initializes the source of time base also when timeout
 105:Drivers/STM32L0xx_HAL_Driver/Src/stm32l0xx_hal.c ****           is needed and the backup domain when enabled.
 106:Drivers/STM32L0xx_HAL_Driver/Src/stm32l0xx_hal.c ****       (+) De-initialize common part of the HAL.
 107:Drivers/STM32L0xx_HAL_Driver/Src/stm32l0xx_hal.c ****       (+) Configure the time base source to have 1ms time base with a dedicated
 108:Drivers/STM32L0xx_HAL_Driver/Src/stm32l0xx_hal.c ****           Tick interrupt priority.
 109:Drivers/STM32L0xx_HAL_Driver/Src/stm32l0xx_hal.c ****         (++) SysTick timer is used by default as source of time base, but user
 110:Drivers/STM32L0xx_HAL_Driver/Src/stm32l0xx_hal.c ****              can eventually implement his proper time base source (a general purpose
 111:Drivers/STM32L0xx_HAL_Driver/Src/stm32l0xx_hal.c ****              timer for example or other time source), keeping in mind that Time base
 112:Drivers/STM32L0xx_HAL_Driver/Src/stm32l0xx_hal.c ****              duration should be kept 1ms since PPP_TIMEOUT_VALUEs are defined and
 113:Drivers/STM32L0xx_HAL_Driver/Src/stm32l0xx_hal.c ****              handled in milliseconds basis.
 114:Drivers/STM32L0xx_HAL_Driver/Src/stm32l0xx_hal.c ****         (++) Time base configuration function (HAL_InitTick ()) is called automatically
 115:Drivers/STM32L0xx_HAL_Driver/Src/stm32l0xx_hal.c ****              at the beginning of the program after reset by HAL_Init() or at any time
 116:Drivers/STM32L0xx_HAL_Driver/Src/stm32l0xx_hal.c ****              when clock is configured, by HAL_RCC_ClockConfig().
 117:Drivers/STM32L0xx_HAL_Driver/Src/stm32l0xx_hal.c ****         (++) Source of time base is configured  to generate interrupts at regular
 118:Drivers/STM32L0xx_HAL_Driver/Src/stm32l0xx_hal.c ****              time intervals. Care must be taken if HAL_Delay() is called from a
 119:Drivers/STM32L0xx_HAL_Driver/Src/stm32l0xx_hal.c ****              peripheral ISR process, the Tick interrupt line must have higher priority
 120:Drivers/STM32L0xx_HAL_Driver/Src/stm32l0xx_hal.c ****             (numerically lower) than the peripheral interrupt. Otherwise the caller
 121:Drivers/STM32L0xx_HAL_Driver/Src/stm32l0xx_hal.c ****             ISR process will be blocked.
 122:Drivers/STM32L0xx_HAL_Driver/Src/stm32l0xx_hal.c ****        (++) functions affecting time base configurations are declared as __weak
 123:Drivers/STM32L0xx_HAL_Driver/Src/stm32l0xx_hal.c ****              to make  override possible  in case of other  implementations in user file.
 124:Drivers/STM32L0xx_HAL_Driver/Src/stm32l0xx_hal.c **** 
 125:Drivers/STM32L0xx_HAL_Driver/Src/stm32l0xx_hal.c **** @endverbatim
 126:Drivers/STM32L0xx_HAL_Driver/Src/stm32l0xx_hal.c ****   * @{
 127:Drivers/STM32L0xx_HAL_Driver/Src/stm32l0xx_hal.c ****   */
 128:Drivers/STM32L0xx_HAL_Driver/Src/stm32l0xx_hal.c **** 
 129:Drivers/STM32L0xx_HAL_Driver/Src/stm32l0xx_hal.c **** /**
 130:Drivers/STM32L0xx_HAL_Driver/Src/stm32l0xx_hal.c ****   * @brief This function configures the Flash prefetch, Flash preread and Buffer cache,
 131:Drivers/STM32L0xx_HAL_Driver/Src/stm32l0xx_hal.c ****   *        Configures time base source, NVIC and Low level hardware
 132:Drivers/STM32L0xx_HAL_Driver/Src/stm32l0xx_hal.c ****   * @note This function is called at the beginning of program after reset and before
 133:Drivers/STM32L0xx_HAL_Driver/Src/stm32l0xx_hal.c ****   *       the clock configuration
 134:Drivers/STM32L0xx_HAL_Driver/Src/stm32l0xx_hal.c ****   * @note The time base configuration is based on MSI clock when exiting from Reset.
 135:Drivers/STM32L0xx_HAL_Driver/Src/stm32l0xx_hal.c ****   *       Once done, time base tick start incrementing.
 136:Drivers/STM32L0xx_HAL_Driver/Src/stm32l0xx_hal.c ****   *        In the default implementation,Systick is used as source of time base.
 137:Drivers/STM32L0xx_HAL_Driver/Src/stm32l0xx_hal.c ****   *        the tick variable is incremented each 1ms in its ISR.
 138:Drivers/STM32L0xx_HAL_Driver/Src/stm32l0xx_hal.c ****   * @retval HAL status
 139:Drivers/STM32L0xx_HAL_Driver/Src/stm32l0xx_hal.c ****   */
 140:Drivers/STM32L0xx_HAL_Driver/Src/stm32l0xx_hal.c **** HAL_StatusTypeDef HAL_Init(void)
 141:Drivers/STM32L0xx_HAL_Driver/Src/stm32l0xx_hal.c **** {
 142:Drivers/STM32L0xx_HAL_Driver/Src/stm32l0xx_hal.c ****   HAL_StatusTypeDef  status = HAL_OK;
 143:Drivers/STM32L0xx_HAL_Driver/Src/stm32l0xx_hal.c **** 
 144:Drivers/STM32L0xx_HAL_Driver/Src/stm32l0xx_hal.c ****   /* Configure Buffer cache, Flash prefetch,  Flash preread */
 145:Drivers/STM32L0xx_HAL_Driver/Src/stm32l0xx_hal.c **** #if (BUFFER_CACHE_DISABLE != 0)
 146:Drivers/STM32L0xx_HAL_Driver/Src/stm32l0xx_hal.c ****   __HAL_FLASH_BUFFER_CACHE_DISABLE();
ARM GAS  /tmp/ccObnYkQ.s 			page 4


 147:Drivers/STM32L0xx_HAL_Driver/Src/stm32l0xx_hal.c **** #endif /* BUFFER_CACHE_DISABLE */
 148:Drivers/STM32L0xx_HAL_Driver/Src/stm32l0xx_hal.c **** 
 149:Drivers/STM32L0xx_HAL_Driver/Src/stm32l0xx_hal.c **** #if (PREREAD_ENABLE != 0)
 150:Drivers/STM32L0xx_HAL_Driver/Src/stm32l0xx_hal.c ****   __HAL_FLASH_PREREAD_BUFFER_ENABLE();
 151:Drivers/STM32L0xx_HAL_Driver/Src/stm32l0xx_hal.c **** #endif /* PREREAD_ENABLE */
 152:Drivers/STM32L0xx_HAL_Driver/Src/stm32l0xx_hal.c **** 
 153:Drivers/STM32L0xx_HAL_Driver/Src/stm32l0xx_hal.c **** #if (PREFETCH_ENABLE != 0)
 154:Drivers/STM32L0xx_HAL_Driver/Src/stm32l0xx_hal.c ****   __HAL_FLASH_PREFETCH_BUFFER_ENABLE();
 155:Drivers/STM32L0xx_HAL_Driver/Src/stm32l0xx_hal.c **** #endif /* PREFETCH_ENABLE */
 156:Drivers/STM32L0xx_HAL_Driver/Src/stm32l0xx_hal.c **** 
 157:Drivers/STM32L0xx_HAL_Driver/Src/stm32l0xx_hal.c ****   /* Use SysTick as time base source and configure 1ms tick (default clock after Reset is MSI) */
 158:Drivers/STM32L0xx_HAL_Driver/Src/stm32l0xx_hal.c ****   if (HAL_InitTick(TICK_INT_PRIORITY) != HAL_OK)
 159:Drivers/STM32L0xx_HAL_Driver/Src/stm32l0xx_hal.c ****   {
 160:Drivers/STM32L0xx_HAL_Driver/Src/stm32l0xx_hal.c ****     status = HAL_ERROR;
 161:Drivers/STM32L0xx_HAL_Driver/Src/stm32l0xx_hal.c ****   }
 162:Drivers/STM32L0xx_HAL_Driver/Src/stm32l0xx_hal.c ****   else
 163:Drivers/STM32L0xx_HAL_Driver/Src/stm32l0xx_hal.c ****   {
 164:Drivers/STM32L0xx_HAL_Driver/Src/stm32l0xx_hal.c ****     /* Init the low level hardware */
 165:Drivers/STM32L0xx_HAL_Driver/Src/stm32l0xx_hal.c ****     HAL_MspInit();
 166:Drivers/STM32L0xx_HAL_Driver/Src/stm32l0xx_hal.c ****   }
 167:Drivers/STM32L0xx_HAL_Driver/Src/stm32l0xx_hal.c **** 
 168:Drivers/STM32L0xx_HAL_Driver/Src/stm32l0xx_hal.c ****   /* Return function status */
 169:Drivers/STM32L0xx_HAL_Driver/Src/stm32l0xx_hal.c ****   return status;
 170:Drivers/STM32L0xx_HAL_Driver/Src/stm32l0xx_hal.c **** }
 171:Drivers/STM32L0xx_HAL_Driver/Src/stm32l0xx_hal.c **** 
 172:Drivers/STM32L0xx_HAL_Driver/Src/stm32l0xx_hal.c **** /**
 173:Drivers/STM32L0xx_HAL_Driver/Src/stm32l0xx_hal.c ****   * @brief This function de-initializes common part of the HAL and stops the source
 174:Drivers/STM32L0xx_HAL_Driver/Src/stm32l0xx_hal.c ****   *        of time base.
 175:Drivers/STM32L0xx_HAL_Driver/Src/stm32l0xx_hal.c ****   * @note This function is optional.
 176:Drivers/STM32L0xx_HAL_Driver/Src/stm32l0xx_hal.c ****   * @retval HAL status
 177:Drivers/STM32L0xx_HAL_Driver/Src/stm32l0xx_hal.c ****   */
 178:Drivers/STM32L0xx_HAL_Driver/Src/stm32l0xx_hal.c **** HAL_StatusTypeDef HAL_DeInit(void)
 179:Drivers/STM32L0xx_HAL_Driver/Src/stm32l0xx_hal.c **** {
 180:Drivers/STM32L0xx_HAL_Driver/Src/stm32l0xx_hal.c ****   /* Reset of all peripherals */
 181:Drivers/STM32L0xx_HAL_Driver/Src/stm32l0xx_hal.c ****   __HAL_RCC_APB1_FORCE_RESET();
 182:Drivers/STM32L0xx_HAL_Driver/Src/stm32l0xx_hal.c ****   __HAL_RCC_APB1_RELEASE_RESET();
 183:Drivers/STM32L0xx_HAL_Driver/Src/stm32l0xx_hal.c **** 
 184:Drivers/STM32L0xx_HAL_Driver/Src/stm32l0xx_hal.c ****   __HAL_RCC_APB2_FORCE_RESET();
 185:Drivers/STM32L0xx_HAL_Driver/Src/stm32l0xx_hal.c ****   __HAL_RCC_APB2_RELEASE_RESET();
 186:Drivers/STM32L0xx_HAL_Driver/Src/stm32l0xx_hal.c **** 
 187:Drivers/STM32L0xx_HAL_Driver/Src/stm32l0xx_hal.c ****   __HAL_RCC_AHB_FORCE_RESET();
 188:Drivers/STM32L0xx_HAL_Driver/Src/stm32l0xx_hal.c ****   __HAL_RCC_AHB_RELEASE_RESET();
 189:Drivers/STM32L0xx_HAL_Driver/Src/stm32l0xx_hal.c **** 
 190:Drivers/STM32L0xx_HAL_Driver/Src/stm32l0xx_hal.c ****   __HAL_RCC_IOP_FORCE_RESET();
 191:Drivers/STM32L0xx_HAL_Driver/Src/stm32l0xx_hal.c ****   __HAL_RCC_IOP_RELEASE_RESET();
 192:Drivers/STM32L0xx_HAL_Driver/Src/stm32l0xx_hal.c **** 
 193:Drivers/STM32L0xx_HAL_Driver/Src/stm32l0xx_hal.c ****   /* De-Init the low level hardware */
 194:Drivers/STM32L0xx_HAL_Driver/Src/stm32l0xx_hal.c ****   HAL_MspDeInit();
 195:Drivers/STM32L0xx_HAL_Driver/Src/stm32l0xx_hal.c **** 
 196:Drivers/STM32L0xx_HAL_Driver/Src/stm32l0xx_hal.c ****   /* Return function status */
 197:Drivers/STM32L0xx_HAL_Driver/Src/stm32l0xx_hal.c ****   return HAL_OK;
 198:Drivers/STM32L0xx_HAL_Driver/Src/stm32l0xx_hal.c **** }
 199:Drivers/STM32L0xx_HAL_Driver/Src/stm32l0xx_hal.c **** 
 200:Drivers/STM32L0xx_HAL_Driver/Src/stm32l0xx_hal.c **** /**
 201:Drivers/STM32L0xx_HAL_Driver/Src/stm32l0xx_hal.c ****   * @brief  Initializes the MSP.
 202:Drivers/STM32L0xx_HAL_Driver/Src/stm32l0xx_hal.c ****   * @retval None
 203:Drivers/STM32L0xx_HAL_Driver/Src/stm32l0xx_hal.c ****   */
ARM GAS  /tmp/ccObnYkQ.s 			page 5


 204:Drivers/STM32L0xx_HAL_Driver/Src/stm32l0xx_hal.c **** __weak void HAL_MspInit(void)
 205:Drivers/STM32L0xx_HAL_Driver/Src/stm32l0xx_hal.c **** {
  27              		.loc 1 205 1 view -0
  28              		.cfi_startproc
  29              		@ args = 0, pretend = 0, frame = 0
  30              		@ frame_needed = 0, uses_anonymous_args = 0
  31              		@ link register save eliminated.
 206:Drivers/STM32L0xx_HAL_Driver/Src/stm32l0xx_hal.c ****   /* NOTE : This function should not be modified, when the callback is needed,
 207:Drivers/STM32L0xx_HAL_Driver/Src/stm32l0xx_hal.c ****             the HAL_MspInit could be implemented in the user file
 208:Drivers/STM32L0xx_HAL_Driver/Src/stm32l0xx_hal.c ****    */
 209:Drivers/STM32L0xx_HAL_Driver/Src/stm32l0xx_hal.c **** }
  32              		.loc 1 209 1 view .LVU1
  33              		@ sp needed
  34 0000 7047     		bx	lr
  35              		.cfi_endproc
  36              	.LFE42:
  38              		.section	.text.HAL_MspDeInit,"ax",%progbits
  39              		.align	1
  40              		.weak	HAL_MspDeInit
  41              		.syntax unified
  42              		.code	16
  43              		.thumb_func
  45              	HAL_MspDeInit:
  46              	.LFB43:
 210:Drivers/STM32L0xx_HAL_Driver/Src/stm32l0xx_hal.c **** 
 211:Drivers/STM32L0xx_HAL_Driver/Src/stm32l0xx_hal.c **** /**
 212:Drivers/STM32L0xx_HAL_Driver/Src/stm32l0xx_hal.c ****   * @brief  DeInitializes the MSP.
 213:Drivers/STM32L0xx_HAL_Driver/Src/stm32l0xx_hal.c ****   * @retval None
 214:Drivers/STM32L0xx_HAL_Driver/Src/stm32l0xx_hal.c ****   */
 215:Drivers/STM32L0xx_HAL_Driver/Src/stm32l0xx_hal.c **** __weak void HAL_MspDeInit(void)
 216:Drivers/STM32L0xx_HAL_Driver/Src/stm32l0xx_hal.c **** {
  47              		.loc 1 216 1 view -0
  48              		.cfi_startproc
  49              		@ args = 0, pretend = 0, frame = 0
  50              		@ frame_needed = 0, uses_anonymous_args = 0
  51              		@ link register save eliminated.
 217:Drivers/STM32L0xx_HAL_Driver/Src/stm32l0xx_hal.c ****   /* NOTE : This function should not be modified, when the callback is needed,
 218:Drivers/STM32L0xx_HAL_Driver/Src/stm32l0xx_hal.c ****             the HAL_MspDeInit could be implemented in the user file
 219:Drivers/STM32L0xx_HAL_Driver/Src/stm32l0xx_hal.c ****    */
 220:Drivers/STM32L0xx_HAL_Driver/Src/stm32l0xx_hal.c **** }
  52              		.loc 1 220 1 view .LVU3
  53              		@ sp needed
  54 0000 7047     		bx	lr
  55              		.cfi_endproc
  56              	.LFE43:
  58              		.section	.text.HAL_DeInit,"ax",%progbits
  59              		.align	1
  60              		.global	HAL_DeInit
  61              		.syntax unified
  62              		.code	16
  63              		.thumb_func
  65              	HAL_DeInit:
  66              	.LFB41:
 179:Drivers/STM32L0xx_HAL_Driver/Src/stm32l0xx_hal.c ****   /* Reset of all peripherals */
  67              		.loc 1 179 1 view -0
  68              		.cfi_startproc
  69              		@ args = 0, pretend = 0, frame = 0
ARM GAS  /tmp/ccObnYkQ.s 			page 6


  70              		@ frame_needed = 0, uses_anonymous_args = 0
  71 0000 10B5     		push	{r4, lr}
  72              		.cfi_def_cfa_offset 8
  73              		.cfi_offset 4, -8
  74              		.cfi_offset 14, -4
 181:Drivers/STM32L0xx_HAL_Driver/Src/stm32l0xx_hal.c ****   __HAL_RCC_APB1_RELEASE_RESET();
  75              		.loc 1 181 3 view .LVU5
  76 0002 084B     		ldr	r3, .L4
  77 0004 0121     		movs	r1, #1
  78 0006 4942     		rsbs	r1, r1, #0
  79 0008 9962     		str	r1, [r3, #40]
 182:Drivers/STM32L0xx_HAL_Driver/Src/stm32l0xx_hal.c **** 
  80              		.loc 1 182 3 view .LVU6
  81 000a 0022     		movs	r2, #0
  82 000c 9A62     		str	r2, [r3, #40]
 184:Drivers/STM32L0xx_HAL_Driver/Src/stm32l0xx_hal.c ****   __HAL_RCC_APB2_RELEASE_RESET();
  83              		.loc 1 184 3 view .LVU7
  84 000e 5962     		str	r1, [r3, #36]
 185:Drivers/STM32L0xx_HAL_Driver/Src/stm32l0xx_hal.c **** 
  85              		.loc 1 185 3 view .LVU8
  86 0010 5A62     		str	r2, [r3, #36]
 187:Drivers/STM32L0xx_HAL_Driver/Src/stm32l0xx_hal.c ****   __HAL_RCC_AHB_RELEASE_RESET();
  87              		.loc 1 187 3 view .LVU9
  88 0012 1962     		str	r1, [r3, #32]
 188:Drivers/STM32L0xx_HAL_Driver/Src/stm32l0xx_hal.c **** 
  89              		.loc 1 188 3 view .LVU10
  90 0014 1A62     		str	r2, [r3, #32]
 190:Drivers/STM32L0xx_HAL_Driver/Src/stm32l0xx_hal.c ****   __HAL_RCC_IOP_RELEASE_RESET();
  91              		.loc 1 190 3 view .LVU11
  92 0016 D961     		str	r1, [r3, #28]
 191:Drivers/STM32L0xx_HAL_Driver/Src/stm32l0xx_hal.c **** 
  93              		.loc 1 191 3 view .LVU12
  94 0018 DA61     		str	r2, [r3, #28]
 194:Drivers/STM32L0xx_HAL_Driver/Src/stm32l0xx_hal.c **** 
  95              		.loc 1 194 3 view .LVU13
  96 001a FFF7FEFF 		bl	HAL_MspDeInit
  97              	.LVL0:
 197:Drivers/STM32L0xx_HAL_Driver/Src/stm32l0xx_hal.c **** }
  98              		.loc 1 197 3 view .LVU14
 198:Drivers/STM32L0xx_HAL_Driver/Src/stm32l0xx_hal.c **** 
  99              		.loc 1 198 1 is_stmt 0 view .LVU15
 100 001e 0020     		movs	r0, #0
 101              		@ sp needed
 102 0020 10BD     		pop	{r4, pc}
 103              	.L5:
 104 0022 C046     		.align	2
 105              	.L4:
 106 0024 00100240 		.word	1073876992
 107              		.cfi_endproc
 108              	.LFE41:
 110              		.global	__aeabi_uidiv
 111              		.section	.text.HAL_InitTick,"ax",%progbits
 112              		.align	1
 113              		.weak	HAL_InitTick
 114              		.syntax unified
 115              		.code	16
 116              		.thumb_func
ARM GAS  /tmp/ccObnYkQ.s 			page 7


 118              	HAL_InitTick:
 119              	.LVL1:
 120              	.LFB44:
 221:Drivers/STM32L0xx_HAL_Driver/Src/stm32l0xx_hal.c **** 
 222:Drivers/STM32L0xx_HAL_Driver/Src/stm32l0xx_hal.c **** /**
 223:Drivers/STM32L0xx_HAL_Driver/Src/stm32l0xx_hal.c ****   * @brief This function configures the source of the time base:
 224:Drivers/STM32L0xx_HAL_Driver/Src/stm32l0xx_hal.c ****   *        The time source is configured  to have 1ms time base with a dedicated 
 225:Drivers/STM32L0xx_HAL_Driver/Src/stm32l0xx_hal.c ****   *        Tick interrupt priority.
 226:Drivers/STM32L0xx_HAL_Driver/Src/stm32l0xx_hal.c ****   * @note This function is called  automatically at the beginning of program after
 227:Drivers/STM32L0xx_HAL_Driver/Src/stm32l0xx_hal.c ****   *       reset by HAL_Init() or at any time when clock is reconfigured  by HAL_RCC_ClockConfig().
 228:Drivers/STM32L0xx_HAL_Driver/Src/stm32l0xx_hal.c ****   * @note In the default implementation, SysTick timer is the source of time base. 
 229:Drivers/STM32L0xx_HAL_Driver/Src/stm32l0xx_hal.c ****   *       It is used to generate interrupts at regular time intervals. 
 230:Drivers/STM32L0xx_HAL_Driver/Src/stm32l0xx_hal.c ****   *       Care must be taken if HAL_Delay() is called from a peripheral ISR process, 
 231:Drivers/STM32L0xx_HAL_Driver/Src/stm32l0xx_hal.c ****   *       The SysTick interrupt must have higher priority (numerically lower)
 232:Drivers/STM32L0xx_HAL_Driver/Src/stm32l0xx_hal.c ****   *       than the peripheral interrupt. Otherwise the caller ISR process will be blocked.
 233:Drivers/STM32L0xx_HAL_Driver/Src/stm32l0xx_hal.c ****   *       The function is declared as __weak  to be overwritten  in case of other
 234:Drivers/STM32L0xx_HAL_Driver/Src/stm32l0xx_hal.c ****   *       implementation  in user file.
 235:Drivers/STM32L0xx_HAL_Driver/Src/stm32l0xx_hal.c ****   * @param TickPriority Tick interrupt priority.
 236:Drivers/STM32L0xx_HAL_Driver/Src/stm32l0xx_hal.c ****   * @retval HAL status
 237:Drivers/STM32L0xx_HAL_Driver/Src/stm32l0xx_hal.c ****   */
 238:Drivers/STM32L0xx_HAL_Driver/Src/stm32l0xx_hal.c **** __weak HAL_StatusTypeDef HAL_InitTick(uint32_t TickPriority)
 239:Drivers/STM32L0xx_HAL_Driver/Src/stm32l0xx_hal.c **** {
 121              		.loc 1 239 1 is_stmt 1 view -0
 122              		.cfi_startproc
 123              		@ args = 0, pretend = 0, frame = 0
 124              		@ frame_needed = 0, uses_anonymous_args = 0
 125              		.loc 1 239 1 is_stmt 0 view .LVU17
 126 0000 10B5     		push	{r4, lr}
 127              		.cfi_def_cfa_offset 8
 128              		.cfi_offset 4, -8
 129              		.cfi_offset 14, -4
 130 0002 0400     		movs	r4, r0
 240:Drivers/STM32L0xx_HAL_Driver/Src/stm32l0xx_hal.c ****   /* Configure the SysTick to have interrupt in 1ms time basis*/
 241:Drivers/STM32L0xx_HAL_Driver/Src/stm32l0xx_hal.c ****   if (HAL_SYSTICK_Config(SystemCoreClock / (1000U / uwTickFreq)) > 0U)
 131              		.loc 1 241 3 is_stmt 1 view .LVU18
 132              		.loc 1 241 51 is_stmt 0 view .LVU19
 133 0004 0F4B     		ldr	r3, .L11
 134 0006 1978     		ldrb	r1, [r3]
 135 0008 FA20     		movs	r0, #250
 136              	.LVL2:
 137              		.loc 1 241 51 view .LVU20
 138 000a 8000     		lsls	r0, r0, #2
 139 000c FFF7FEFF 		bl	__aeabi_uidiv
 140              	.LVL3:
 141 0010 0100     		movs	r1, r0
 142              		.loc 1 241 7 view .LVU21
 143 0012 0D4B     		ldr	r3, .L11+4
 144 0014 1868     		ldr	r0, [r3]
 145 0016 FFF7FEFF 		bl	__aeabi_uidiv
 146              	.LVL4:
 147 001a FFF7FEFF 		bl	HAL_SYSTICK_Config
 148              	.LVL5:
 149              		.loc 1 241 6 discriminator 1 view .LVU22
 150 001e 0028     		cmp	r0, #0
 151 0020 0DD1     		bne	.L8
 242:Drivers/STM32L0xx_HAL_Driver/Src/stm32l0xx_hal.c ****   {
 243:Drivers/STM32L0xx_HAL_Driver/Src/stm32l0xx_hal.c ****     return HAL_ERROR;
ARM GAS  /tmp/ccObnYkQ.s 			page 8


 244:Drivers/STM32L0xx_HAL_Driver/Src/stm32l0xx_hal.c ****   }
 245:Drivers/STM32L0xx_HAL_Driver/Src/stm32l0xx_hal.c **** 
 246:Drivers/STM32L0xx_HAL_Driver/Src/stm32l0xx_hal.c ****   /* Configure the SysTick IRQ priority */
 247:Drivers/STM32L0xx_HAL_Driver/Src/stm32l0xx_hal.c ****   if (TickPriority < (1UL << __NVIC_PRIO_BITS))
 152              		.loc 1 247 3 is_stmt 1 view .LVU23
 153              		.loc 1 247 6 is_stmt 0 view .LVU24
 154 0022 032C     		cmp	r4, #3
 155 0024 01D9     		bls	.L10
 248:Drivers/STM32L0xx_HAL_Driver/Src/stm32l0xx_hal.c ****   {
 249:Drivers/STM32L0xx_HAL_Driver/Src/stm32l0xx_hal.c ****     HAL_NVIC_SetPriority(SysTick_IRQn, TickPriority, 0U);
 250:Drivers/STM32L0xx_HAL_Driver/Src/stm32l0xx_hal.c ****     uwTickPrio = TickPriority;
 251:Drivers/STM32L0xx_HAL_Driver/Src/stm32l0xx_hal.c ****   }
 252:Drivers/STM32L0xx_HAL_Driver/Src/stm32l0xx_hal.c ****   else
 253:Drivers/STM32L0xx_HAL_Driver/Src/stm32l0xx_hal.c ****   {
 254:Drivers/STM32L0xx_HAL_Driver/Src/stm32l0xx_hal.c ****     return HAL_ERROR;
 156              		.loc 1 254 12 view .LVU25
 157 0026 0120     		movs	r0, #1
 158 0028 0AE0     		b	.L7
 159              	.L10:
 249:Drivers/STM32L0xx_HAL_Driver/Src/stm32l0xx_hal.c ****     uwTickPrio = TickPriority;
 160              		.loc 1 249 5 is_stmt 1 view .LVU26
 161 002a 0130     		adds	r0, r0, #1
 162 002c 0022     		movs	r2, #0
 163 002e 2100     		movs	r1, r4
 164 0030 4042     		rsbs	r0, r0, #0
 165 0032 FFF7FEFF 		bl	HAL_NVIC_SetPriority
 166              	.LVL6:
 250:Drivers/STM32L0xx_HAL_Driver/Src/stm32l0xx_hal.c ****   }
 167              		.loc 1 250 5 view .LVU27
 250:Drivers/STM32L0xx_HAL_Driver/Src/stm32l0xx_hal.c ****   }
 168              		.loc 1 250 16 is_stmt 0 view .LVU28
 169 0036 054B     		ldr	r3, .L11+8
 170 0038 1C60     		str	r4, [r3]
 255:Drivers/STM32L0xx_HAL_Driver/Src/stm32l0xx_hal.c ****   }
 256:Drivers/STM32L0xx_HAL_Driver/Src/stm32l0xx_hal.c **** 
 257:Drivers/STM32L0xx_HAL_Driver/Src/stm32l0xx_hal.c ****   /* Return function status */
 258:Drivers/STM32L0xx_HAL_Driver/Src/stm32l0xx_hal.c ****   return HAL_OK;
 171              		.loc 1 258 3 is_stmt 1 view .LVU29
 172              		.loc 1 258 10 is_stmt 0 view .LVU30
 173 003a 0020     		movs	r0, #0
 174 003c 00E0     		b	.L7
 175              	.L8:
 243:Drivers/STM32L0xx_HAL_Driver/Src/stm32l0xx_hal.c ****   }
 176              		.loc 1 243 12 view .LVU31
 177 003e 0120     		movs	r0, #1
 178              	.L7:
 259:Drivers/STM32L0xx_HAL_Driver/Src/stm32l0xx_hal.c **** }
 179              		.loc 1 259 1 view .LVU32
 180              		@ sp needed
 181              	.LVL7:
 182              		.loc 1 259 1 view .LVU33
 183 0040 10BD     		pop	{r4, pc}
 184              	.L12:
 185 0042 C046     		.align	2
 186              	.L11:
 187 0044 00000000 		.word	uwTickFreq
 188 0048 00000000 		.word	SystemCoreClock
ARM GAS  /tmp/ccObnYkQ.s 			page 9


 189 004c 00000000 		.word	uwTickPrio
 190              		.cfi_endproc
 191              	.LFE44:
 193              		.section	.text.HAL_Init,"ax",%progbits
 194              		.align	1
 195              		.global	HAL_Init
 196              		.syntax unified
 197              		.code	16
 198              		.thumb_func
 200              	HAL_Init:
 201              	.LFB40:
 141:Drivers/STM32L0xx_HAL_Driver/Src/stm32l0xx_hal.c ****   HAL_StatusTypeDef  status = HAL_OK;
 202              		.loc 1 141 1 is_stmt 1 view -0
 203              		.cfi_startproc
 204              		@ args = 0, pretend = 0, frame = 0
 205              		@ frame_needed = 0, uses_anonymous_args = 0
 206 0000 10B5     		push	{r4, lr}
 207              		.cfi_def_cfa_offset 8
 208              		.cfi_offset 4, -8
 209              		.cfi_offset 14, -4
 142:Drivers/STM32L0xx_HAL_Driver/Src/stm32l0xx_hal.c **** 
 210              		.loc 1 142 3 view .LVU35
 211              	.LVL8:
 150:Drivers/STM32L0xx_HAL_Driver/Src/stm32l0xx_hal.c **** #endif /* PREREAD_ENABLE */
 212              		.loc 1 150 3 view .LVU36
 213 0002 084A     		ldr	r2, .L17
 214 0004 1368     		ldr	r3, [r2]
 215 0006 4021     		movs	r1, #64
 216 0008 0B43     		orrs	r3, r1
 217 000a 1360     		str	r3, [r2]
 158:Drivers/STM32L0xx_HAL_Driver/Src/stm32l0xx_hal.c ****   {
 218              		.loc 1 158 3 view .LVU37
 158:Drivers/STM32L0xx_HAL_Driver/Src/stm32l0xx_hal.c ****   {
 219              		.loc 1 158 7 is_stmt 0 view .LVU38
 220 000c 0320     		movs	r0, #3
 221 000e FFF7FEFF 		bl	HAL_InitTick
 222              	.LVL9:
 223 0012 041E     		subs	r4, r0, #0
 158:Drivers/STM32L0xx_HAL_Driver/Src/stm32l0xx_hal.c ****   {
 224              		.loc 1 158 6 discriminator 1 view .LVU39
 225 0014 02D0     		beq	.L16
 160:Drivers/STM32L0xx_HAL_Driver/Src/stm32l0xx_hal.c ****   }
 226              		.loc 1 160 12 view .LVU40
 227 0016 0124     		movs	r4, #1
 228              	.L14:
 229              	.LVL10:
 169:Drivers/STM32L0xx_HAL_Driver/Src/stm32l0xx_hal.c **** }
 230              		.loc 1 169 3 is_stmt 1 view .LVU41
 170:Drivers/STM32L0xx_HAL_Driver/Src/stm32l0xx_hal.c **** 
 231              		.loc 1 170 1 is_stmt 0 view .LVU42
 232 0018 2000     		movs	r0, r4
 233              		@ sp needed
 234              	.LVL11:
 170:Drivers/STM32L0xx_HAL_Driver/Src/stm32l0xx_hal.c **** 
 235              		.loc 1 170 1 view .LVU43
 236 001a 10BD     		pop	{r4, pc}
 237              	.LVL12:
ARM GAS  /tmp/ccObnYkQ.s 			page 10


 238              	.L16:
 165:Drivers/STM32L0xx_HAL_Driver/Src/stm32l0xx_hal.c ****   }
 239              		.loc 1 165 5 is_stmt 1 view .LVU44
 240 001c FFF7FEFF 		bl	HAL_MspInit
 241              	.LVL13:
 242 0020 FAE7     		b	.L14
 243              	.L18:
 244 0022 C046     		.align	2
 245              	.L17:
 246 0024 00200240 		.word	1073881088
 247              		.cfi_endproc
 248              	.LFE40:
 250              		.section	.text.HAL_IncTick,"ax",%progbits
 251              		.align	1
 252              		.weak	HAL_IncTick
 253              		.syntax unified
 254              		.code	16
 255              		.thumb_func
 257              	HAL_IncTick:
 258              	.LFB45:
 260:Drivers/STM32L0xx_HAL_Driver/Src/stm32l0xx_hal.c **** 
 261:Drivers/STM32L0xx_HAL_Driver/Src/stm32l0xx_hal.c **** /**
 262:Drivers/STM32L0xx_HAL_Driver/Src/stm32l0xx_hal.c ****   * @}
 263:Drivers/STM32L0xx_HAL_Driver/Src/stm32l0xx_hal.c ****   */
 264:Drivers/STM32L0xx_HAL_Driver/Src/stm32l0xx_hal.c **** 
 265:Drivers/STM32L0xx_HAL_Driver/Src/stm32l0xx_hal.c **** /** @addtogroup HAL_Exported_Functions_Group2
 266:Drivers/STM32L0xx_HAL_Driver/Src/stm32l0xx_hal.c ****  *  @brief    HAL Control functions
 267:Drivers/STM32L0xx_HAL_Driver/Src/stm32l0xx_hal.c ****  *
 268:Drivers/STM32L0xx_HAL_Driver/Src/stm32l0xx_hal.c **** @verbatim
 269:Drivers/STM32L0xx_HAL_Driver/Src/stm32l0xx_hal.c ****  ===============================================================================
 270:Drivers/STM32L0xx_HAL_Driver/Src/stm32l0xx_hal.c ****                       ##### HAL Control functions #####
 271:Drivers/STM32L0xx_HAL_Driver/Src/stm32l0xx_hal.c ****  ===============================================================================
 272:Drivers/STM32L0xx_HAL_Driver/Src/stm32l0xx_hal.c ****     [..]  This section provides functions allowing to:
 273:Drivers/STM32L0xx_HAL_Driver/Src/stm32l0xx_hal.c ****       (+) Provide a tick value in millisecond
 274:Drivers/STM32L0xx_HAL_Driver/Src/stm32l0xx_hal.c ****       (+) Provide a blocking delay in millisecond
 275:Drivers/STM32L0xx_HAL_Driver/Src/stm32l0xx_hal.c ****       (+) Suspend the time base source interrupt
 276:Drivers/STM32L0xx_HAL_Driver/Src/stm32l0xx_hal.c ****       (+) Resume the time base source interrupt
 277:Drivers/STM32L0xx_HAL_Driver/Src/stm32l0xx_hal.c ****       (+) Get the HAL API driver version
 278:Drivers/STM32L0xx_HAL_Driver/Src/stm32l0xx_hal.c ****       (+) Get the device identifier
 279:Drivers/STM32L0xx_HAL_Driver/Src/stm32l0xx_hal.c ****       (+) Get the device revision identifier
 280:Drivers/STM32L0xx_HAL_Driver/Src/stm32l0xx_hal.c **** 
 281:Drivers/STM32L0xx_HAL_Driver/Src/stm32l0xx_hal.c **** @endverbatim
 282:Drivers/STM32L0xx_HAL_Driver/Src/stm32l0xx_hal.c ****   * @{
 283:Drivers/STM32L0xx_HAL_Driver/Src/stm32l0xx_hal.c ****   */
 284:Drivers/STM32L0xx_HAL_Driver/Src/stm32l0xx_hal.c **** 
 285:Drivers/STM32L0xx_HAL_Driver/Src/stm32l0xx_hal.c **** /**
 286:Drivers/STM32L0xx_HAL_Driver/Src/stm32l0xx_hal.c ****   * @brief This function is called to increment a global variable "uwTick"
 287:Drivers/STM32L0xx_HAL_Driver/Src/stm32l0xx_hal.c ****   *        used as application time base.
 288:Drivers/STM32L0xx_HAL_Driver/Src/stm32l0xx_hal.c ****   * @note In the default implementation, this variable is incremented each 1ms
 289:Drivers/STM32L0xx_HAL_Driver/Src/stm32l0xx_hal.c ****   *       in SysTick ISR.
 290:Drivers/STM32L0xx_HAL_Driver/Src/stm32l0xx_hal.c ****  * @note This function is declared as __weak to be overwritten in case of other
 291:Drivers/STM32L0xx_HAL_Driver/Src/stm32l0xx_hal.c ****   *      implementations in user file.
 292:Drivers/STM32L0xx_HAL_Driver/Src/stm32l0xx_hal.c ****   * @retval None
 293:Drivers/STM32L0xx_HAL_Driver/Src/stm32l0xx_hal.c ****   */
 294:Drivers/STM32L0xx_HAL_Driver/Src/stm32l0xx_hal.c **** __weak void HAL_IncTick(void)
 295:Drivers/STM32L0xx_HAL_Driver/Src/stm32l0xx_hal.c **** {
 259              		.loc 1 295 1 view -0
ARM GAS  /tmp/ccObnYkQ.s 			page 11


 260              		.cfi_startproc
 261              		@ args = 0, pretend = 0, frame = 0
 262              		@ frame_needed = 0, uses_anonymous_args = 0
 263              		@ link register save eliminated.
 296:Drivers/STM32L0xx_HAL_Driver/Src/stm32l0xx_hal.c ****   uwTick += uwTickFreq;
 264              		.loc 1 296 3 view .LVU46
 265              		.loc 1 296 10 is_stmt 0 view .LVU47
 266 0000 034A     		ldr	r2, .L20
 267 0002 1168     		ldr	r1, [r2]
 268 0004 034B     		ldr	r3, .L20+4
 269 0006 1B78     		ldrb	r3, [r3]
 270 0008 5B18     		adds	r3, r3, r1
 271 000a 1360     		str	r3, [r2]
 297:Drivers/STM32L0xx_HAL_Driver/Src/stm32l0xx_hal.c **** }
 272              		.loc 1 297 1 view .LVU48
 273              		@ sp needed
 274 000c 7047     		bx	lr
 275              	.L21:
 276 000e C046     		.align	2
 277              	.L20:
 278 0010 00000000 		.word	uwTick
 279 0014 00000000 		.word	uwTickFreq
 280              		.cfi_endproc
 281              	.LFE45:
 283              		.section	.text.HAL_GetTick,"ax",%progbits
 284              		.align	1
 285              		.weak	HAL_GetTick
 286              		.syntax unified
 287              		.code	16
 288              		.thumb_func
 290              	HAL_GetTick:
 291              	.LFB46:
 298:Drivers/STM32L0xx_HAL_Driver/Src/stm32l0xx_hal.c **** 
 299:Drivers/STM32L0xx_HAL_Driver/Src/stm32l0xx_hal.c **** /**
 300:Drivers/STM32L0xx_HAL_Driver/Src/stm32l0xx_hal.c ****   * @brief Provides a tick value in millisecond.
 301:Drivers/STM32L0xx_HAL_Driver/Src/stm32l0xx_hal.c ****   * @note This function is declared as __weak to be overwritten in case of other
 302:Drivers/STM32L0xx_HAL_Driver/Src/stm32l0xx_hal.c ****   *       implementations in user file.
 303:Drivers/STM32L0xx_HAL_Driver/Src/stm32l0xx_hal.c ****   * @retval tick value
 304:Drivers/STM32L0xx_HAL_Driver/Src/stm32l0xx_hal.c ****   */
 305:Drivers/STM32L0xx_HAL_Driver/Src/stm32l0xx_hal.c **** __weak uint32_t HAL_GetTick(void)
 306:Drivers/STM32L0xx_HAL_Driver/Src/stm32l0xx_hal.c **** {
 292              		.loc 1 306 1 is_stmt 1 view -0
 293              		.cfi_startproc
 294              		@ args = 0, pretend = 0, frame = 0
 295              		@ frame_needed = 0, uses_anonymous_args = 0
 296              		@ link register save eliminated.
 307:Drivers/STM32L0xx_HAL_Driver/Src/stm32l0xx_hal.c ****   return uwTick;
 297              		.loc 1 307 3 view .LVU50
 298              		.loc 1 307 10 is_stmt 0 view .LVU51
 299 0000 014B     		ldr	r3, .L23
 300 0002 1868     		ldr	r0, [r3]
 308:Drivers/STM32L0xx_HAL_Driver/Src/stm32l0xx_hal.c **** }
 301              		.loc 1 308 1 view .LVU52
 302              		@ sp needed
 303 0004 7047     		bx	lr
 304              	.L24:
 305 0006 C046     		.align	2
ARM GAS  /tmp/ccObnYkQ.s 			page 12


 306              	.L23:
 307 0008 00000000 		.word	uwTick
 308              		.cfi_endproc
 309              	.LFE46:
 311              		.section	.text.HAL_GetTickPrio,"ax",%progbits
 312              		.align	1
 313              		.global	HAL_GetTickPrio
 314              		.syntax unified
 315              		.code	16
 316              		.thumb_func
 318              	HAL_GetTickPrio:
 319              	.LFB47:
 309:Drivers/STM32L0xx_HAL_Driver/Src/stm32l0xx_hal.c **** 
 310:Drivers/STM32L0xx_HAL_Driver/Src/stm32l0xx_hal.c **** /**
 311:Drivers/STM32L0xx_HAL_Driver/Src/stm32l0xx_hal.c ****   * @brief This function returns a tick priority.
 312:Drivers/STM32L0xx_HAL_Driver/Src/stm32l0xx_hal.c ****   * @retval tick priority
 313:Drivers/STM32L0xx_HAL_Driver/Src/stm32l0xx_hal.c ****   */
 314:Drivers/STM32L0xx_HAL_Driver/Src/stm32l0xx_hal.c **** uint32_t HAL_GetTickPrio(void)
 315:Drivers/STM32L0xx_HAL_Driver/Src/stm32l0xx_hal.c **** {
 320              		.loc 1 315 1 is_stmt 1 view -0
 321              		.cfi_startproc
 322              		@ args = 0, pretend = 0, frame = 0
 323              		@ frame_needed = 0, uses_anonymous_args = 0
 324              		@ link register save eliminated.
 316:Drivers/STM32L0xx_HAL_Driver/Src/stm32l0xx_hal.c ****   return uwTickPrio;
 325              		.loc 1 316 3 view .LVU54
 326              		.loc 1 316 10 is_stmt 0 view .LVU55
 327 0000 014B     		ldr	r3, .L26
 328              		.loc 1 316 10 discriminator 1 view .LVU56
 329 0002 1868     		ldr	r0, [r3]
 317:Drivers/STM32L0xx_HAL_Driver/Src/stm32l0xx_hal.c **** }
 330              		.loc 1 317 1 view .LVU57
 331              		@ sp needed
 332 0004 7047     		bx	lr
 333              	.L27:
 334 0006 C046     		.align	2
 335              	.L26:
 336 0008 00000000 		.word	uwTickPrio
 337              		.cfi_endproc
 338              	.LFE47:
 340              		.section	.text.HAL_SetTickFreq,"ax",%progbits
 341              		.align	1
 342              		.global	HAL_SetTickFreq
 343              		.syntax unified
 344              		.code	16
 345              		.thumb_func
 347              	HAL_SetTickFreq:
 348              	.LVL14:
 349              	.LFB48:
 318:Drivers/STM32L0xx_HAL_Driver/Src/stm32l0xx_hal.c **** 
 319:Drivers/STM32L0xx_HAL_Driver/Src/stm32l0xx_hal.c **** /**
 320:Drivers/STM32L0xx_HAL_Driver/Src/stm32l0xx_hal.c ****   * @brief Set new tick Freq.
 321:Drivers/STM32L0xx_HAL_Driver/Src/stm32l0xx_hal.c ****   * @retval Status
 322:Drivers/STM32L0xx_HAL_Driver/Src/stm32l0xx_hal.c ****   */
 323:Drivers/STM32L0xx_HAL_Driver/Src/stm32l0xx_hal.c **** HAL_StatusTypeDef HAL_SetTickFreq(HAL_TickFreqTypeDef Freq)
 324:Drivers/STM32L0xx_HAL_Driver/Src/stm32l0xx_hal.c **** {
 350              		.loc 1 324 1 is_stmt 1 view -0
ARM GAS  /tmp/ccObnYkQ.s 			page 13


 351              		.cfi_startproc
 352              		@ args = 0, pretend = 0, frame = 0
 353              		@ frame_needed = 0, uses_anonymous_args = 0
 354              		.loc 1 324 1 is_stmt 0 view .LVU59
 355 0000 10B5     		push	{r4, lr}
 356              		.cfi_def_cfa_offset 8
 357              		.cfi_offset 4, -8
 358              		.cfi_offset 14, -4
 325:Drivers/STM32L0xx_HAL_Driver/Src/stm32l0xx_hal.c ****   HAL_StatusTypeDef status  = HAL_OK;
 359              		.loc 1 325 3 is_stmt 1 view .LVU60
 360              	.LVL15:
 326:Drivers/STM32L0xx_HAL_Driver/Src/stm32l0xx_hal.c ****   HAL_TickFreqTypeDef prevTickFreq;
 361              		.loc 1 326 3 view .LVU61
 327:Drivers/STM32L0xx_HAL_Driver/Src/stm32l0xx_hal.c **** 
 328:Drivers/STM32L0xx_HAL_Driver/Src/stm32l0xx_hal.c ****   assert_param(IS_TICKFREQ(Freq));
 362              		.loc 1 328 3 view .LVU62
 329:Drivers/STM32L0xx_HAL_Driver/Src/stm32l0xx_hal.c **** 
 330:Drivers/STM32L0xx_HAL_Driver/Src/stm32l0xx_hal.c ****   if (uwTickFreq != Freq)
 363              		.loc 1 330 3 view .LVU63
 364              		.loc 1 330 18 is_stmt 0 view .LVU64
 365 0002 084B     		ldr	r3, .L32
 366 0004 1C78     		ldrb	r4, [r3]
 367              		.loc 1 330 6 view .LVU65
 368 0006 8442     		cmp	r4, r0
 369 0008 01D1     		bne	.L31
 325:Drivers/STM32L0xx_HAL_Driver/Src/stm32l0xx_hal.c ****   HAL_TickFreqTypeDef prevTickFreq;
 370              		.loc 1 325 21 view .LVU66
 371 000a 0020     		movs	r0, #0
 372              	.LVL16:
 373              	.L29:
 331:Drivers/STM32L0xx_HAL_Driver/Src/stm32l0xx_hal.c ****   {
 332:Drivers/STM32L0xx_HAL_Driver/Src/stm32l0xx_hal.c ****     /* Back up uwTickFreq frequency */
 333:Drivers/STM32L0xx_HAL_Driver/Src/stm32l0xx_hal.c ****     prevTickFreq = uwTickFreq;
 334:Drivers/STM32L0xx_HAL_Driver/Src/stm32l0xx_hal.c **** 
 335:Drivers/STM32L0xx_HAL_Driver/Src/stm32l0xx_hal.c ****     /* Update uwTickFreq global variable used by HAL_InitTick() */
 336:Drivers/STM32L0xx_HAL_Driver/Src/stm32l0xx_hal.c ****     uwTickFreq = Freq;
 337:Drivers/STM32L0xx_HAL_Driver/Src/stm32l0xx_hal.c **** 
 338:Drivers/STM32L0xx_HAL_Driver/Src/stm32l0xx_hal.c ****     /* Apply the new tick Freq  */
 339:Drivers/STM32L0xx_HAL_Driver/Src/stm32l0xx_hal.c ****     status = HAL_InitTick(uwTickPrio);
 340:Drivers/STM32L0xx_HAL_Driver/Src/stm32l0xx_hal.c **** 
 341:Drivers/STM32L0xx_HAL_Driver/Src/stm32l0xx_hal.c ****     if (status != HAL_OK)
 342:Drivers/STM32L0xx_HAL_Driver/Src/stm32l0xx_hal.c ****     {
 343:Drivers/STM32L0xx_HAL_Driver/Src/stm32l0xx_hal.c ****       /* Restore previous tick frequency */
 344:Drivers/STM32L0xx_HAL_Driver/Src/stm32l0xx_hal.c ****       uwTickFreq = prevTickFreq;
 345:Drivers/STM32L0xx_HAL_Driver/Src/stm32l0xx_hal.c ****     }
 346:Drivers/STM32L0xx_HAL_Driver/Src/stm32l0xx_hal.c ****   }
 347:Drivers/STM32L0xx_HAL_Driver/Src/stm32l0xx_hal.c **** 
 348:Drivers/STM32L0xx_HAL_Driver/Src/stm32l0xx_hal.c ****   return status;
 374              		.loc 1 348 3 is_stmt 1 view .LVU67
 349:Drivers/STM32L0xx_HAL_Driver/Src/stm32l0xx_hal.c **** }
 375              		.loc 1 349 1 is_stmt 0 view .LVU68
 376              		@ sp needed
 377 000c 10BD     		pop	{r4, pc}
 378              	.LVL17:
 379              	.L31:
 333:Drivers/STM32L0xx_HAL_Driver/Src/stm32l0xx_hal.c **** 
 380              		.loc 1 333 5 is_stmt 1 view .LVU69
ARM GAS  /tmp/ccObnYkQ.s 			page 14


 336:Drivers/STM32L0xx_HAL_Driver/Src/stm32l0xx_hal.c **** 
 381              		.loc 1 336 5 view .LVU70
 336:Drivers/STM32L0xx_HAL_Driver/Src/stm32l0xx_hal.c **** 
 382              		.loc 1 336 16 is_stmt 0 view .LVU71
 383 000e 1870     		strb	r0, [r3]
 339:Drivers/STM32L0xx_HAL_Driver/Src/stm32l0xx_hal.c **** 
 384              		.loc 1 339 5 is_stmt 1 view .LVU72
 339:Drivers/STM32L0xx_HAL_Driver/Src/stm32l0xx_hal.c **** 
 385              		.loc 1 339 14 is_stmt 0 view .LVU73
 386 0010 054B     		ldr	r3, .L32+4
 387 0012 1868     		ldr	r0, [r3]
 388              	.LVL18:
 339:Drivers/STM32L0xx_HAL_Driver/Src/stm32l0xx_hal.c **** 
 389              		.loc 1 339 14 view .LVU74
 390 0014 FFF7FEFF 		bl	HAL_InitTick
 391              	.LVL19:
 341:Drivers/STM32L0xx_HAL_Driver/Src/stm32l0xx_hal.c ****     {
 392              		.loc 1 341 5 is_stmt 1 view .LVU75
 341:Drivers/STM32L0xx_HAL_Driver/Src/stm32l0xx_hal.c ****     {
 393              		.loc 1 341 8 is_stmt 0 view .LVU76
 394 0018 0028     		cmp	r0, #0
 395 001a F7D0     		beq	.L29
 344:Drivers/STM32L0xx_HAL_Driver/Src/stm32l0xx_hal.c ****     }
 396              		.loc 1 344 7 is_stmt 1 view .LVU77
 344:Drivers/STM32L0xx_HAL_Driver/Src/stm32l0xx_hal.c ****     }
 397              		.loc 1 344 18 is_stmt 0 view .LVU78
 398 001c 014B     		ldr	r3, .L32
 399 001e 1C70     		strb	r4, [r3]
 400 0020 F4E7     		b	.L29
 401              	.L33:
 402 0022 C046     		.align	2
 403              	.L32:
 404 0024 00000000 		.word	uwTickFreq
 405 0028 00000000 		.word	uwTickPrio
 406              		.cfi_endproc
 407              	.LFE48:
 409              		.section	.text.HAL_GetTickFreq,"ax",%progbits
 410              		.align	1
 411              		.global	HAL_GetTickFreq
 412              		.syntax unified
 413              		.code	16
 414              		.thumb_func
 416              	HAL_GetTickFreq:
 417              	.LFB49:
 350:Drivers/STM32L0xx_HAL_Driver/Src/stm32l0xx_hal.c **** 
 351:Drivers/STM32L0xx_HAL_Driver/Src/stm32l0xx_hal.c **** /**
 352:Drivers/STM32L0xx_HAL_Driver/Src/stm32l0xx_hal.c ****   * @brief Return tick frequency.
 353:Drivers/STM32L0xx_HAL_Driver/Src/stm32l0xx_hal.c ****   * @retval Tick frequency.
 354:Drivers/STM32L0xx_HAL_Driver/Src/stm32l0xx_hal.c ****   *         Value of @ref HAL_TickFreqTypeDef.
 355:Drivers/STM32L0xx_HAL_Driver/Src/stm32l0xx_hal.c ****   */
 356:Drivers/STM32L0xx_HAL_Driver/Src/stm32l0xx_hal.c **** HAL_TickFreqTypeDef HAL_GetTickFreq(void)
 357:Drivers/STM32L0xx_HAL_Driver/Src/stm32l0xx_hal.c **** {
 418              		.loc 1 357 1 is_stmt 1 view -0
 419              		.cfi_startproc
 420              		@ args = 0, pretend = 0, frame = 0
 421              		@ frame_needed = 0, uses_anonymous_args = 0
 422              		@ link register save eliminated.
ARM GAS  /tmp/ccObnYkQ.s 			page 15


 358:Drivers/STM32L0xx_HAL_Driver/Src/stm32l0xx_hal.c ****   return uwTickFreq;
 423              		.loc 1 358 3 view .LVU80
 424              		.loc 1 358 10 is_stmt 0 view .LVU81
 425 0000 014B     		ldr	r3, .L35
 426              		.loc 1 358 10 discriminator 1 view .LVU82
 427 0002 1878     		ldrb	r0, [r3]
 359:Drivers/STM32L0xx_HAL_Driver/Src/stm32l0xx_hal.c **** }
 428              		.loc 1 359 1 view .LVU83
 429              		@ sp needed
 430 0004 7047     		bx	lr
 431              	.L36:
 432 0006 C046     		.align	2
 433              	.L35:
 434 0008 00000000 		.word	uwTickFreq
 435              		.cfi_endproc
 436              	.LFE49:
 438              		.section	.text.HAL_Delay,"ax",%progbits
 439              		.align	1
 440              		.weak	HAL_Delay
 441              		.syntax unified
 442              		.code	16
 443              		.thumb_func
 445              	HAL_Delay:
 446              	.LVL20:
 447              	.LFB50:
 360:Drivers/STM32L0xx_HAL_Driver/Src/stm32l0xx_hal.c **** 
 361:Drivers/STM32L0xx_HAL_Driver/Src/stm32l0xx_hal.c **** /**
 362:Drivers/STM32L0xx_HAL_Driver/Src/stm32l0xx_hal.c ****   * @brief This function provides minimum delay (in milliseconds) based
 363:Drivers/STM32L0xx_HAL_Driver/Src/stm32l0xx_hal.c ****   *        on variable incremented.
 364:Drivers/STM32L0xx_HAL_Driver/Src/stm32l0xx_hal.c ****   * @note In the default implementation , SysTick timer is the source of time base.
 365:Drivers/STM32L0xx_HAL_Driver/Src/stm32l0xx_hal.c ****   *       It is used to generate interrupts at regular time intervals where uwTick
 366:Drivers/STM32L0xx_HAL_Driver/Src/stm32l0xx_hal.c ****   *       is incremented.
 367:Drivers/STM32L0xx_HAL_Driver/Src/stm32l0xx_hal.c ****   * @note This function is declared as __weak to be overwritten in case of other
 368:Drivers/STM32L0xx_HAL_Driver/Src/stm32l0xx_hal.c ****   *       implementations in user file.
 369:Drivers/STM32L0xx_HAL_Driver/Src/stm32l0xx_hal.c ****   * @param Delay specifies the delay time length, in milliseconds.
 370:Drivers/STM32L0xx_HAL_Driver/Src/stm32l0xx_hal.c ****   * @retval None
 371:Drivers/STM32L0xx_HAL_Driver/Src/stm32l0xx_hal.c ****   */
 372:Drivers/STM32L0xx_HAL_Driver/Src/stm32l0xx_hal.c **** __weak void HAL_Delay(uint32_t Delay)
 373:Drivers/STM32L0xx_HAL_Driver/Src/stm32l0xx_hal.c **** {
 448              		.loc 1 373 1 is_stmt 1 view -0
 449              		.cfi_startproc
 450              		@ args = 0, pretend = 0, frame = 0
 451              		@ frame_needed = 0, uses_anonymous_args = 0
 452              		.loc 1 373 1 is_stmt 0 view .LVU85
 453 0000 70B5     		push	{r4, r5, r6, lr}
 454              		.cfi_def_cfa_offset 16
 455              		.cfi_offset 4, -16
 456              		.cfi_offset 5, -12
 457              		.cfi_offset 6, -8
 458              		.cfi_offset 14, -4
 459 0002 0400     		movs	r4, r0
 374:Drivers/STM32L0xx_HAL_Driver/Src/stm32l0xx_hal.c ****   uint32_t tickstart = HAL_GetTick();
 460              		.loc 1 374 3 is_stmt 1 view .LVU86
 461              		.loc 1 374 24 is_stmt 0 view .LVU87
 462 0004 FFF7FEFF 		bl	HAL_GetTick
 463              	.LVL21:
 464              		.loc 1 374 24 view .LVU88
ARM GAS  /tmp/ccObnYkQ.s 			page 16


 465 0008 0500     		movs	r5, r0
 466              	.LVL22:
 375:Drivers/STM32L0xx_HAL_Driver/Src/stm32l0xx_hal.c ****   uint32_t wait = Delay;
 467              		.loc 1 375 3 is_stmt 1 view .LVU89
 376:Drivers/STM32L0xx_HAL_Driver/Src/stm32l0xx_hal.c **** 
 377:Drivers/STM32L0xx_HAL_Driver/Src/stm32l0xx_hal.c ****   /* Add a freq to guarantee minimum wait */
 378:Drivers/STM32L0xx_HAL_Driver/Src/stm32l0xx_hal.c ****   if (wait < HAL_MAX_DELAY)
 468              		.loc 1 378 3 view .LVU90
 469              		.loc 1 378 6 is_stmt 0 view .LVU91
 470 000a 631C     		adds	r3, r4, #1
 471 000c 02D0     		beq	.L39
 379:Drivers/STM32L0xx_HAL_Driver/Src/stm32l0xx_hal.c ****   {
 380:Drivers/STM32L0xx_HAL_Driver/Src/stm32l0xx_hal.c ****     wait += (uint32_t)(uwTickFreq);
 472              		.loc 1 380 5 is_stmt 1 view .LVU92
 473              		.loc 1 380 13 is_stmt 0 view .LVU93
 474 000e 044B     		ldr	r3, .L41
 475 0010 1B78     		ldrb	r3, [r3]
 476              		.loc 1 380 10 view .LVU94
 477 0012 E418     		adds	r4, r4, r3
 478              	.LVL23:
 479              	.L39:
 381:Drivers/STM32L0xx_HAL_Driver/Src/stm32l0xx_hal.c ****   }
 382:Drivers/STM32L0xx_HAL_Driver/Src/stm32l0xx_hal.c **** 
 383:Drivers/STM32L0xx_HAL_Driver/Src/stm32l0xx_hal.c ****   while((HAL_GetTick() - tickstart) < wait)
 384:Drivers/STM32L0xx_HAL_Driver/Src/stm32l0xx_hal.c ****   {
 385:Drivers/STM32L0xx_HAL_Driver/Src/stm32l0xx_hal.c ****   }
 480              		.loc 1 385 3 is_stmt 1 view .LVU95
 383:Drivers/STM32L0xx_HAL_Driver/Src/stm32l0xx_hal.c ****   {
 481              		.loc 1 383 37 discriminator 1 view .LVU96
 383:Drivers/STM32L0xx_HAL_Driver/Src/stm32l0xx_hal.c ****   {
 482              		.loc 1 383 10 is_stmt 0 discriminator 1 view .LVU97
 483 0014 FFF7FEFF 		bl	HAL_GetTick
 484              	.LVL24:
 383:Drivers/STM32L0xx_HAL_Driver/Src/stm32l0xx_hal.c ****   {
 485              		.loc 1 383 24 discriminator 1 view .LVU98
 486 0018 401B     		subs	r0, r0, r5
 383:Drivers/STM32L0xx_HAL_Driver/Src/stm32l0xx_hal.c ****   {
 487              		.loc 1 383 37 discriminator 1 view .LVU99
 488 001a A042     		cmp	r0, r4
 489 001c FAD3     		bcc	.L39
 386:Drivers/STM32L0xx_HAL_Driver/Src/stm32l0xx_hal.c **** }
 490              		.loc 1 386 1 view .LVU100
 491              		@ sp needed
 492              	.LVL25:
 493              	.LVL26:
 494              		.loc 1 386 1 view .LVU101
 495 001e 70BD     		pop	{r4, r5, r6, pc}
 496              	.L42:
 497              		.align	2
 498              	.L41:
 499 0020 00000000 		.word	uwTickFreq
 500              		.cfi_endproc
 501              	.LFE50:
 503              		.section	.text.HAL_SuspendTick,"ax",%progbits
 504              		.align	1
 505              		.weak	HAL_SuspendTick
 506              		.syntax unified
ARM GAS  /tmp/ccObnYkQ.s 			page 17


 507              		.code	16
 508              		.thumb_func
 510              	HAL_SuspendTick:
 511              	.LFB51:
 387:Drivers/STM32L0xx_HAL_Driver/Src/stm32l0xx_hal.c **** 
 388:Drivers/STM32L0xx_HAL_Driver/Src/stm32l0xx_hal.c **** /**
 389:Drivers/STM32L0xx_HAL_Driver/Src/stm32l0xx_hal.c ****   * @brief Suspends the Tick increment.
 390:Drivers/STM32L0xx_HAL_Driver/Src/stm32l0xx_hal.c ****   * @note In the default implementation , SysTick timer is the source of time base. It is
 391:Drivers/STM32L0xx_HAL_Driver/Src/stm32l0xx_hal.c ****   *       used to generate interrupts at regular time intervals. Once HAL_SuspendTick()
 392:Drivers/STM32L0xx_HAL_Driver/Src/stm32l0xx_hal.c ****   *       is called, the SysTick interrupt will be disabled and so Tick increment
 393:Drivers/STM32L0xx_HAL_Driver/Src/stm32l0xx_hal.c ****   *       is suspended.
 394:Drivers/STM32L0xx_HAL_Driver/Src/stm32l0xx_hal.c ****   * @note This function is declared as __weak to be overwritten in case of other
 395:Drivers/STM32L0xx_HAL_Driver/Src/stm32l0xx_hal.c ****   *       implementations in user file.
 396:Drivers/STM32L0xx_HAL_Driver/Src/stm32l0xx_hal.c ****   * @retval None
 397:Drivers/STM32L0xx_HAL_Driver/Src/stm32l0xx_hal.c ****   */
 398:Drivers/STM32L0xx_HAL_Driver/Src/stm32l0xx_hal.c **** __weak void HAL_SuspendTick(void)
 399:Drivers/STM32L0xx_HAL_Driver/Src/stm32l0xx_hal.c **** {
 512              		.loc 1 399 1 is_stmt 1 view -0
 513              		.cfi_startproc
 514              		@ args = 0, pretend = 0, frame = 0
 515              		@ frame_needed = 0, uses_anonymous_args = 0
 516              		@ link register save eliminated.
 400:Drivers/STM32L0xx_HAL_Driver/Src/stm32l0xx_hal.c ****   /* Disable SysTick Interrupt */
 401:Drivers/STM32L0xx_HAL_Driver/Src/stm32l0xx_hal.c ****   SysTick->CTRL &= ~SysTick_CTRL_TICKINT_Msk;
 517              		.loc 1 401 3 view .LVU103
 518              		.loc 1 401 10 is_stmt 0 view .LVU104
 519 0000 024A     		ldr	r2, .L44
 520 0002 1368     		ldr	r3, [r2]
 521              		.loc 1 401 17 view .LVU105
 522 0004 0221     		movs	r1, #2
 523 0006 8B43     		bics	r3, r1
 524 0008 1360     		str	r3, [r2]
 402:Drivers/STM32L0xx_HAL_Driver/Src/stm32l0xx_hal.c **** }
 525              		.loc 1 402 1 view .LVU106
 526              		@ sp needed
 527 000a 7047     		bx	lr
 528              	.L45:
 529              		.align	2
 530              	.L44:
 531 000c 10E000E0 		.word	-536813552
 532              		.cfi_endproc
 533              	.LFE51:
 535              		.section	.text.HAL_ResumeTick,"ax",%progbits
 536              		.align	1
 537              		.weak	HAL_ResumeTick
 538              		.syntax unified
 539              		.code	16
 540              		.thumb_func
 542              	HAL_ResumeTick:
 543              	.LFB52:
 403:Drivers/STM32L0xx_HAL_Driver/Src/stm32l0xx_hal.c **** 
 404:Drivers/STM32L0xx_HAL_Driver/Src/stm32l0xx_hal.c **** /**
 405:Drivers/STM32L0xx_HAL_Driver/Src/stm32l0xx_hal.c ****   * @brief Resumes the Tick increment.
 406:Drivers/STM32L0xx_HAL_Driver/Src/stm32l0xx_hal.c ****   * @note In the default implementation , SysTick timer is the source of time base. It is
 407:Drivers/STM32L0xx_HAL_Driver/Src/stm32l0xx_hal.c ****   *       used to generate interrupts at regular time intervals. Once HAL_ResumeTick()
 408:Drivers/STM32L0xx_HAL_Driver/Src/stm32l0xx_hal.c ****   *       is called, the SysTick interrupt will be enabled and so Tick increment
 409:Drivers/STM32L0xx_HAL_Driver/Src/stm32l0xx_hal.c ****   *       is resumed.
ARM GAS  /tmp/ccObnYkQ.s 			page 18


 410:Drivers/STM32L0xx_HAL_Driver/Src/stm32l0xx_hal.c ****   * @note This function is declared as __weak to be overwritten in case of other
 411:Drivers/STM32L0xx_HAL_Driver/Src/stm32l0xx_hal.c ****   *       implementations in user file.
 412:Drivers/STM32L0xx_HAL_Driver/Src/stm32l0xx_hal.c ****   * @retval None
 413:Drivers/STM32L0xx_HAL_Driver/Src/stm32l0xx_hal.c ****   */
 414:Drivers/STM32L0xx_HAL_Driver/Src/stm32l0xx_hal.c **** __weak void HAL_ResumeTick(void)
 415:Drivers/STM32L0xx_HAL_Driver/Src/stm32l0xx_hal.c **** {
 544              		.loc 1 415 1 is_stmt 1 view -0
 545              		.cfi_startproc
 546              		@ args = 0, pretend = 0, frame = 0
 547              		@ frame_needed = 0, uses_anonymous_args = 0
 548              		@ link register save eliminated.
 416:Drivers/STM32L0xx_HAL_Driver/Src/stm32l0xx_hal.c ****   /* Enable SysTick Interrupt */
 417:Drivers/STM32L0xx_HAL_Driver/Src/stm32l0xx_hal.c ****   SysTick->CTRL  |= SysTick_CTRL_TICKINT_Msk;
 549              		.loc 1 417 3 view .LVU108
 550              		.loc 1 417 10 is_stmt 0 view .LVU109
 551 0000 024A     		ldr	r2, .L47
 552 0002 1368     		ldr	r3, [r2]
 553              		.loc 1 417 18 view .LVU110
 554 0004 0221     		movs	r1, #2
 555 0006 0B43     		orrs	r3, r1
 556 0008 1360     		str	r3, [r2]
 418:Drivers/STM32L0xx_HAL_Driver/Src/stm32l0xx_hal.c **** }
 557              		.loc 1 418 1 view .LVU111
 558              		@ sp needed
 559 000a 7047     		bx	lr
 560              	.L48:
 561              		.align	2
 562              	.L47:
 563 000c 10E000E0 		.word	-536813552
 564              		.cfi_endproc
 565              	.LFE52:
 567              		.section	.text.HAL_GetHalVersion,"ax",%progbits
 568              		.align	1
 569              		.global	HAL_GetHalVersion
 570              		.syntax unified
 571              		.code	16
 572              		.thumb_func
 574              	HAL_GetHalVersion:
 575              	.LFB53:
 419:Drivers/STM32L0xx_HAL_Driver/Src/stm32l0xx_hal.c **** 
 420:Drivers/STM32L0xx_HAL_Driver/Src/stm32l0xx_hal.c **** /**
 421:Drivers/STM32L0xx_HAL_Driver/Src/stm32l0xx_hal.c ****   * @brief Returns the HAL revision
 422:Drivers/STM32L0xx_HAL_Driver/Src/stm32l0xx_hal.c ****   * @retval version: 0xXYZR (8bits for each decimal, R for RC)
 423:Drivers/STM32L0xx_HAL_Driver/Src/stm32l0xx_hal.c ****   */
 424:Drivers/STM32L0xx_HAL_Driver/Src/stm32l0xx_hal.c **** uint32_t HAL_GetHalVersion(void)
 425:Drivers/STM32L0xx_HAL_Driver/Src/stm32l0xx_hal.c **** {
 576              		.loc 1 425 1 is_stmt 1 view -0
 577              		.cfi_startproc
 578              		@ args = 0, pretend = 0, frame = 0
 579              		@ frame_needed = 0, uses_anonymous_args = 0
 580              		@ link register save eliminated.
 426:Drivers/STM32L0xx_HAL_Driver/Src/stm32l0xx_hal.c ****   return __STM32L0xx_HAL_VERSION;
 581              		.loc 1 426 3 view .LVU113
 427:Drivers/STM32L0xx_HAL_Driver/Src/stm32l0xx_hal.c **** }
 582              		.loc 1 427 1 is_stmt 0 view .LVU114
 583 0000 0048     		ldr	r0, .L50
 584              		@ sp needed
ARM GAS  /tmp/ccObnYkQ.s 			page 19


 585 0002 7047     		bx	lr
 586              	.L51:
 587              		.align	2
 588              	.L50:
 589 0004 00060A01 		.word	17434112
 590              		.cfi_endproc
 591              	.LFE53:
 593              		.section	.text.HAL_GetREVID,"ax",%progbits
 594              		.align	1
 595              		.global	HAL_GetREVID
 596              		.syntax unified
 597              		.code	16
 598              		.thumb_func
 600              	HAL_GetREVID:
 601              	.LFB54:
 428:Drivers/STM32L0xx_HAL_Driver/Src/stm32l0xx_hal.c **** 
 429:Drivers/STM32L0xx_HAL_Driver/Src/stm32l0xx_hal.c **** /**
 430:Drivers/STM32L0xx_HAL_Driver/Src/stm32l0xx_hal.c ****   * @brief Returns the device revision identifier.
 431:Drivers/STM32L0xx_HAL_Driver/Src/stm32l0xx_hal.c ****   * @retval Device revision identifier
 432:Drivers/STM32L0xx_HAL_Driver/Src/stm32l0xx_hal.c ****   */
 433:Drivers/STM32L0xx_HAL_Driver/Src/stm32l0xx_hal.c **** uint32_t HAL_GetREVID(void)
 434:Drivers/STM32L0xx_HAL_Driver/Src/stm32l0xx_hal.c **** {
 602              		.loc 1 434 1 is_stmt 1 view -0
 603              		.cfi_startproc
 604              		@ args = 0, pretend = 0, frame = 0
 605              		@ frame_needed = 0, uses_anonymous_args = 0
 606              		@ link register save eliminated.
 435:Drivers/STM32L0xx_HAL_Driver/Src/stm32l0xx_hal.c ****   return((DBGMCU->IDCODE) >> 16U);
 607              		.loc 1 435 3 view .LVU116
 608              		.loc 1 435 17 is_stmt 0 view .LVU117
 609 0000 014B     		ldr	r3, .L53
 610 0002 1868     		ldr	r0, [r3]
 611              		.loc 1 435 27 view .LVU118
 612 0004 000C     		lsrs	r0, r0, #16
 436:Drivers/STM32L0xx_HAL_Driver/Src/stm32l0xx_hal.c **** }
 613              		.loc 1 436 1 view .LVU119
 614              		@ sp needed
 615 0006 7047     		bx	lr
 616              	.L54:
 617              		.align	2
 618              	.L53:
 619 0008 00580140 		.word	1073829888
 620              		.cfi_endproc
 621              	.LFE54:
 623              		.section	.text.HAL_GetDEVID,"ax",%progbits
 624              		.align	1
 625              		.global	HAL_GetDEVID
 626              		.syntax unified
 627              		.code	16
 628              		.thumb_func
 630              	HAL_GetDEVID:
 631              	.LFB55:
 437:Drivers/STM32L0xx_HAL_Driver/Src/stm32l0xx_hal.c **** 
 438:Drivers/STM32L0xx_HAL_Driver/Src/stm32l0xx_hal.c **** /**
 439:Drivers/STM32L0xx_HAL_Driver/Src/stm32l0xx_hal.c ****   * @brief  Returns the device identifier.
 440:Drivers/STM32L0xx_HAL_Driver/Src/stm32l0xx_hal.c ****   * @retval Device identifier
 441:Drivers/STM32L0xx_HAL_Driver/Src/stm32l0xx_hal.c ****   */
ARM GAS  /tmp/ccObnYkQ.s 			page 20


 442:Drivers/STM32L0xx_HAL_Driver/Src/stm32l0xx_hal.c **** uint32_t HAL_GetDEVID(void)
 443:Drivers/STM32L0xx_HAL_Driver/Src/stm32l0xx_hal.c **** {
 632              		.loc 1 443 1 is_stmt 1 view -0
 633              		.cfi_startproc
 634              		@ args = 0, pretend = 0, frame = 0
 635              		@ frame_needed = 0, uses_anonymous_args = 0
 636              		@ link register save eliminated.
 444:Drivers/STM32L0xx_HAL_Driver/Src/stm32l0xx_hal.c ****    return((DBGMCU->IDCODE) & IDCODE_DEVID_MASK);
 637              		.loc 1 444 4 view .LVU121
 638              		.loc 1 444 18 is_stmt 0 view .LVU122
 639 0000 024B     		ldr	r3, .L56
 640 0002 1868     		ldr	r0, [r3]
 641              		.loc 1 444 28 view .LVU123
 642 0004 0005     		lsls	r0, r0, #20
 643 0006 000D     		lsrs	r0, r0, #20
 445:Drivers/STM32L0xx_HAL_Driver/Src/stm32l0xx_hal.c **** }
 644              		.loc 1 445 1 view .LVU124
 645              		@ sp needed
 646 0008 7047     		bx	lr
 647              	.L57:
 648 000a C046     		.align	2
 649              	.L56:
 650 000c 00580140 		.word	1073829888
 651              		.cfi_endproc
 652              	.LFE55:
 654              		.section	.text.HAL_GetUIDw0,"ax",%progbits
 655              		.align	1
 656              		.global	HAL_GetUIDw0
 657              		.syntax unified
 658              		.code	16
 659              		.thumb_func
 661              	HAL_GetUIDw0:
 662              	.LFB56:
 446:Drivers/STM32L0xx_HAL_Driver/Src/stm32l0xx_hal.c **** 
 447:Drivers/STM32L0xx_HAL_Driver/Src/stm32l0xx_hal.c **** /**
 448:Drivers/STM32L0xx_HAL_Driver/Src/stm32l0xx_hal.c ****   * @brief  Returns the first word of the unique device identifier (UID based on 96 bits)
 449:Drivers/STM32L0xx_HAL_Driver/Src/stm32l0xx_hal.c ****   * @retval Device identifier
 450:Drivers/STM32L0xx_HAL_Driver/Src/stm32l0xx_hal.c ****   */
 451:Drivers/STM32L0xx_HAL_Driver/Src/stm32l0xx_hal.c **** uint32_t HAL_GetUIDw0(void)
 452:Drivers/STM32L0xx_HAL_Driver/Src/stm32l0xx_hal.c **** {
 663              		.loc 1 452 1 is_stmt 1 view -0
 664              		.cfi_startproc
 665              		@ args = 0, pretend = 0, frame = 0
 666              		@ frame_needed = 0, uses_anonymous_args = 0
 667              		@ link register save eliminated.
 453:Drivers/STM32L0xx_HAL_Driver/Src/stm32l0xx_hal.c ****   return(READ_REG(*((uint32_t *)UID_BASE)));
 668              		.loc 1 453 3 view .LVU126
 669              		.loc 1 453 10 is_stmt 0 view .LVU127
 670 0000 014B     		ldr	r3, .L59
 671              		.loc 1 453 10 discriminator 1 view .LVU128
 672 0002 1868     		ldr	r0, [r3]
 454:Drivers/STM32L0xx_HAL_Driver/Src/stm32l0xx_hal.c **** }
 673              		.loc 1 454 1 view .LVU129
 674              		@ sp needed
 675 0004 7047     		bx	lr
 676              	.L60:
 677 0006 C046     		.align	2
ARM GAS  /tmp/ccObnYkQ.s 			page 21


 678              	.L59:
 679 0008 5000F81F 		.word	536346704
 680              		.cfi_endproc
 681              	.LFE56:
 683              		.section	.text.HAL_GetUIDw1,"ax",%progbits
 684              		.align	1
 685              		.global	HAL_GetUIDw1
 686              		.syntax unified
 687              		.code	16
 688              		.thumb_func
 690              	HAL_GetUIDw1:
 691              	.LFB57:
 455:Drivers/STM32L0xx_HAL_Driver/Src/stm32l0xx_hal.c **** 
 456:Drivers/STM32L0xx_HAL_Driver/Src/stm32l0xx_hal.c **** /**
 457:Drivers/STM32L0xx_HAL_Driver/Src/stm32l0xx_hal.c ****   * @brief  Returns the second word of the unique device identifier (UID based on 96 bits)
 458:Drivers/STM32L0xx_HAL_Driver/Src/stm32l0xx_hal.c ****   * @retval Device identifier
 459:Drivers/STM32L0xx_HAL_Driver/Src/stm32l0xx_hal.c ****   */
 460:Drivers/STM32L0xx_HAL_Driver/Src/stm32l0xx_hal.c **** uint32_t HAL_GetUIDw1(void)
 461:Drivers/STM32L0xx_HAL_Driver/Src/stm32l0xx_hal.c **** {
 692              		.loc 1 461 1 is_stmt 1 view -0
 693              		.cfi_startproc
 694              		@ args = 0, pretend = 0, frame = 0
 695              		@ frame_needed = 0, uses_anonymous_args = 0
 696              		@ link register save eliminated.
 462:Drivers/STM32L0xx_HAL_Driver/Src/stm32l0xx_hal.c ****   return(READ_REG(*((uint32_t *)(UID_BASE + 0x04U))));
 697              		.loc 1 462 3 view .LVU131
 698              		.loc 1 462 10 is_stmt 0 view .LVU132
 699 0000 014B     		ldr	r3, .L62
 700              		.loc 1 462 10 discriminator 1 view .LVU133
 701 0002 1868     		ldr	r0, [r3]
 463:Drivers/STM32L0xx_HAL_Driver/Src/stm32l0xx_hal.c **** }
 702              		.loc 1 463 1 view .LVU134
 703              		@ sp needed
 704 0004 7047     		bx	lr
 705              	.L63:
 706 0006 C046     		.align	2
 707              	.L62:
 708 0008 5400F81F 		.word	536346708
 709              		.cfi_endproc
 710              	.LFE57:
 712              		.section	.text.HAL_GetUIDw2,"ax",%progbits
 713              		.align	1
 714              		.global	HAL_GetUIDw2
 715              		.syntax unified
 716              		.code	16
 717              		.thumb_func
 719              	HAL_GetUIDw2:
 720              	.LFB58:
 464:Drivers/STM32L0xx_HAL_Driver/Src/stm32l0xx_hal.c **** 
 465:Drivers/STM32L0xx_HAL_Driver/Src/stm32l0xx_hal.c **** /**
 466:Drivers/STM32L0xx_HAL_Driver/Src/stm32l0xx_hal.c ****   * @brief  Returns the third word of the unique device identifier (UID based on 96 bits)
 467:Drivers/STM32L0xx_HAL_Driver/Src/stm32l0xx_hal.c ****   * @retval Device identifier
 468:Drivers/STM32L0xx_HAL_Driver/Src/stm32l0xx_hal.c ****   */
 469:Drivers/STM32L0xx_HAL_Driver/Src/stm32l0xx_hal.c **** uint32_t HAL_GetUIDw2(void)
 470:Drivers/STM32L0xx_HAL_Driver/Src/stm32l0xx_hal.c **** {
 721              		.loc 1 470 1 is_stmt 1 view -0
 722              		.cfi_startproc
ARM GAS  /tmp/ccObnYkQ.s 			page 22


 723              		@ args = 0, pretend = 0, frame = 0
 724              		@ frame_needed = 0, uses_anonymous_args = 0
 725              		@ link register save eliminated.
 471:Drivers/STM32L0xx_HAL_Driver/Src/stm32l0xx_hal.c ****   return(READ_REG(*((uint32_t *)(UID_BASE + 0x14U))));
 726              		.loc 1 471 3 view .LVU136
 727              		.loc 1 471 10 is_stmt 0 view .LVU137
 728 0000 014B     		ldr	r3, .L65
 729              		.loc 1 471 10 discriminator 1 view .LVU138
 730 0002 1868     		ldr	r0, [r3]
 472:Drivers/STM32L0xx_HAL_Driver/Src/stm32l0xx_hal.c **** }
 731              		.loc 1 472 1 view .LVU139
 732              		@ sp needed
 733 0004 7047     		bx	lr
 734              	.L66:
 735 0006 C046     		.align	2
 736              	.L65:
 737 0008 6400F81F 		.word	536346724
 738              		.cfi_endproc
 739              	.LFE58:
 741              		.section	.text.HAL_DBGMCU_EnableDBGSleepMode,"ax",%progbits
 742              		.align	1
 743              		.global	HAL_DBGMCU_EnableDBGSleepMode
 744              		.syntax unified
 745              		.code	16
 746              		.thumb_func
 748              	HAL_DBGMCU_EnableDBGSleepMode:
 749              	.LFB59:
 473:Drivers/STM32L0xx_HAL_Driver/Src/stm32l0xx_hal.c **** 
 474:Drivers/STM32L0xx_HAL_Driver/Src/stm32l0xx_hal.c **** /**
 475:Drivers/STM32L0xx_HAL_Driver/Src/stm32l0xx_hal.c ****   * @}
 476:Drivers/STM32L0xx_HAL_Driver/Src/stm32l0xx_hal.c ****   */
 477:Drivers/STM32L0xx_HAL_Driver/Src/stm32l0xx_hal.c **** 
 478:Drivers/STM32L0xx_HAL_Driver/Src/stm32l0xx_hal.c **** /** @addtogroup HAL_Exported_Functions_Group2
 479:Drivers/STM32L0xx_HAL_Driver/Src/stm32l0xx_hal.c ****  *  @brief    HAL Debug functions
 480:Drivers/STM32L0xx_HAL_Driver/Src/stm32l0xx_hal.c ****  *
 481:Drivers/STM32L0xx_HAL_Driver/Src/stm32l0xx_hal.c **** @verbatim
 482:Drivers/STM32L0xx_HAL_Driver/Src/stm32l0xx_hal.c ****  ===============================================================================
 483:Drivers/STM32L0xx_HAL_Driver/Src/stm32l0xx_hal.c ****                       ##### HAL Debug functions #####
 484:Drivers/STM32L0xx_HAL_Driver/Src/stm32l0xx_hal.c ****  ===============================================================================
 485:Drivers/STM32L0xx_HAL_Driver/Src/stm32l0xx_hal.c ****     [..]  This section provides functions allowing to:
 486:Drivers/STM32L0xx_HAL_Driver/Src/stm32l0xx_hal.c ****       (+) Enable/Disable Debug module during SLEEP mode
 487:Drivers/STM32L0xx_HAL_Driver/Src/stm32l0xx_hal.c ****       (+) Enable/Disable Debug module during STOP mode
 488:Drivers/STM32L0xx_HAL_Driver/Src/stm32l0xx_hal.c ****       (+) Enable/Disable Debug module during STANDBY mode
 489:Drivers/STM32L0xx_HAL_Driver/Src/stm32l0xx_hal.c **** 
 490:Drivers/STM32L0xx_HAL_Driver/Src/stm32l0xx_hal.c **** @endverbatim
 491:Drivers/STM32L0xx_HAL_Driver/Src/stm32l0xx_hal.c ****   * @{
 492:Drivers/STM32L0xx_HAL_Driver/Src/stm32l0xx_hal.c ****   */
 493:Drivers/STM32L0xx_HAL_Driver/Src/stm32l0xx_hal.c **** 
 494:Drivers/STM32L0xx_HAL_Driver/Src/stm32l0xx_hal.c **** /**
 495:Drivers/STM32L0xx_HAL_Driver/Src/stm32l0xx_hal.c ****   * @brief  Enables the Debug Module during SLEEP mode
 496:Drivers/STM32L0xx_HAL_Driver/Src/stm32l0xx_hal.c ****   * @retval None
 497:Drivers/STM32L0xx_HAL_Driver/Src/stm32l0xx_hal.c ****   */
 498:Drivers/STM32L0xx_HAL_Driver/Src/stm32l0xx_hal.c **** void HAL_DBGMCU_EnableDBGSleepMode(void)
 499:Drivers/STM32L0xx_HAL_Driver/Src/stm32l0xx_hal.c **** {
 750              		.loc 1 499 1 is_stmt 1 view -0
 751              		.cfi_startproc
 752              		@ args = 0, pretend = 0, frame = 0
ARM GAS  /tmp/ccObnYkQ.s 			page 23


 753              		@ frame_needed = 0, uses_anonymous_args = 0
 754              		@ link register save eliminated.
 500:Drivers/STM32L0xx_HAL_Driver/Src/stm32l0xx_hal.c ****   SET_BIT(DBGMCU->CR, DBGMCU_CR_DBG_SLEEP);
 755              		.loc 1 500 3 view .LVU141
 756 0000 024A     		ldr	r2, .L68
 757 0002 5368     		ldr	r3, [r2, #4]
 758 0004 0121     		movs	r1, #1
 759 0006 0B43     		orrs	r3, r1
 760 0008 5360     		str	r3, [r2, #4]
 501:Drivers/STM32L0xx_HAL_Driver/Src/stm32l0xx_hal.c **** }
 761              		.loc 1 501 1 is_stmt 0 view .LVU142
 762              		@ sp needed
 763 000a 7047     		bx	lr
 764              	.L69:
 765              		.align	2
 766              	.L68:
 767 000c 00580140 		.word	1073829888
 768              		.cfi_endproc
 769              	.LFE59:
 771              		.section	.text.HAL_DBGMCU_DisableDBGSleepMode,"ax",%progbits
 772              		.align	1
 773              		.global	HAL_DBGMCU_DisableDBGSleepMode
 774              		.syntax unified
 775              		.code	16
 776              		.thumb_func
 778              	HAL_DBGMCU_DisableDBGSleepMode:
 779              	.LFB60:
 502:Drivers/STM32L0xx_HAL_Driver/Src/stm32l0xx_hal.c **** 
 503:Drivers/STM32L0xx_HAL_Driver/Src/stm32l0xx_hal.c **** /**
 504:Drivers/STM32L0xx_HAL_Driver/Src/stm32l0xx_hal.c ****   * @brief  Disables the Debug Module during SLEEP mode
 505:Drivers/STM32L0xx_HAL_Driver/Src/stm32l0xx_hal.c ****   * @retval None
 506:Drivers/STM32L0xx_HAL_Driver/Src/stm32l0xx_hal.c ****   */
 507:Drivers/STM32L0xx_HAL_Driver/Src/stm32l0xx_hal.c **** void HAL_DBGMCU_DisableDBGSleepMode(void)
 508:Drivers/STM32L0xx_HAL_Driver/Src/stm32l0xx_hal.c **** {
 780              		.loc 1 508 1 is_stmt 1 view -0
 781              		.cfi_startproc
 782              		@ args = 0, pretend = 0, frame = 0
 783              		@ frame_needed = 0, uses_anonymous_args = 0
 784              		@ link register save eliminated.
 509:Drivers/STM32L0xx_HAL_Driver/Src/stm32l0xx_hal.c ****   CLEAR_BIT(DBGMCU->CR, DBGMCU_CR_DBG_SLEEP);
 785              		.loc 1 509 3 view .LVU144
 786 0000 024A     		ldr	r2, .L71
 787 0002 5368     		ldr	r3, [r2, #4]
 788 0004 0121     		movs	r1, #1
 789 0006 8B43     		bics	r3, r1
 790 0008 5360     		str	r3, [r2, #4]
 510:Drivers/STM32L0xx_HAL_Driver/Src/stm32l0xx_hal.c **** }
 791              		.loc 1 510 1 is_stmt 0 view .LVU145
 792              		@ sp needed
 793 000a 7047     		bx	lr
 794              	.L72:
 795              		.align	2
 796              	.L71:
 797 000c 00580140 		.word	1073829888
 798              		.cfi_endproc
 799              	.LFE60:
 801              		.section	.text.HAL_DBGMCU_EnableDBGStopMode,"ax",%progbits
ARM GAS  /tmp/ccObnYkQ.s 			page 24


 802              		.align	1
 803              		.global	HAL_DBGMCU_EnableDBGStopMode
 804              		.syntax unified
 805              		.code	16
 806              		.thumb_func
 808              	HAL_DBGMCU_EnableDBGStopMode:
 809              	.LFB61:
 511:Drivers/STM32L0xx_HAL_Driver/Src/stm32l0xx_hal.c **** 
 512:Drivers/STM32L0xx_HAL_Driver/Src/stm32l0xx_hal.c **** /**
 513:Drivers/STM32L0xx_HAL_Driver/Src/stm32l0xx_hal.c ****   * @brief  Enables the Debug Module during STOP mode
 514:Drivers/STM32L0xx_HAL_Driver/Src/stm32l0xx_hal.c ****   * @retval None
 515:Drivers/STM32L0xx_HAL_Driver/Src/stm32l0xx_hal.c ****   */
 516:Drivers/STM32L0xx_HAL_Driver/Src/stm32l0xx_hal.c **** void HAL_DBGMCU_EnableDBGStopMode(void)
 517:Drivers/STM32L0xx_HAL_Driver/Src/stm32l0xx_hal.c **** {
 810              		.loc 1 517 1 is_stmt 1 view -0
 811              		.cfi_startproc
 812              		@ args = 0, pretend = 0, frame = 0
 813              		@ frame_needed = 0, uses_anonymous_args = 0
 814              		@ link register save eliminated.
 518:Drivers/STM32L0xx_HAL_Driver/Src/stm32l0xx_hal.c ****   SET_BIT(DBGMCU->CR, DBGMCU_CR_DBG_STOP);
 815              		.loc 1 518 3 view .LVU147
 816 0000 024A     		ldr	r2, .L74
 817 0002 5368     		ldr	r3, [r2, #4]
 818 0004 0221     		movs	r1, #2
 819 0006 0B43     		orrs	r3, r1
 820 0008 5360     		str	r3, [r2, #4]
 519:Drivers/STM32L0xx_HAL_Driver/Src/stm32l0xx_hal.c **** }
 821              		.loc 1 519 1 is_stmt 0 view .LVU148
 822              		@ sp needed
 823 000a 7047     		bx	lr
 824              	.L75:
 825              		.align	2
 826              	.L74:
 827 000c 00580140 		.word	1073829888
 828              		.cfi_endproc
 829              	.LFE61:
 831              		.section	.text.HAL_DBGMCU_DisableDBGStopMode,"ax",%progbits
 832              		.align	1
 833              		.global	HAL_DBGMCU_DisableDBGStopMode
 834              		.syntax unified
 835              		.code	16
 836              		.thumb_func
 838              	HAL_DBGMCU_DisableDBGStopMode:
 839              	.LFB62:
 520:Drivers/STM32L0xx_HAL_Driver/Src/stm32l0xx_hal.c **** 
 521:Drivers/STM32L0xx_HAL_Driver/Src/stm32l0xx_hal.c **** /**
 522:Drivers/STM32L0xx_HAL_Driver/Src/stm32l0xx_hal.c ****   * @brief  Disables the Debug Module during STOP mode
 523:Drivers/STM32L0xx_HAL_Driver/Src/stm32l0xx_hal.c ****   * @retval None
 524:Drivers/STM32L0xx_HAL_Driver/Src/stm32l0xx_hal.c ****   */
 525:Drivers/STM32L0xx_HAL_Driver/Src/stm32l0xx_hal.c **** void HAL_DBGMCU_DisableDBGStopMode(void)
 526:Drivers/STM32L0xx_HAL_Driver/Src/stm32l0xx_hal.c **** {
 840              		.loc 1 526 1 is_stmt 1 view -0
 841              		.cfi_startproc
 842              		@ args = 0, pretend = 0, frame = 0
 843              		@ frame_needed = 0, uses_anonymous_args = 0
 844              		@ link register save eliminated.
 527:Drivers/STM32L0xx_HAL_Driver/Src/stm32l0xx_hal.c ****   CLEAR_BIT(DBGMCU->CR, DBGMCU_CR_DBG_STOP);
ARM GAS  /tmp/ccObnYkQ.s 			page 25


 845              		.loc 1 527 3 view .LVU150
 846 0000 024A     		ldr	r2, .L77
 847 0002 5368     		ldr	r3, [r2, #4]
 848 0004 0221     		movs	r1, #2
 849 0006 8B43     		bics	r3, r1
 850 0008 5360     		str	r3, [r2, #4]
 528:Drivers/STM32L0xx_HAL_Driver/Src/stm32l0xx_hal.c **** }
 851              		.loc 1 528 1 is_stmt 0 view .LVU151
 852              		@ sp needed
 853 000a 7047     		bx	lr
 854              	.L78:
 855              		.align	2
 856              	.L77:
 857 000c 00580140 		.word	1073829888
 858              		.cfi_endproc
 859              	.LFE62:
 861              		.section	.text.HAL_DBGMCU_EnableDBGStandbyMode,"ax",%progbits
 862              		.align	1
 863              		.global	HAL_DBGMCU_EnableDBGStandbyMode
 864              		.syntax unified
 865              		.code	16
 866              		.thumb_func
 868              	HAL_DBGMCU_EnableDBGStandbyMode:
 869              	.LFB63:
 529:Drivers/STM32L0xx_HAL_Driver/Src/stm32l0xx_hal.c **** 
 530:Drivers/STM32L0xx_HAL_Driver/Src/stm32l0xx_hal.c **** /**
 531:Drivers/STM32L0xx_HAL_Driver/Src/stm32l0xx_hal.c ****   * @brief  Enables the Debug Module during STANDBY mode
 532:Drivers/STM32L0xx_HAL_Driver/Src/stm32l0xx_hal.c ****   * @retval None
 533:Drivers/STM32L0xx_HAL_Driver/Src/stm32l0xx_hal.c ****   */
 534:Drivers/STM32L0xx_HAL_Driver/Src/stm32l0xx_hal.c **** void HAL_DBGMCU_EnableDBGStandbyMode(void)
 535:Drivers/STM32L0xx_HAL_Driver/Src/stm32l0xx_hal.c **** {
 870              		.loc 1 535 1 is_stmt 1 view -0
 871              		.cfi_startproc
 872              		@ args = 0, pretend = 0, frame = 0
 873              		@ frame_needed = 0, uses_anonymous_args = 0
 874              		@ link register save eliminated.
 536:Drivers/STM32L0xx_HAL_Driver/Src/stm32l0xx_hal.c ****   SET_BIT(DBGMCU->CR, DBGMCU_CR_DBG_STANDBY);
 875              		.loc 1 536 3 view .LVU153
 876 0000 024A     		ldr	r2, .L80
 877 0002 5368     		ldr	r3, [r2, #4]
 878 0004 0421     		movs	r1, #4
 879 0006 0B43     		orrs	r3, r1
 880 0008 5360     		str	r3, [r2, #4]
 537:Drivers/STM32L0xx_HAL_Driver/Src/stm32l0xx_hal.c **** }
 881              		.loc 1 537 1 is_stmt 0 view .LVU154
 882              		@ sp needed
 883 000a 7047     		bx	lr
 884              	.L81:
 885              		.align	2
 886              	.L80:
 887 000c 00580140 		.word	1073829888
 888              		.cfi_endproc
 889              	.LFE63:
 891              		.section	.text.HAL_DBGMCU_DisableDBGStandbyMode,"ax",%progbits
 892              		.align	1
 893              		.global	HAL_DBGMCU_DisableDBGStandbyMode
 894              		.syntax unified
ARM GAS  /tmp/ccObnYkQ.s 			page 26


 895              		.code	16
 896              		.thumb_func
 898              	HAL_DBGMCU_DisableDBGStandbyMode:
 899              	.LFB64:
 538:Drivers/STM32L0xx_HAL_Driver/Src/stm32l0xx_hal.c **** 
 539:Drivers/STM32L0xx_HAL_Driver/Src/stm32l0xx_hal.c **** /**
 540:Drivers/STM32L0xx_HAL_Driver/Src/stm32l0xx_hal.c ****   * @brief  Disables the Debug Module during STANDBY mode
 541:Drivers/STM32L0xx_HAL_Driver/Src/stm32l0xx_hal.c ****   * @retval None
 542:Drivers/STM32L0xx_HAL_Driver/Src/stm32l0xx_hal.c ****   */
 543:Drivers/STM32L0xx_HAL_Driver/Src/stm32l0xx_hal.c **** void HAL_DBGMCU_DisableDBGStandbyMode(void)
 544:Drivers/STM32L0xx_HAL_Driver/Src/stm32l0xx_hal.c **** {
 900              		.loc 1 544 1 is_stmt 1 view -0
 901              		.cfi_startproc
 902              		@ args = 0, pretend = 0, frame = 0
 903              		@ frame_needed = 0, uses_anonymous_args = 0
 904              		@ link register save eliminated.
 545:Drivers/STM32L0xx_HAL_Driver/Src/stm32l0xx_hal.c ****   CLEAR_BIT(DBGMCU->CR, DBGMCU_CR_DBG_STANDBY);
 905              		.loc 1 545 3 view .LVU156
 906 0000 024A     		ldr	r2, .L83
 907 0002 5368     		ldr	r3, [r2, #4]
 908 0004 0421     		movs	r1, #4
 909 0006 8B43     		bics	r3, r1
 910 0008 5360     		str	r3, [r2, #4]
 546:Drivers/STM32L0xx_HAL_Driver/Src/stm32l0xx_hal.c **** }
 911              		.loc 1 546 1 is_stmt 0 view .LVU157
 912              		@ sp needed
 913 000a 7047     		bx	lr
 914              	.L84:
 915              		.align	2
 916              	.L83:
 917 000c 00580140 		.word	1073829888
 918              		.cfi_endproc
 919              	.LFE64:
 921              		.section	.text.HAL_DBGMCU_DBG_EnableLowPowerConfig,"ax",%progbits
 922              		.align	1
 923              		.global	HAL_DBGMCU_DBG_EnableLowPowerConfig
 924              		.syntax unified
 925              		.code	16
 926              		.thumb_func
 928              	HAL_DBGMCU_DBG_EnableLowPowerConfig:
 929              	.LVL27:
 930              	.LFB65:
 547:Drivers/STM32L0xx_HAL_Driver/Src/stm32l0xx_hal.c **** 
 548:Drivers/STM32L0xx_HAL_Driver/Src/stm32l0xx_hal.c **** /**
 549:Drivers/STM32L0xx_HAL_Driver/Src/stm32l0xx_hal.c ****   * @brief  Enable low power mode behavior when the MCU is in Debug mode.
 550:Drivers/STM32L0xx_HAL_Driver/Src/stm32l0xx_hal.c ****   * @param Periph: specifies the low power mode.
 551:Drivers/STM32L0xx_HAL_Driver/Src/stm32l0xx_hal.c ****   *   This parameter can be any combination of the following values:
 552:Drivers/STM32L0xx_HAL_Driver/Src/stm32l0xx_hal.c ****   *     @arg DBGMCU_SLEEP: Keep debugger connection during SLEEP mode
 553:Drivers/STM32L0xx_HAL_Driver/Src/stm32l0xx_hal.c ****   *     @arg DBGMCU_STOP: Keep debugger connection during STOP mode
 554:Drivers/STM32L0xx_HAL_Driver/Src/stm32l0xx_hal.c ****   *     @arg DBGMCU_STANDBY: Keep debugger connection during STANDBY mode
 555:Drivers/STM32L0xx_HAL_Driver/Src/stm32l0xx_hal.c ****   * @retval None
 556:Drivers/STM32L0xx_HAL_Driver/Src/stm32l0xx_hal.c ****   */
 557:Drivers/STM32L0xx_HAL_Driver/Src/stm32l0xx_hal.c **** void HAL_DBGMCU_DBG_EnableLowPowerConfig(uint32_t Periph)
 558:Drivers/STM32L0xx_HAL_Driver/Src/stm32l0xx_hal.c **** {
 931              		.loc 1 558 1 is_stmt 1 view -0
 932              		.cfi_startproc
 933              		@ args = 0, pretend = 0, frame = 0
ARM GAS  /tmp/ccObnYkQ.s 			page 27


 934              		@ frame_needed = 0, uses_anonymous_args = 0
 935              		@ link register save eliminated.
 559:Drivers/STM32L0xx_HAL_Driver/Src/stm32l0xx_hal.c ****   /* Check the parameters */
 560:Drivers/STM32L0xx_HAL_Driver/Src/stm32l0xx_hal.c ****   assert_param(IS_DBGMCU_PERIPH(Periph));
 936              		.loc 1 560 3 view .LVU159
 561:Drivers/STM32L0xx_HAL_Driver/Src/stm32l0xx_hal.c **** 
 562:Drivers/STM32L0xx_HAL_Driver/Src/stm32l0xx_hal.c ****   DBGMCU->CR |= Periph;
 937              		.loc 1 562 3 view .LVU160
 938              		.loc 1 562 9 is_stmt 0 view .LVU161
 939 0000 024A     		ldr	r2, .L86
 940 0002 5368     		ldr	r3, [r2, #4]
 941              		.loc 1 562 14 view .LVU162
 942 0004 0343     		orrs	r3, r0
 943 0006 5360     		str	r3, [r2, #4]
 563:Drivers/STM32L0xx_HAL_Driver/Src/stm32l0xx_hal.c **** 
 564:Drivers/STM32L0xx_HAL_Driver/Src/stm32l0xx_hal.c **** }
 944              		.loc 1 564 1 view .LVU163
 945              		@ sp needed
 946 0008 7047     		bx	lr
 947              	.L87:
 948 000a C046     		.align	2
 949              	.L86:
 950 000c 00580140 		.word	1073829888
 951              		.cfi_endproc
 952              	.LFE65:
 954              		.section	.text.HAL_DBGMCU_DBG_DisableLowPowerConfig,"ax",%progbits
 955              		.align	1
 956              		.global	HAL_DBGMCU_DBG_DisableLowPowerConfig
 957              		.syntax unified
 958              		.code	16
 959              		.thumb_func
 961              	HAL_DBGMCU_DBG_DisableLowPowerConfig:
 962              	.LVL28:
 963              	.LFB66:
 565:Drivers/STM32L0xx_HAL_Driver/Src/stm32l0xx_hal.c **** /**
 566:Drivers/STM32L0xx_HAL_Driver/Src/stm32l0xx_hal.c ****   * @brief  Disable low power mode behavior when the MCU is in Debug mode.
 567:Drivers/STM32L0xx_HAL_Driver/Src/stm32l0xx_hal.c ****   * @param Periph: specifies the low power mode.
 568:Drivers/STM32L0xx_HAL_Driver/Src/stm32l0xx_hal.c ****   *   This parameter can be any combination of the following values:
 569:Drivers/STM32L0xx_HAL_Driver/Src/stm32l0xx_hal.c ****   *     @arg DBGMCU_SLEEP: Keep debugger connection during SLEEP mode
 570:Drivers/STM32L0xx_HAL_Driver/Src/stm32l0xx_hal.c ****   *     @arg DBGMCU_STOP: Keep debugger connection during STOP mode
 571:Drivers/STM32L0xx_HAL_Driver/Src/stm32l0xx_hal.c ****   *     @arg DBGMCU_STANDBY: Keep debugger connection during STANDBY mode
 572:Drivers/STM32L0xx_HAL_Driver/Src/stm32l0xx_hal.c ****   * @retval None
 573:Drivers/STM32L0xx_HAL_Driver/Src/stm32l0xx_hal.c ****   */
 574:Drivers/STM32L0xx_HAL_Driver/Src/stm32l0xx_hal.c **** void HAL_DBGMCU_DBG_DisableLowPowerConfig(uint32_t Periph)
 575:Drivers/STM32L0xx_HAL_Driver/Src/stm32l0xx_hal.c **** {
 964              		.loc 1 575 1 is_stmt 1 view -0
 965              		.cfi_startproc
 966              		@ args = 0, pretend = 0, frame = 0
 967              		@ frame_needed = 0, uses_anonymous_args = 0
 968              		@ link register save eliminated.
 576:Drivers/STM32L0xx_HAL_Driver/Src/stm32l0xx_hal.c ****   /* Check the parameters */
 577:Drivers/STM32L0xx_HAL_Driver/Src/stm32l0xx_hal.c ****   assert_param(IS_DBGMCU_PERIPH(Periph));
 969              		.loc 1 577 3 view .LVU165
 578:Drivers/STM32L0xx_HAL_Driver/Src/stm32l0xx_hal.c ****   {
 579:Drivers/STM32L0xx_HAL_Driver/Src/stm32l0xx_hal.c ****     DBGMCU->CR &= ~Periph;
 970              		.loc 1 579 5 view .LVU166
 971              		.loc 1 579 11 is_stmt 0 view .LVU167
ARM GAS  /tmp/ccObnYkQ.s 			page 28


 972 0000 024A     		ldr	r2, .L89
 973 0002 5368     		ldr	r3, [r2, #4]
 974              		.loc 1 579 16 view .LVU168
 975 0004 8343     		bics	r3, r0
 976 0006 5360     		str	r3, [r2, #4]
 580:Drivers/STM32L0xx_HAL_Driver/Src/stm32l0xx_hal.c ****   }
 581:Drivers/STM32L0xx_HAL_Driver/Src/stm32l0xx_hal.c **** }
 977              		.loc 1 581 1 view .LVU169
 978              		@ sp needed
 979 0008 7047     		bx	lr
 980              	.L90:
 981 000a C046     		.align	2
 982              	.L89:
 983 000c 00580140 		.word	1073829888
 984              		.cfi_endproc
 985              	.LFE66:
 987              		.section	.text.HAL_SYSCFG_GetBootMode,"ax",%progbits
 988              		.align	1
 989              		.global	HAL_SYSCFG_GetBootMode
 990              		.syntax unified
 991              		.code	16
 992              		.thumb_func
 994              	HAL_SYSCFG_GetBootMode:
 995              	.LFB67:
 582:Drivers/STM32L0xx_HAL_Driver/Src/stm32l0xx_hal.c **** 
 583:Drivers/STM32L0xx_HAL_Driver/Src/stm32l0xx_hal.c **** /**
 584:Drivers/STM32L0xx_HAL_Driver/Src/stm32l0xx_hal.c ****   * @}
 585:Drivers/STM32L0xx_HAL_Driver/Src/stm32l0xx_hal.c ****   */
 586:Drivers/STM32L0xx_HAL_Driver/Src/stm32l0xx_hal.c **** 
 587:Drivers/STM32L0xx_HAL_Driver/Src/stm32l0xx_hal.c **** /** @addtogroup HAL_Exported_Functions_Group3
 588:Drivers/STM32L0xx_HAL_Driver/Src/stm32l0xx_hal.c ****  *  @brief    HAL SYSCFG configuration functions
 589:Drivers/STM32L0xx_HAL_Driver/Src/stm32l0xx_hal.c ****  *
 590:Drivers/STM32L0xx_HAL_Driver/Src/stm32l0xx_hal.c **** @verbatim
 591:Drivers/STM32L0xx_HAL_Driver/Src/stm32l0xx_hal.c ****  ===============================================================================
 592:Drivers/STM32L0xx_HAL_Driver/Src/stm32l0xx_hal.c ****                       ##### HAL SYSCFG configuration functions #####
 593:Drivers/STM32L0xx_HAL_Driver/Src/stm32l0xx_hal.c ****  ===============================================================================
 594:Drivers/STM32L0xx_HAL_Driver/Src/stm32l0xx_hal.c ****     [..]  This section provides functions allowing to:
 595:Drivers/STM32L0xx_HAL_Driver/Src/stm32l0xx_hal.c ****       (+) Return the boot mode
 596:Drivers/STM32L0xx_HAL_Driver/Src/stm32l0xx_hal.c ****       (+) Select the output of internal reference voltage (VREFINT)
 597:Drivers/STM32L0xx_HAL_Driver/Src/stm32l0xx_hal.c ****       (+) Lock/Unlock the SYSCFG VREF register values
 598:Drivers/STM32L0xx_HAL_Driver/Src/stm32l0xx_hal.c **** 
 599:Drivers/STM32L0xx_HAL_Driver/Src/stm32l0xx_hal.c **** @endverbatim
 600:Drivers/STM32L0xx_HAL_Driver/Src/stm32l0xx_hal.c ****   * @{
 601:Drivers/STM32L0xx_HAL_Driver/Src/stm32l0xx_hal.c ****   */
 602:Drivers/STM32L0xx_HAL_Driver/Src/stm32l0xx_hal.c **** 
 603:Drivers/STM32L0xx_HAL_Driver/Src/stm32l0xx_hal.c **** /**
 604:Drivers/STM32L0xx_HAL_Driver/Src/stm32l0xx_hal.c ****   * @brief  Returns the boot mode as configured by user.
 605:Drivers/STM32L0xx_HAL_Driver/Src/stm32l0xx_hal.c ****   * @retval The boot mode as configured by user. The returned value can be one
 606:Drivers/STM32L0xx_HAL_Driver/Src/stm32l0xx_hal.c ****   *         of the following values:
 607:Drivers/STM32L0xx_HAL_Driver/Src/stm32l0xx_hal.c ****   *              - 0x00000000 : Boot is configured in Main Flash memory
 608:Drivers/STM32L0xx_HAL_Driver/Src/stm32l0xx_hal.c ****   *              - 0x00000100 : Boot is configured in System Flash memory
 609:Drivers/STM32L0xx_HAL_Driver/Src/stm32l0xx_hal.c ****   *              - 0x00000300 : Boot is configured in Embedded SRAM memory
 610:Drivers/STM32L0xx_HAL_Driver/Src/stm32l0xx_hal.c ****   */
 611:Drivers/STM32L0xx_HAL_Driver/Src/stm32l0xx_hal.c **** uint32_t  HAL_SYSCFG_GetBootMode(void)
 612:Drivers/STM32L0xx_HAL_Driver/Src/stm32l0xx_hal.c **** {
 996              		.loc 1 612 1 is_stmt 1 view -0
 997              		.cfi_startproc
ARM GAS  /tmp/ccObnYkQ.s 			page 29


 998              		@ args = 0, pretend = 0, frame = 0
 999              		@ frame_needed = 0, uses_anonymous_args = 0
 1000              		@ link register save eliminated.
 613:Drivers/STM32L0xx_HAL_Driver/Src/stm32l0xx_hal.c ****   return (SYSCFG->CFGR1 & SYSCFG_CFGR1_BOOT_MODE);
 1001              		.loc 1 613 3 view .LVU171
 1002              		.loc 1 613 17 is_stmt 0 view .LVU172
 1003 0000 024B     		ldr	r3, .L92
 1004 0002 1868     		ldr	r0, [r3]
 1005              		.loc 1 613 25 view .LVU173
 1006 0004 C023     		movs	r3, #192
 1007 0006 9B00     		lsls	r3, r3, #2
 1008 0008 1840     		ands	r0, r3
 614:Drivers/STM32L0xx_HAL_Driver/Src/stm32l0xx_hal.c **** }
 1009              		.loc 1 614 1 view .LVU174
 1010              		@ sp needed
 1011 000a 7047     		bx	lr
 1012              	.L93:
 1013              		.align	2
 1014              	.L92:
 1015 000c 00000140 		.word	1073807360
 1016              		.cfi_endproc
 1017              	.LFE67:
 1019              		.section	.text.HAL_SYSCFG_VREFINT_OutputSelect,"ax",%progbits
 1020              		.align	1
 1021              		.global	HAL_SYSCFG_VREFINT_OutputSelect
 1022              		.syntax unified
 1023              		.code	16
 1024              		.thumb_func
 1026              	HAL_SYSCFG_VREFINT_OutputSelect:
 1027              	.LVL29:
 1028              	.LFB68:
 615:Drivers/STM32L0xx_HAL_Driver/Src/stm32l0xx_hal.c **** 
 616:Drivers/STM32L0xx_HAL_Driver/Src/stm32l0xx_hal.c **** /**
 617:Drivers/STM32L0xx_HAL_Driver/Src/stm32l0xx_hal.c ****   * @brief Selects the output of internal reference voltage (VREFINT).
 618:Drivers/STM32L0xx_HAL_Driver/Src/stm32l0xx_hal.c ****   *        The VREFINT output can be routed to(PB0) or
 619:Drivers/STM32L0xx_HAL_Driver/Src/stm32l0xx_hal.c ****   *        (PB1) or both.
 620:Drivers/STM32L0xx_HAL_Driver/Src/stm32l0xx_hal.c ****   * @param SYSCFG_Vrefint_OUTPUT: new state of the Vrefint output.
 621:Drivers/STM32L0xx_HAL_Driver/Src/stm32l0xx_hal.c ****   *        This parameter can be one of the following values:
 622:Drivers/STM32L0xx_HAL_Driver/Src/stm32l0xx_hal.c ****   *     @arg SYSCFG_VREFINT_OUT_NONE
 623:Drivers/STM32L0xx_HAL_Driver/Src/stm32l0xx_hal.c ****   *     @arg SYSCFG_VREFINT_OUT_PB0
 624:Drivers/STM32L0xx_HAL_Driver/Src/stm32l0xx_hal.c ****   *     @arg SYSCFG_VREFINT_OUT_PB1
 625:Drivers/STM32L0xx_HAL_Driver/Src/stm32l0xx_hal.c ****   *     @arg SYSCFG_VREFINT_OUT_PB0_PB1
 626:Drivers/STM32L0xx_HAL_Driver/Src/stm32l0xx_hal.c ****   * @retval None
 627:Drivers/STM32L0xx_HAL_Driver/Src/stm32l0xx_hal.c ****   */
 628:Drivers/STM32L0xx_HAL_Driver/Src/stm32l0xx_hal.c **** void HAL_SYSCFG_VREFINT_OutputSelect(uint32_t SYSCFG_Vrefint_OUTPUT)
 629:Drivers/STM32L0xx_HAL_Driver/Src/stm32l0xx_hal.c **** {
 1029              		.loc 1 629 1 is_stmt 1 view -0
 1030              		.cfi_startproc
 1031              		@ args = 0, pretend = 0, frame = 0
 1032              		@ frame_needed = 0, uses_anonymous_args = 0
 1033              		@ link register save eliminated.
 630:Drivers/STM32L0xx_HAL_Driver/Src/stm32l0xx_hal.c ****   /* Check the parameters */
 631:Drivers/STM32L0xx_HAL_Driver/Src/stm32l0xx_hal.c ****   assert_param(IS_SYSCFG_VREFINT_OUT_SELECT(SYSCFG_Vrefint_OUTPUT));
 1034              		.loc 1 631 3 view .LVU176
 632:Drivers/STM32L0xx_HAL_Driver/Src/stm32l0xx_hal.c **** 
 633:Drivers/STM32L0xx_HAL_Driver/Src/stm32l0xx_hal.c ****   /* Set the output Vrefint pin */
 634:Drivers/STM32L0xx_HAL_Driver/Src/stm32l0xx_hal.c ****   SYSCFG->CFGR3 &= ~(SYSCFG_CFGR3_VREF_OUT);
ARM GAS  /tmp/ccObnYkQ.s 			page 30


 1035              		.loc 1 634 3 view .LVU177
 1036              		.loc 1 634 9 is_stmt 0 view .LVU178
 1037 0000 044B     		ldr	r3, .L95
 1038 0002 1A6A     		ldr	r2, [r3, #32]
 1039              		.loc 1 634 17 view .LVU179
 1040 0004 3021     		movs	r1, #48
 1041 0006 8A43     		bics	r2, r1
 1042 0008 1A62     		str	r2, [r3, #32]
 635:Drivers/STM32L0xx_HAL_Driver/Src/stm32l0xx_hal.c ****   SYSCFG->CFGR3 |= (uint32_t)(SYSCFG_Vrefint_OUTPUT);
 1043              		.loc 1 635 3 is_stmt 1 view .LVU180
 1044              		.loc 1 635 9 is_stmt 0 view .LVU181
 1045 000a 1A6A     		ldr	r2, [r3, #32]
 1046              		.loc 1 635 17 view .LVU182
 1047 000c 0243     		orrs	r2, r0
 1048 000e 1A62     		str	r2, [r3, #32]
 636:Drivers/STM32L0xx_HAL_Driver/Src/stm32l0xx_hal.c **** }
 1049              		.loc 1 636 1 view .LVU183
 1050              		@ sp needed
 1051 0010 7047     		bx	lr
 1052              	.L96:
 1053 0012 C046     		.align	2
 1054              	.L95:
 1055 0014 00000140 		.word	1073807360
 1056              		.cfi_endproc
 1057              	.LFE68:
 1059              		.section	.text.HAL_SYSCFG_Enable_Lock_VREFINT,"ax",%progbits
 1060              		.align	1
 1061              		.global	HAL_SYSCFG_Enable_Lock_VREFINT
 1062              		.syntax unified
 1063              		.code	16
 1064              		.thumb_func
 1066              	HAL_SYSCFG_Enable_Lock_VREFINT:
 1067              	.LFB69:
 637:Drivers/STM32L0xx_HAL_Driver/Src/stm32l0xx_hal.c **** 
 638:Drivers/STM32L0xx_HAL_Driver/Src/stm32l0xx_hal.c **** /**
 639:Drivers/STM32L0xx_HAL_Driver/Src/stm32l0xx_hal.c ****   * @brief  Lock the SYSCFG VREF register values
 640:Drivers/STM32L0xx_HAL_Driver/Src/stm32l0xx_hal.c ****   * @retval None
 641:Drivers/STM32L0xx_HAL_Driver/Src/stm32l0xx_hal.c ****   */
 642:Drivers/STM32L0xx_HAL_Driver/Src/stm32l0xx_hal.c **** void HAL_SYSCFG_Enable_Lock_VREFINT(void)
 643:Drivers/STM32L0xx_HAL_Driver/Src/stm32l0xx_hal.c **** {
 1068              		.loc 1 643 1 is_stmt 1 view -0
 1069              		.cfi_startproc
 1070              		@ args = 0, pretend = 0, frame = 0
 1071              		@ frame_needed = 0, uses_anonymous_args = 0
 1072              		@ link register save eliminated.
 644:Drivers/STM32L0xx_HAL_Driver/Src/stm32l0xx_hal.c ****     /* Enable the LOCK by setting REF_LOCK bit in the CFGR3 register */
 645:Drivers/STM32L0xx_HAL_Driver/Src/stm32l0xx_hal.c ****     SET_BIT(SYSCFG->CFGR3, SYSCFG_CFGR3_REF_LOCK);
 1073              		.loc 1 645 5 view .LVU185
 1074 0000 034A     		ldr	r2, .L98
 1075 0002 116A     		ldr	r1, [r2, #32]
 1076 0004 8023     		movs	r3, #128
 1077 0006 1B06     		lsls	r3, r3, #24
 1078 0008 0B43     		orrs	r3, r1
 1079 000a 1362     		str	r3, [r2, #32]
 646:Drivers/STM32L0xx_HAL_Driver/Src/stm32l0xx_hal.c **** }
 1080              		.loc 1 646 1 is_stmt 0 view .LVU186
 1081              		@ sp needed
ARM GAS  /tmp/ccObnYkQ.s 			page 31


 1082 000c 7047     		bx	lr
 1083              	.L99:
 1084 000e C046     		.align	2
 1085              	.L98:
 1086 0010 00000140 		.word	1073807360
 1087              		.cfi_endproc
 1088              	.LFE69:
 1090              		.section	.text.HAL_SYSCFG_Disable_Lock_VREFINT,"ax",%progbits
 1091              		.align	1
 1092              		.global	HAL_SYSCFG_Disable_Lock_VREFINT
 1093              		.syntax unified
 1094              		.code	16
 1095              		.thumb_func
 1097              	HAL_SYSCFG_Disable_Lock_VREFINT:
 1098              	.LFB70:
 647:Drivers/STM32L0xx_HAL_Driver/Src/stm32l0xx_hal.c **** 
 648:Drivers/STM32L0xx_HAL_Driver/Src/stm32l0xx_hal.c **** /**
 649:Drivers/STM32L0xx_HAL_Driver/Src/stm32l0xx_hal.c ****   * @brief  Unlock the overall SYSCFG VREF register values
 650:Drivers/STM32L0xx_HAL_Driver/Src/stm32l0xx_hal.c ****   * @retval None
 651:Drivers/STM32L0xx_HAL_Driver/Src/stm32l0xx_hal.c ****   */
 652:Drivers/STM32L0xx_HAL_Driver/Src/stm32l0xx_hal.c **** void HAL_SYSCFG_Disable_Lock_VREFINT(void)
 653:Drivers/STM32L0xx_HAL_Driver/Src/stm32l0xx_hal.c **** {
 1099              		.loc 1 653 1 is_stmt 1 view -0
 1100              		.cfi_startproc
 1101              		@ args = 0, pretend = 0, frame = 0
 1102              		@ frame_needed = 0, uses_anonymous_args = 0
 1103              		@ link register save eliminated.
 654:Drivers/STM32L0xx_HAL_Driver/Src/stm32l0xx_hal.c ****     /* Disable the LOCK by setting REF_LOCK bit in the CFGR3 register */
 655:Drivers/STM32L0xx_HAL_Driver/Src/stm32l0xx_hal.c ****     CLEAR_BIT(SYSCFG->CFGR3, SYSCFG_CFGR3_REF_LOCK);
 1104              		.loc 1 655 5 view .LVU188
 1105 0000 024A     		ldr	r2, .L101
 1106 0002 136A     		ldr	r3, [r2, #32]
 1107 0004 5B00     		lsls	r3, r3, #1
 1108 0006 5B08     		lsrs	r3, r3, #1
 1109 0008 1362     		str	r3, [r2, #32]
 656:Drivers/STM32L0xx_HAL_Driver/Src/stm32l0xx_hal.c **** }
 1110              		.loc 1 656 1 is_stmt 0 view .LVU189
 1111              		@ sp needed
 1112 000a 7047     		bx	lr
 1113              	.L102:
 1114              		.align	2
 1115              	.L101:
 1116 000c 00000140 		.word	1073807360
 1117              		.cfi_endproc
 1118              	.LFE70:
 1120              		.global	uwTickFreq
 1121              		.section	.data.uwTickFreq,"aw"
 1124              	uwTickFreq:
 1125 0000 01       		.byte	1
 1126              		.global	uwTickPrio
 1127              		.section	.data.uwTickPrio,"aw"
 1128              		.align	2
 1131              	uwTickPrio:
 1132 0000 04000000 		.word	4
 1133              		.global	uwTick
 1134              		.section	.bss.uwTick,"aw",%nobits
 1135              		.align	2
ARM GAS  /tmp/ccObnYkQ.s 			page 32


 1138              	uwTick:
 1139 0000 00000000 		.space	4
 1140              		.text
 1141              	.Letext0:
 1142              		.file 2 "Drivers/CMSIS/Device/ST/STM32L0xx/Include/stm32l031xx.h"
 1143              		.file 3 "/usr/arm-none-eabi/include/machine/_default_types.h"
 1144              		.file 4 "/usr/arm-none-eabi/include/sys/_stdint.h"
 1145              		.file 5 "Drivers/CMSIS/Include/core_cm0plus.h"
 1146              		.file 6 "Drivers/STM32L0xx_HAL_Driver/Inc/stm32l0xx_hal_def.h"
 1147              		.file 7 "Drivers/STM32L0xx_HAL_Driver/Inc/stm32l0xx_hal.h"
 1148              		.file 8 "Drivers/CMSIS/Device/ST/STM32L0xx/Include/system_stm32l0xx.h"
 1149              		.file 9 "Drivers/STM32L0xx_HAL_Driver/Inc/stm32l0xx_hal_cortex.h"
ARM GAS  /tmp/ccObnYkQ.s 			page 33

