ARM GAS  /tmp/ccJTnjvt.s 			page 1


   1              		.cpu cortex-m0plus
   2              		.arch armv6s-m
   3              		.fpu softvfp
   4              		.eabi_attribute 20, 1
   5              		.eabi_attribute 21, 1
   6              		.eabi_attribute 23, 3
   7              		.eabi_attribute 24, 1
   8              		.eabi_attribute 25, 1
   9              		.eabi_attribute 26, 1
  10              		.eabi_attribute 30, 1
  11              		.eabi_attribute 34, 0
  12              		.eabi_attribute 18, 4
  13              		.file	"stm32l0xx_hal_rcc_ex.c"
  14              		.text
  15              	.Ltext0:
  16              		.cfi_sections	.debug_frame
  17              		.file 1 "Drivers/STM32L0xx_HAL_Driver/Src/stm32l0xx_hal_rcc_ex.c"
  18              		.section	.text.HAL_RCCEx_PeriphCLKConfig,"ax",%progbits
  19              		.align	1
  20              		.global	HAL_RCCEx_PeriphCLKConfig
  21              		.syntax unified
  22              		.code	16
  23              		.thumb_func
  25              	HAL_RCCEx_PeriphCLKConfig:
  26              	.LVL0:
  27              	.LFB40:
   1:Drivers/STM32L0xx_HAL_Driver/Src/stm32l0xx_hal_rcc_ex.c **** /**
   2:Drivers/STM32L0xx_HAL_Driver/Src/stm32l0xx_hal_rcc_ex.c ****   ******************************************************************************
   3:Drivers/STM32L0xx_HAL_Driver/Src/stm32l0xx_hal_rcc_ex.c ****   * @file    stm32l0xx_hal_rcc_ex.c
   4:Drivers/STM32L0xx_HAL_Driver/Src/stm32l0xx_hal_rcc_ex.c ****   * @author  MCD Application Team
   5:Drivers/STM32L0xx_HAL_Driver/Src/stm32l0xx_hal_rcc_ex.c ****   * @brief   Extended RCC HAL module driver.
   6:Drivers/STM32L0xx_HAL_Driver/Src/stm32l0xx_hal_rcc_ex.c ****   *          This file provides firmware functions to manage the following
   7:Drivers/STM32L0xx_HAL_Driver/Src/stm32l0xx_hal_rcc_ex.c ****   *          functionalities RCC extension peripheral:
   8:Drivers/STM32L0xx_HAL_Driver/Src/stm32l0xx_hal_rcc_ex.c ****   *           + Extended Peripheral Control functions
   9:Drivers/STM32L0xx_HAL_Driver/Src/stm32l0xx_hal_rcc_ex.c ****   *           + Extended Clock Recovery System Control functions
  10:Drivers/STM32L0xx_HAL_Driver/Src/stm32l0xx_hal_rcc_ex.c ****   *
  11:Drivers/STM32L0xx_HAL_Driver/Src/stm32l0xx_hal_rcc_ex.c ****   ******************************************************************************
  12:Drivers/STM32L0xx_HAL_Driver/Src/stm32l0xx_hal_rcc_ex.c ****   * @attention
  13:Drivers/STM32L0xx_HAL_Driver/Src/stm32l0xx_hal_rcc_ex.c ****   *
  14:Drivers/STM32L0xx_HAL_Driver/Src/stm32l0xx_hal_rcc_ex.c ****   * Copyright (c) 2016 STMicroelectronics.
  15:Drivers/STM32L0xx_HAL_Driver/Src/stm32l0xx_hal_rcc_ex.c ****   * All rights reserved.
  16:Drivers/STM32L0xx_HAL_Driver/Src/stm32l0xx_hal_rcc_ex.c ****   *
  17:Drivers/STM32L0xx_HAL_Driver/Src/stm32l0xx_hal_rcc_ex.c ****   * This software is licensed under terms that can be found in the LICENSE file in
  18:Drivers/STM32L0xx_HAL_Driver/Src/stm32l0xx_hal_rcc_ex.c ****   * the root directory of this software component.
  19:Drivers/STM32L0xx_HAL_Driver/Src/stm32l0xx_hal_rcc_ex.c ****   * If no LICENSE file comes with this software, it is provided AS-IS.
  20:Drivers/STM32L0xx_HAL_Driver/Src/stm32l0xx_hal_rcc_ex.c ****   ******************************************************************************
  21:Drivers/STM32L0xx_HAL_Driver/Src/stm32l0xx_hal_rcc_ex.c ****   */
  22:Drivers/STM32L0xx_HAL_Driver/Src/stm32l0xx_hal_rcc_ex.c **** 
  23:Drivers/STM32L0xx_HAL_Driver/Src/stm32l0xx_hal_rcc_ex.c **** /* Includes ------------------------------------------------------------------*/
  24:Drivers/STM32L0xx_HAL_Driver/Src/stm32l0xx_hal_rcc_ex.c **** #include "stm32l0xx_hal.h"
  25:Drivers/STM32L0xx_HAL_Driver/Src/stm32l0xx_hal_rcc_ex.c **** 
  26:Drivers/STM32L0xx_HAL_Driver/Src/stm32l0xx_hal_rcc_ex.c **** /** @addtogroup STM32L0xx_HAL_Driver
  27:Drivers/STM32L0xx_HAL_Driver/Src/stm32l0xx_hal_rcc_ex.c ****   * @{
  28:Drivers/STM32L0xx_HAL_Driver/Src/stm32l0xx_hal_rcc_ex.c ****   */
  29:Drivers/STM32L0xx_HAL_Driver/Src/stm32l0xx_hal_rcc_ex.c **** 
  30:Drivers/STM32L0xx_HAL_Driver/Src/stm32l0xx_hal_rcc_ex.c **** #ifdef HAL_RCC_MODULE_ENABLED
  31:Drivers/STM32L0xx_HAL_Driver/Src/stm32l0xx_hal_rcc_ex.c **** 
ARM GAS  /tmp/ccJTnjvt.s 			page 2


  32:Drivers/STM32L0xx_HAL_Driver/Src/stm32l0xx_hal_rcc_ex.c **** /** @defgroup RCCEx RCCEx
  33:Drivers/STM32L0xx_HAL_Driver/Src/stm32l0xx_hal_rcc_ex.c ****   * @brief RCC Extension HAL module driver
  34:Drivers/STM32L0xx_HAL_Driver/Src/stm32l0xx_hal_rcc_ex.c ****   * @{
  35:Drivers/STM32L0xx_HAL_Driver/Src/stm32l0xx_hal_rcc_ex.c ****   */
  36:Drivers/STM32L0xx_HAL_Driver/Src/stm32l0xx_hal_rcc_ex.c **** 
  37:Drivers/STM32L0xx_HAL_Driver/Src/stm32l0xx_hal_rcc_ex.c **** /* Private typedef -----------------------------------------------------------*/
  38:Drivers/STM32L0xx_HAL_Driver/Src/stm32l0xx_hal_rcc_ex.c **** /* Private define ------------------------------------------------------------*/
  39:Drivers/STM32L0xx_HAL_Driver/Src/stm32l0xx_hal_rcc_ex.c **** /** @defgroup RCCEx_Private_Constants RCCEx Private Constants
  40:Drivers/STM32L0xx_HAL_Driver/Src/stm32l0xx_hal_rcc_ex.c ****   * @{
  41:Drivers/STM32L0xx_HAL_Driver/Src/stm32l0xx_hal_rcc_ex.c ****   */
  42:Drivers/STM32L0xx_HAL_Driver/Src/stm32l0xx_hal_rcc_ex.c **** #if defined(USB)
  43:Drivers/STM32L0xx_HAL_Driver/Src/stm32l0xx_hal_rcc_ex.c **** extern const uint8_t PLLMulTable[];
  44:Drivers/STM32L0xx_HAL_Driver/Src/stm32l0xx_hal_rcc_ex.c **** #endif /* USB */
  45:Drivers/STM32L0xx_HAL_Driver/Src/stm32l0xx_hal_rcc_ex.c **** /**
  46:Drivers/STM32L0xx_HAL_Driver/Src/stm32l0xx_hal_rcc_ex.c ****   * @}
  47:Drivers/STM32L0xx_HAL_Driver/Src/stm32l0xx_hal_rcc_ex.c ****   */
  48:Drivers/STM32L0xx_HAL_Driver/Src/stm32l0xx_hal_rcc_ex.c **** 
  49:Drivers/STM32L0xx_HAL_Driver/Src/stm32l0xx_hal_rcc_ex.c **** /* Private macro -------------------------------------------------------------*/
  50:Drivers/STM32L0xx_HAL_Driver/Src/stm32l0xx_hal_rcc_ex.c **** /** @defgroup RCCEx_Private_Macros RCCEx Private Macros
  51:Drivers/STM32L0xx_HAL_Driver/Src/stm32l0xx_hal_rcc_ex.c ****   * @{
  52:Drivers/STM32L0xx_HAL_Driver/Src/stm32l0xx_hal_rcc_ex.c ****   */
  53:Drivers/STM32L0xx_HAL_Driver/Src/stm32l0xx_hal_rcc_ex.c **** /**
  54:Drivers/STM32L0xx_HAL_Driver/Src/stm32l0xx_hal_rcc_ex.c ****   * @}
  55:Drivers/STM32L0xx_HAL_Driver/Src/stm32l0xx_hal_rcc_ex.c ****   */
  56:Drivers/STM32L0xx_HAL_Driver/Src/stm32l0xx_hal_rcc_ex.c **** 
  57:Drivers/STM32L0xx_HAL_Driver/Src/stm32l0xx_hal_rcc_ex.c **** /* Private variables ---------------------------------------------------------*/
  58:Drivers/STM32L0xx_HAL_Driver/Src/stm32l0xx_hal_rcc_ex.c **** /* Private function prototypes -----------------------------------------------*/
  59:Drivers/STM32L0xx_HAL_Driver/Src/stm32l0xx_hal_rcc_ex.c **** /* Private functions ---------------------------------------------------------*/
  60:Drivers/STM32L0xx_HAL_Driver/Src/stm32l0xx_hal_rcc_ex.c **** 
  61:Drivers/STM32L0xx_HAL_Driver/Src/stm32l0xx_hal_rcc_ex.c **** /** @defgroup RCCEx_Exported_Functions RCCEx Exported Functions
  62:Drivers/STM32L0xx_HAL_Driver/Src/stm32l0xx_hal_rcc_ex.c ****   * @{
  63:Drivers/STM32L0xx_HAL_Driver/Src/stm32l0xx_hal_rcc_ex.c ****   */
  64:Drivers/STM32L0xx_HAL_Driver/Src/stm32l0xx_hal_rcc_ex.c **** 
  65:Drivers/STM32L0xx_HAL_Driver/Src/stm32l0xx_hal_rcc_ex.c **** /** @defgroup RCCEx_Exported_Functions_Group1 Extended Peripheral Control functions
  66:Drivers/STM32L0xx_HAL_Driver/Src/stm32l0xx_hal_rcc_ex.c ****  *  @brief  Extended Peripheral Control functions
  67:Drivers/STM32L0xx_HAL_Driver/Src/stm32l0xx_hal_rcc_ex.c ****  *
  68:Drivers/STM32L0xx_HAL_Driver/Src/stm32l0xx_hal_rcc_ex.c **** @verbatim
  69:Drivers/STM32L0xx_HAL_Driver/Src/stm32l0xx_hal_rcc_ex.c ****  ===============================================================================
  70:Drivers/STM32L0xx_HAL_Driver/Src/stm32l0xx_hal_rcc_ex.c ****                 ##### Extended Peripheral Control functions  #####
  71:Drivers/STM32L0xx_HAL_Driver/Src/stm32l0xx_hal_rcc_ex.c ****  ===============================================================================
  72:Drivers/STM32L0xx_HAL_Driver/Src/stm32l0xx_hal_rcc_ex.c ****     [..]
  73:Drivers/STM32L0xx_HAL_Driver/Src/stm32l0xx_hal_rcc_ex.c ****     This subsection provides a set of functions allowing to control the RCC Clocks
  74:Drivers/STM32L0xx_HAL_Driver/Src/stm32l0xx_hal_rcc_ex.c ****     frequencies.
  75:Drivers/STM32L0xx_HAL_Driver/Src/stm32l0xx_hal_rcc_ex.c ****     [..]
  76:Drivers/STM32L0xx_HAL_Driver/Src/stm32l0xx_hal_rcc_ex.c ****     (@) Important note: Care must be taken when HAL_RCCEx_PeriphCLKConfig() is used to
  77:Drivers/STM32L0xx_HAL_Driver/Src/stm32l0xx_hal_rcc_ex.c ****         select the RTC clock source; in this case the Backup domain will be reset in
  78:Drivers/STM32L0xx_HAL_Driver/Src/stm32l0xx_hal_rcc_ex.c ****         order to modify the RTC Clock source, as consequence RTC registers (including
  79:Drivers/STM32L0xx_HAL_Driver/Src/stm32l0xx_hal_rcc_ex.c ****         the backup registers) are set to their reset values.
  80:Drivers/STM32L0xx_HAL_Driver/Src/stm32l0xx_hal_rcc_ex.c **** 
  81:Drivers/STM32L0xx_HAL_Driver/Src/stm32l0xx_hal_rcc_ex.c **** @endverbatim
  82:Drivers/STM32L0xx_HAL_Driver/Src/stm32l0xx_hal_rcc_ex.c ****   * @{
  83:Drivers/STM32L0xx_HAL_Driver/Src/stm32l0xx_hal_rcc_ex.c ****   */
  84:Drivers/STM32L0xx_HAL_Driver/Src/stm32l0xx_hal_rcc_ex.c **** 
  85:Drivers/STM32L0xx_HAL_Driver/Src/stm32l0xx_hal_rcc_ex.c **** /**
  86:Drivers/STM32L0xx_HAL_Driver/Src/stm32l0xx_hal_rcc_ex.c ****   * @brief  Initializes the RCC extended peripherals clocks according to the specified
  87:Drivers/STM32L0xx_HAL_Driver/Src/stm32l0xx_hal_rcc_ex.c ****   *         parameters in the RCC_PeriphCLKInitTypeDef.
  88:Drivers/STM32L0xx_HAL_Driver/Src/stm32l0xx_hal_rcc_ex.c ****   * @param  PeriphClkInit pointer to an RCC_PeriphCLKInitTypeDef structure that
ARM GAS  /tmp/ccJTnjvt.s 			page 3


  89:Drivers/STM32L0xx_HAL_Driver/Src/stm32l0xx_hal_rcc_ex.c ****   *         contains the configuration information for the Extended Peripherals clocks(USART1,USART
  90:Drivers/STM32L0xx_HAL_Driver/Src/stm32l0xx_hal_rcc_ex.c ****   *         I2C1, I2C3, RTC, USB/RNG  and LPTIM1 clocks).
  91:Drivers/STM32L0xx_HAL_Driver/Src/stm32l0xx_hal_rcc_ex.c ****   * @retval HAL status
  92:Drivers/STM32L0xx_HAL_Driver/Src/stm32l0xx_hal_rcc_ex.c ****   * @note   If HAL_ERROR returned, first switch-OFF HSE clock oscillator with @ref HAL_RCC_OscConfi
  93:Drivers/STM32L0xx_HAL_Driver/Src/stm32l0xx_hal_rcc_ex.c ****   *         to possibly update HSE divider.
  94:Drivers/STM32L0xx_HAL_Driver/Src/stm32l0xx_hal_rcc_ex.c ****   */
  95:Drivers/STM32L0xx_HAL_Driver/Src/stm32l0xx_hal_rcc_ex.c **** HAL_StatusTypeDef HAL_RCCEx_PeriphCLKConfig(RCC_PeriphCLKInitTypeDef  *PeriphClkInit)
  96:Drivers/STM32L0xx_HAL_Driver/Src/stm32l0xx_hal_rcc_ex.c **** {
  28              		.loc 1 96 1 view -0
  29              		.cfi_startproc
  30              		@ args = 0, pretend = 0, frame = 0
  31              		@ frame_needed = 0, uses_anonymous_args = 0
  32              		.loc 1 96 1 is_stmt 0 view .LVU1
  33 0000 70B5     		push	{r4, r5, r6, lr}
  34              		.cfi_def_cfa_offset 16
  35              		.cfi_offset 4, -16
  36              		.cfi_offset 5, -12
  37              		.cfi_offset 6, -8
  38              		.cfi_offset 14, -4
  39 0002 0400     		movs	r4, r0
  97:Drivers/STM32L0xx_HAL_Driver/Src/stm32l0xx_hal_rcc_ex.c ****   uint32_t tickstart;
  40              		.loc 1 97 3 is_stmt 1 view .LVU2
  98:Drivers/STM32L0xx_HAL_Driver/Src/stm32l0xx_hal_rcc_ex.c ****   uint32_t temp_reg;
  41              		.loc 1 98 3 view .LVU3
  99:Drivers/STM32L0xx_HAL_Driver/Src/stm32l0xx_hal_rcc_ex.c ****   FlagStatus       pwrclkchanged = RESET;
  42              		.loc 1 99 3 view .LVU4
  43              	.LVL1:
 100:Drivers/STM32L0xx_HAL_Driver/Src/stm32l0xx_hal_rcc_ex.c **** 
 101:Drivers/STM32L0xx_HAL_Driver/Src/stm32l0xx_hal_rcc_ex.c ****   /* Check the parameters */
 102:Drivers/STM32L0xx_HAL_Driver/Src/stm32l0xx_hal_rcc_ex.c ****   assert_param(IS_RCC_PERIPHCLOCK(PeriphClkInit->PeriphClockSelection));
  44              		.loc 1 102 3 view .LVU5
 103:Drivers/STM32L0xx_HAL_Driver/Src/stm32l0xx_hal_rcc_ex.c **** 
 104:Drivers/STM32L0xx_HAL_Driver/Src/stm32l0xx_hal_rcc_ex.c ****   /*------------------------------- RTC/LCD Configuration ------------------------*/
 105:Drivers/STM32L0xx_HAL_Driver/Src/stm32l0xx_hal_rcc_ex.c ****   if ((((PeriphClkInit->PeriphClockSelection) & RCC_PERIPHCLK_RTC) == RCC_PERIPHCLK_RTC)
  45              		.loc 1 105 3 view .LVU6
  46              		.loc 1 105 23 is_stmt 0 view .LVU7
  47 0004 0368     		ldr	r3, [r0]
  48              		.loc 1 105 6 view .LVU8
  49 0006 9B06     		lsls	r3, r3, #26
  50 0008 4ED5     		bpl	.L2
 106:Drivers/STM32L0xx_HAL_Driver/Src/stm32l0xx_hal_rcc_ex.c **** #if defined(LCD)
 107:Drivers/STM32L0xx_HAL_Driver/Src/stm32l0xx_hal_rcc_ex.c ****    || (((PeriphClkInit->PeriphClockSelection) & RCC_PERIPHCLK_LCD) == RCC_PERIPHCLK_LCD)
 108:Drivers/STM32L0xx_HAL_Driver/Src/stm32l0xx_hal_rcc_ex.c **** #endif /* LCD */
 109:Drivers/STM32L0xx_HAL_Driver/Src/stm32l0xx_hal_rcc_ex.c ****      )
 110:Drivers/STM32L0xx_HAL_Driver/Src/stm32l0xx_hal_rcc_ex.c ****   {
 111:Drivers/STM32L0xx_HAL_Driver/Src/stm32l0xx_hal_rcc_ex.c ****     /* check for RTC Parameters used to output RTCCLK */
 112:Drivers/STM32L0xx_HAL_Driver/Src/stm32l0xx_hal_rcc_ex.c ****     if(((PeriphClkInit->PeriphClockSelection) & RCC_PERIPHCLK_RTC) == RCC_PERIPHCLK_RTC)
  51              		.loc 1 112 5 is_stmt 1 view .LVU9
 113:Drivers/STM32L0xx_HAL_Driver/Src/stm32l0xx_hal_rcc_ex.c ****     {
 114:Drivers/STM32L0xx_HAL_Driver/Src/stm32l0xx_hal_rcc_ex.c ****       assert_param(IS_RCC_RTCCLKSOURCE(PeriphClkInit->RTCClockSelection));
  52              		.loc 1 114 7 view .LVU10
 115:Drivers/STM32L0xx_HAL_Driver/Src/stm32l0xx_hal_rcc_ex.c ****     }
 116:Drivers/STM32L0xx_HAL_Driver/Src/stm32l0xx_hal_rcc_ex.c **** 
 117:Drivers/STM32L0xx_HAL_Driver/Src/stm32l0xx_hal_rcc_ex.c **** #if defined(LCD)
 118:Drivers/STM32L0xx_HAL_Driver/Src/stm32l0xx_hal_rcc_ex.c ****     if(((PeriphClkInit->PeriphClockSelection) & RCC_PERIPHCLK_LCD) == RCC_PERIPHCLK_LCD)
 119:Drivers/STM32L0xx_HAL_Driver/Src/stm32l0xx_hal_rcc_ex.c ****     {
 120:Drivers/STM32L0xx_HAL_Driver/Src/stm32l0xx_hal_rcc_ex.c ****       assert_param(IS_RCC_RTCCLKSOURCE(PeriphClkInit->LCDClockSelection));
ARM GAS  /tmp/ccJTnjvt.s 			page 4


 121:Drivers/STM32L0xx_HAL_Driver/Src/stm32l0xx_hal_rcc_ex.c ****     }
 122:Drivers/STM32L0xx_HAL_Driver/Src/stm32l0xx_hal_rcc_ex.c **** #endif /* LCD */
 123:Drivers/STM32L0xx_HAL_Driver/Src/stm32l0xx_hal_rcc_ex.c **** 
 124:Drivers/STM32L0xx_HAL_Driver/Src/stm32l0xx_hal_rcc_ex.c ****     /* As soon as function is called to change RTC clock source, activation of the
 125:Drivers/STM32L0xx_HAL_Driver/Src/stm32l0xx_hal_rcc_ex.c ****        power domain is done. */
 126:Drivers/STM32L0xx_HAL_Driver/Src/stm32l0xx_hal_rcc_ex.c ****     /* Requires to enable write access to Backup Domain of necessary */
 127:Drivers/STM32L0xx_HAL_Driver/Src/stm32l0xx_hal_rcc_ex.c ****     if(__HAL_RCC_PWR_IS_CLK_DISABLED())
  53              		.loc 1 127 5 view .LVU11
  54              		.loc 1 127 8 is_stmt 0 view .LVU12
  55 000a 5B4B     		ldr	r3, .L35
  56 000c 9B6B     		ldr	r3, [r3, #56]
  57              		.loc 1 127 7 view .LVU13
  58 000e DB00     		lsls	r3, r3, #3
  59 0010 74D4     		bmi	.L17
 128:Drivers/STM32L0xx_HAL_Driver/Src/stm32l0xx_hal_rcc_ex.c ****     {
 129:Drivers/STM32L0xx_HAL_Driver/Src/stm32l0xx_hal_rcc_ex.c ****       __HAL_RCC_PWR_CLK_ENABLE();
  60              		.loc 1 129 7 is_stmt 1 view .LVU14
  61 0012 594A     		ldr	r2, .L35
  62 0014 916B     		ldr	r1, [r2, #56]
  63 0016 8023     		movs	r3, #128
  64 0018 5B05     		lsls	r3, r3, #21
  65 001a 0B43     		orrs	r3, r1
  66 001c 9363     		str	r3, [r2, #56]
 130:Drivers/STM32L0xx_HAL_Driver/Src/stm32l0xx_hal_rcc_ex.c ****       pwrclkchanged = SET;
  67              		.loc 1 130 7 view .LVU15
  68              	.LVL2:
  69              		.loc 1 130 21 is_stmt 0 view .LVU16
  70 001e 0126     		movs	r6, #1
  71              	.LVL3:
  72              	.L3:
 131:Drivers/STM32L0xx_HAL_Driver/Src/stm32l0xx_hal_rcc_ex.c ****     }
 132:Drivers/STM32L0xx_HAL_Driver/Src/stm32l0xx_hal_rcc_ex.c **** 
 133:Drivers/STM32L0xx_HAL_Driver/Src/stm32l0xx_hal_rcc_ex.c ****     if(HAL_IS_BIT_CLR(PWR->CR, PWR_CR_DBP))
  73              		.loc 1 133 5 is_stmt 1 view .LVU17
  74              		.loc 1 133 8 is_stmt 0 view .LVU18
  75 0020 564B     		ldr	r3, .L35+4
  76 0022 1B68     		ldr	r3, [r3]
  77              		.loc 1 133 7 view .LVU19
  78 0024 DB05     		lsls	r3, r3, #23
  79 0026 6BD5     		bpl	.L30
  80              	.LVL4:
  81              	.L4:
 134:Drivers/STM32L0xx_HAL_Driver/Src/stm32l0xx_hal_rcc_ex.c ****     {
 135:Drivers/STM32L0xx_HAL_Driver/Src/stm32l0xx_hal_rcc_ex.c ****       /* Enable write access to Backup domain */
 136:Drivers/STM32L0xx_HAL_Driver/Src/stm32l0xx_hal_rcc_ex.c ****       SET_BIT(PWR->CR, PWR_CR_DBP);
 137:Drivers/STM32L0xx_HAL_Driver/Src/stm32l0xx_hal_rcc_ex.c **** 
 138:Drivers/STM32L0xx_HAL_Driver/Src/stm32l0xx_hal_rcc_ex.c ****       /* Wait for Backup domain Write protection disable */
 139:Drivers/STM32L0xx_HAL_Driver/Src/stm32l0xx_hal_rcc_ex.c ****       tickstart = HAL_GetTick();
 140:Drivers/STM32L0xx_HAL_Driver/Src/stm32l0xx_hal_rcc_ex.c **** 
 141:Drivers/STM32L0xx_HAL_Driver/Src/stm32l0xx_hal_rcc_ex.c ****       while(HAL_IS_BIT_CLR(PWR->CR, PWR_CR_DBP))
 142:Drivers/STM32L0xx_HAL_Driver/Src/stm32l0xx_hal_rcc_ex.c ****       {
 143:Drivers/STM32L0xx_HAL_Driver/Src/stm32l0xx_hal_rcc_ex.c ****         if((HAL_GetTick() - tickstart) > RCC_DBP_TIMEOUT_VALUE)
 144:Drivers/STM32L0xx_HAL_Driver/Src/stm32l0xx_hal_rcc_ex.c ****         {
 145:Drivers/STM32L0xx_HAL_Driver/Src/stm32l0xx_hal_rcc_ex.c ****           return HAL_TIMEOUT;
 146:Drivers/STM32L0xx_HAL_Driver/Src/stm32l0xx_hal_rcc_ex.c ****         }
 147:Drivers/STM32L0xx_HAL_Driver/Src/stm32l0xx_hal_rcc_ex.c ****       }
 148:Drivers/STM32L0xx_HAL_Driver/Src/stm32l0xx_hal_rcc_ex.c ****     }
ARM GAS  /tmp/ccJTnjvt.s 			page 5


 149:Drivers/STM32L0xx_HAL_Driver/Src/stm32l0xx_hal_rcc_ex.c **** 
 150:Drivers/STM32L0xx_HAL_Driver/Src/stm32l0xx_hal_rcc_ex.c ****     /* Check if user wants to change HSE RTC prescaler whereas HSE is enabled */
 151:Drivers/STM32L0xx_HAL_Driver/Src/stm32l0xx_hal_rcc_ex.c ****     temp_reg = (RCC->CR & RCC_CR_RTCPRE);
  82              		.loc 1 151 5 is_stmt 1 view .LVU20
  83              		.loc 1 151 20 is_stmt 0 view .LVU21
  84 0028 534B     		ldr	r3, .L35
  85 002a 1B68     		ldr	r3, [r3]
  86              	.LVL5:
 152:Drivers/STM32L0xx_HAL_Driver/Src/stm32l0xx_hal_rcc_ex.c ****     if ((temp_reg != (PeriphClkInit->RTCClockSelection & RCC_CR_RTCPRE))
  87              		.loc 1 152 5 is_stmt 1 view .LVU22
  88              		.loc 1 152 36 is_stmt 0 view .LVU23
  89 002c 6268     		ldr	r2, [r4, #4]
  90              		.loc 1 152 8 view .LVU24
  91 002e 5340     		eors	r3, r2
  92              	.LVL6:
  93              		.loc 1 152 8 view .LVU25
  94 0030 C021     		movs	r1, #192
  95 0032 8903     		lsls	r1, r1, #14
  96 0034 0B42     		tst	r3, r1
  97 0036 05D0     		beq	.L8
 153:Drivers/STM32L0xx_HAL_Driver/Src/stm32l0xx_hal_rcc_ex.c **** #if defined (LCD)
 154:Drivers/STM32L0xx_HAL_Driver/Src/stm32l0xx_hal_rcc_ex.c ****      || (temp_reg != (PeriphClkInit->LCDClockSelection & RCC_CR_RTCPRE))
 155:Drivers/STM32L0xx_HAL_Driver/Src/stm32l0xx_hal_rcc_ex.c **** #endif /* LCD */
 156:Drivers/STM32L0xx_HAL_Driver/Src/stm32l0xx_hal_rcc_ex.c ****        )
 157:Drivers/STM32L0xx_HAL_Driver/Src/stm32l0xx_hal_rcc_ex.c ****     { /* Check HSE State */
 158:Drivers/STM32L0xx_HAL_Driver/Src/stm32l0xx_hal_rcc_ex.c ****       if ((PeriphClkInit->RTCClockSelection & RCC_CSR_RTCSEL) == RCC_CSR_RTCSEL_HSE)
  98              		.loc 1 158 7 is_stmt 1 view .LVU26
  99              		.loc 1 158 45 is_stmt 0 view .LVU27
 100 0038 C023     		movs	r3, #192
 101 003a 9B02     		lsls	r3, r3, #10
 102 003c 1100     		movs	r1, r2
 103 003e 1940     		ands	r1, r3
 104              		.loc 1 158 10 view .LVU28
 105 0040 9942     		cmp	r1, r3
 106 0042 71D0     		beq	.L31
 107              	.L8:
 159:Drivers/STM32L0xx_HAL_Driver/Src/stm32l0xx_hal_rcc_ex.c ****       {
 160:Drivers/STM32L0xx_HAL_Driver/Src/stm32l0xx_hal_rcc_ex.c ****         if (HAL_IS_BIT_SET(RCC->CR, RCC_CR_HSERDY))
 161:Drivers/STM32L0xx_HAL_Driver/Src/stm32l0xx_hal_rcc_ex.c ****         {
 162:Drivers/STM32L0xx_HAL_Driver/Src/stm32l0xx_hal_rcc_ex.c ****           /* To update HSE divider, first switch-OFF HSE clock oscillator*/
 163:Drivers/STM32L0xx_HAL_Driver/Src/stm32l0xx_hal_rcc_ex.c ****           return HAL_ERROR;
 164:Drivers/STM32L0xx_HAL_Driver/Src/stm32l0xx_hal_rcc_ex.c ****         }
 165:Drivers/STM32L0xx_HAL_Driver/Src/stm32l0xx_hal_rcc_ex.c ****       }
 166:Drivers/STM32L0xx_HAL_Driver/Src/stm32l0xx_hal_rcc_ex.c ****     }
 167:Drivers/STM32L0xx_HAL_Driver/Src/stm32l0xx_hal_rcc_ex.c **** 
 168:Drivers/STM32L0xx_HAL_Driver/Src/stm32l0xx_hal_rcc_ex.c ****     /* Reset the Backup domain only if the RTC Clock source selection is modified from reset value 
 169:Drivers/STM32L0xx_HAL_Driver/Src/stm32l0xx_hal_rcc_ex.c ****     temp_reg = (RCC->CSR & RCC_CSR_RTCSEL);
 108              		.loc 1 169 5 is_stmt 1 view .LVU29
 109              		.loc 1 169 20 is_stmt 0 view .LVU30
 110 0044 4C4B     		ldr	r3, .L35
 111 0046 196D     		ldr	r1, [r3, #80]
 112              		.loc 1 169 14 view .LVU31
 113 0048 C023     		movs	r3, #192
 114 004a 9B02     		lsls	r3, r3, #10
 115 004c 0800     		movs	r0, r1
 116 004e 1840     		ands	r0, r3
 117              	.LVL7:
ARM GAS  /tmp/ccJTnjvt.s 			page 6


 170:Drivers/STM32L0xx_HAL_Driver/Src/stm32l0xx_hal_rcc_ex.c **** 
 171:Drivers/STM32L0xx_HAL_Driver/Src/stm32l0xx_hal_rcc_ex.c ****     if((temp_reg != 0x00000000U) && (((temp_reg != (PeriphClkInit->RTCClockSelection & RCC_CSR_RTCS
 118              		.loc 1 171 5 is_stmt 1 view .LVU32
 119              		.loc 1 171 7 is_stmt 0 view .LVU33
 120 0050 1942     		tst	r1, r3
 121 0052 15D0     		beq	.L9
 122              		.loc 1 171 86 discriminator 1 view .LVU34
 123 0054 1A40     		ands	r2, r3
 124              		.loc 1 171 34 discriminator 1 view .LVU35
 125 0056 8242     		cmp	r2, r0
 126 0058 12D0     		beq	.L9
 172:Drivers/STM32L0xx_HAL_Driver/Src/stm32l0xx_hal_rcc_ex.c ****       && (((PeriphClkInit->PeriphClockSelection) & RCC_PERIPHCLK_RTC) == RCC_PERIPHCLK_RTC))
 127              		.loc 1 172 26 view .LVU36
 128 005a 2368     		ldr	r3, [r4]
 129              		.loc 1 172 7 view .LVU37
 130 005c 9B06     		lsls	r3, r3, #26
 131 005e 0FD5     		bpl	.L9
 173:Drivers/STM32L0xx_HAL_Driver/Src/stm32l0xx_hal_rcc_ex.c **** #if defined(LCD)
 174:Drivers/STM32L0xx_HAL_Driver/Src/stm32l0xx_hal_rcc_ex.c ****       || ((temp_reg != (PeriphClkInit->LCDClockSelection & RCC_CSR_RTCSEL)) \
 175:Drivers/STM32L0xx_HAL_Driver/Src/stm32l0xx_hal_rcc_ex.c ****        && (((PeriphClkInit->PeriphClockSelection) & RCC_PERIPHCLK_LCD) == RCC_PERIPHCLK_LCD))
 176:Drivers/STM32L0xx_HAL_Driver/Src/stm32l0xx_hal_rcc_ex.c **** #endif /* LCD */
 177:Drivers/STM32L0xx_HAL_Driver/Src/stm32l0xx_hal_rcc_ex.c ****      ))
 178:Drivers/STM32L0xx_HAL_Driver/Src/stm32l0xx_hal_rcc_ex.c ****     {
 179:Drivers/STM32L0xx_HAL_Driver/Src/stm32l0xx_hal_rcc_ex.c ****       /* Store the content of CSR register before the reset of Backup Domain */
 180:Drivers/STM32L0xx_HAL_Driver/Src/stm32l0xx_hal_rcc_ex.c ****       temp_reg = (RCC->CSR & ~(RCC_CSR_RTCSEL));
 132              		.loc 1 180 7 is_stmt 1 view .LVU38
 133              		.loc 1 180 22 is_stmt 0 view .LVU39
 134 0060 454B     		ldr	r3, .L35
 135 0062 1A6D     		ldr	r2, [r3, #80]
 136              		.loc 1 180 16 view .LVU40
 137 0064 4649     		ldr	r1, .L35+8
 138 0066 1140     		ands	r1, r2
 139              	.LVL8:
 181:Drivers/STM32L0xx_HAL_Driver/Src/stm32l0xx_hal_rcc_ex.c **** 
 182:Drivers/STM32L0xx_HAL_Driver/Src/stm32l0xx_hal_rcc_ex.c ****       /* RTC Clock selection can be changed only if the Backup Domain is reset */
 183:Drivers/STM32L0xx_HAL_Driver/Src/stm32l0xx_hal_rcc_ex.c ****       __HAL_RCC_BACKUPRESET_FORCE();
 140              		.loc 1 183 7 is_stmt 1 view .LVU41
 141 0068 1D6D     		ldr	r5, [r3, #80]
 142 006a 8020     		movs	r0, #128
 143 006c 0003     		lsls	r0, r0, #12
 144 006e 2843     		orrs	r0, r5
 145 0070 1865     		str	r0, [r3, #80]
 184:Drivers/STM32L0xx_HAL_Driver/Src/stm32l0xx_hal_rcc_ex.c ****       __HAL_RCC_BACKUPRESET_RELEASE();
 146              		.loc 1 184 7 view .LVU42
 147 0072 186D     		ldr	r0, [r3, #80]
 148 0074 434D     		ldr	r5, .L35+12
 149 0076 2840     		ands	r0, r5
 150 0078 1865     		str	r0, [r3, #80]
 185:Drivers/STM32L0xx_HAL_Driver/Src/stm32l0xx_hal_rcc_ex.c **** 
 186:Drivers/STM32L0xx_HAL_Driver/Src/stm32l0xx_hal_rcc_ex.c ****       /* Restore the Content of CSR register */
 187:Drivers/STM32L0xx_HAL_Driver/Src/stm32l0xx_hal_rcc_ex.c ****       RCC->CSR = temp_reg;
 151              		.loc 1 187 7 view .LVU43
 152              		.loc 1 187 16 is_stmt 0 view .LVU44
 153 007a 1965     		str	r1, [r3, #80]
 188:Drivers/STM32L0xx_HAL_Driver/Src/stm32l0xx_hal_rcc_ex.c **** 
 189:Drivers/STM32L0xx_HAL_Driver/Src/stm32l0xx_hal_rcc_ex.c ****        /* Wait for LSERDY if LSE was enabled */
 190:Drivers/STM32L0xx_HAL_Driver/Src/stm32l0xx_hal_rcc_ex.c ****       if (HAL_IS_BIT_SET(temp_reg, RCC_CSR_LSEON))
ARM GAS  /tmp/ccJTnjvt.s 			page 7


 154              		.loc 1 190 7 is_stmt 1 view .LVU45
 155              		.loc 1 190 10 is_stmt 0 view .LVU46
 156 007c D205     		lsls	r2, r2, #23
 157 007e 59D4     		bmi	.L32
 158              	.LVL9:
 159              	.L9:
 191:Drivers/STM32L0xx_HAL_Driver/Src/stm32l0xx_hal_rcc_ex.c ****       {
 192:Drivers/STM32L0xx_HAL_Driver/Src/stm32l0xx_hal_rcc_ex.c ****         /* Get Start Tick */
 193:Drivers/STM32L0xx_HAL_Driver/Src/stm32l0xx_hal_rcc_ex.c ****         tickstart = HAL_GetTick();
 194:Drivers/STM32L0xx_HAL_Driver/Src/stm32l0xx_hal_rcc_ex.c **** 
 195:Drivers/STM32L0xx_HAL_Driver/Src/stm32l0xx_hal_rcc_ex.c ****         /* Wait till LSE is ready */
 196:Drivers/STM32L0xx_HAL_Driver/Src/stm32l0xx_hal_rcc_ex.c ****         while(__HAL_RCC_GET_FLAG(RCC_FLAG_LSERDY) == 0U)
 197:Drivers/STM32L0xx_HAL_Driver/Src/stm32l0xx_hal_rcc_ex.c ****         {
 198:Drivers/STM32L0xx_HAL_Driver/Src/stm32l0xx_hal_rcc_ex.c ****           if((HAL_GetTick() - tickstart ) > RCC_LSE_TIMEOUT_VALUE)
 199:Drivers/STM32L0xx_HAL_Driver/Src/stm32l0xx_hal_rcc_ex.c ****           {
 200:Drivers/STM32L0xx_HAL_Driver/Src/stm32l0xx_hal_rcc_ex.c ****             return HAL_TIMEOUT;
 201:Drivers/STM32L0xx_HAL_Driver/Src/stm32l0xx_hal_rcc_ex.c ****           }
 202:Drivers/STM32L0xx_HAL_Driver/Src/stm32l0xx_hal_rcc_ex.c ****         }
 203:Drivers/STM32L0xx_HAL_Driver/Src/stm32l0xx_hal_rcc_ex.c ****       }
 204:Drivers/STM32L0xx_HAL_Driver/Src/stm32l0xx_hal_rcc_ex.c ****     }
 205:Drivers/STM32L0xx_HAL_Driver/Src/stm32l0xx_hal_rcc_ex.c **** #if defined(LCD)
 206:Drivers/STM32L0xx_HAL_Driver/Src/stm32l0xx_hal_rcc_ex.c ****     if(((PeriphClkInit->PeriphClockSelection) & RCC_PERIPHCLK_LCD) == RCC_PERIPHCLK_LCD)
 207:Drivers/STM32L0xx_HAL_Driver/Src/stm32l0xx_hal_rcc_ex.c ****     {
 208:Drivers/STM32L0xx_HAL_Driver/Src/stm32l0xx_hal_rcc_ex.c ****       __HAL_RCC_LCD_CONFIG(PeriphClkInit->LCDClockSelection);
 209:Drivers/STM32L0xx_HAL_Driver/Src/stm32l0xx_hal_rcc_ex.c ****     } 
 210:Drivers/STM32L0xx_HAL_Driver/Src/stm32l0xx_hal_rcc_ex.c **** #endif /* LCD */
 211:Drivers/STM32L0xx_HAL_Driver/Src/stm32l0xx_hal_rcc_ex.c **** 
 212:Drivers/STM32L0xx_HAL_Driver/Src/stm32l0xx_hal_rcc_ex.c ****     if(((PeriphClkInit->PeriphClockSelection) & RCC_PERIPHCLK_RTC) == RCC_PERIPHCLK_RTC)
 160              		.loc 1 212 5 is_stmt 1 view .LVU47
 161              		.loc 1 212 23 is_stmt 0 view .LVU48
 162 0080 2368     		ldr	r3, [r4]
 163              		.loc 1 212 7 view .LVU49
 164 0082 9B06     		lsls	r3, r3, #26
 165 0084 0ED5     		bpl	.L12
 213:Drivers/STM32L0xx_HAL_Driver/Src/stm32l0xx_hal_rcc_ex.c ****     {
 214:Drivers/STM32L0xx_HAL_Driver/Src/stm32l0xx_hal_rcc_ex.c ****       __HAL_RCC_RTC_CONFIG(PeriphClkInit->RTCClockSelection);
 166              		.loc 1 214 7 is_stmt 1 view .LVU50
 167              		.loc 1 214 7 view .LVU51
 168              		.loc 1 214 7 view .LVU52
 169 0086 6368     		ldr	r3, [r4, #4]
 170 0088 C022     		movs	r2, #192
 171 008a 9202     		lsls	r2, r2, #10
 172 008c 1900     		movs	r1, r3
 173 008e 1140     		ands	r1, r2
 174 0090 9142     		cmp	r1, r2
 175 0092 5ED0     		beq	.L33
 176              	.L13:
 177              		.loc 1 214 7 discriminator 3 view .LVU53
 178              		.loc 1 214 7 discriminator 3 view .LVU54
 179 0094 3849     		ldr	r1, .L35
 180 0096 0B6D     		ldr	r3, [r1, #80]
 181 0098 6268     		ldr	r2, [r4, #4]
 182 009a C020     		movs	r0, #192
 183 009c 8002     		lsls	r0, r0, #10
 184 009e 0240     		ands	r2, r0
 185 00a0 1343     		orrs	r3, r2
 186 00a2 0B65     		str	r3, [r1, #80]
ARM GAS  /tmp/ccJTnjvt.s 			page 8


 187              	.L12:
 188              		.loc 1 214 7 discriminator 4 view .LVU55
 215:Drivers/STM32L0xx_HAL_Driver/Src/stm32l0xx_hal_rcc_ex.c ****     }
 216:Drivers/STM32L0xx_HAL_Driver/Src/stm32l0xx_hal_rcc_ex.c **** 
 217:Drivers/STM32L0xx_HAL_Driver/Src/stm32l0xx_hal_rcc_ex.c ****     /* Require to disable power clock if necessary */
 218:Drivers/STM32L0xx_HAL_Driver/Src/stm32l0xx_hal_rcc_ex.c ****     if(pwrclkchanged == SET)
 189              		.loc 1 218 5 view .LVU56
 190              		.loc 1 218 7 is_stmt 0 view .LVU57
 191 00a4 012E     		cmp	r6, #1
 192 00a6 5ED0     		beq	.L34
 193              	.LVL10:
 194              	.L2:
 219:Drivers/STM32L0xx_HAL_Driver/Src/stm32l0xx_hal_rcc_ex.c ****     {
 220:Drivers/STM32L0xx_HAL_Driver/Src/stm32l0xx_hal_rcc_ex.c ****       __HAL_RCC_PWR_CLK_DISABLE();
 221:Drivers/STM32L0xx_HAL_Driver/Src/stm32l0xx_hal_rcc_ex.c ****     }
 222:Drivers/STM32L0xx_HAL_Driver/Src/stm32l0xx_hal_rcc_ex.c ****   }
 223:Drivers/STM32L0xx_HAL_Driver/Src/stm32l0xx_hal_rcc_ex.c **** 
 224:Drivers/STM32L0xx_HAL_Driver/Src/stm32l0xx_hal_rcc_ex.c **** #if defined (RCC_CCIPR_USART1SEL)
 225:Drivers/STM32L0xx_HAL_Driver/Src/stm32l0xx_hal_rcc_ex.c ****   /*------------------------------- USART1 Configuration ------------------------*/
 226:Drivers/STM32L0xx_HAL_Driver/Src/stm32l0xx_hal_rcc_ex.c ****   if(((PeriphClkInit->PeriphClockSelection) & RCC_PERIPHCLK_USART1) == RCC_PERIPHCLK_USART1)
 227:Drivers/STM32L0xx_HAL_Driver/Src/stm32l0xx_hal_rcc_ex.c ****   {
 228:Drivers/STM32L0xx_HAL_Driver/Src/stm32l0xx_hal_rcc_ex.c ****     /* Check the parameters */
 229:Drivers/STM32L0xx_HAL_Driver/Src/stm32l0xx_hal_rcc_ex.c ****     assert_param(IS_RCC_USART1CLKSOURCE(PeriphClkInit->Usart1ClockSelection));
 230:Drivers/STM32L0xx_HAL_Driver/Src/stm32l0xx_hal_rcc_ex.c **** 
 231:Drivers/STM32L0xx_HAL_Driver/Src/stm32l0xx_hal_rcc_ex.c ****     /* Configure the USART1 clock source */
 232:Drivers/STM32L0xx_HAL_Driver/Src/stm32l0xx_hal_rcc_ex.c ****     __HAL_RCC_USART1_CONFIG(PeriphClkInit->Usart1ClockSelection);
 233:Drivers/STM32L0xx_HAL_Driver/Src/stm32l0xx_hal_rcc_ex.c ****   }
 234:Drivers/STM32L0xx_HAL_Driver/Src/stm32l0xx_hal_rcc_ex.c **** #endif /* RCC_CCIPR_USART1SEL */
 235:Drivers/STM32L0xx_HAL_Driver/Src/stm32l0xx_hal_rcc_ex.c **** 
 236:Drivers/STM32L0xx_HAL_Driver/Src/stm32l0xx_hal_rcc_ex.c ****   /*----------------------------- USART2 Configuration --------------------------*/
 237:Drivers/STM32L0xx_HAL_Driver/Src/stm32l0xx_hal_rcc_ex.c ****   if(((PeriphClkInit->PeriphClockSelection) & RCC_PERIPHCLK_USART2) == RCC_PERIPHCLK_USART2)
 195              		.loc 1 237 3 is_stmt 1 view .LVU58
 196              		.loc 1 237 21 is_stmt 0 view .LVU59
 197 00a8 2368     		ldr	r3, [r4]
 198              		.loc 1 237 5 view .LVU60
 199 00aa 9B07     		lsls	r3, r3, #30
 200 00ac 06D5     		bpl	.L14
 238:Drivers/STM32L0xx_HAL_Driver/Src/stm32l0xx_hal_rcc_ex.c ****   {
 239:Drivers/STM32L0xx_HAL_Driver/Src/stm32l0xx_hal_rcc_ex.c ****     /* Check the parameters */
 240:Drivers/STM32L0xx_HAL_Driver/Src/stm32l0xx_hal_rcc_ex.c ****     assert_param(IS_RCC_USART2CLKSOURCE(PeriphClkInit->Usart2ClockSelection));
 201              		.loc 1 240 5 is_stmt 1 view .LVU61
 241:Drivers/STM32L0xx_HAL_Driver/Src/stm32l0xx_hal_rcc_ex.c **** 
 242:Drivers/STM32L0xx_HAL_Driver/Src/stm32l0xx_hal_rcc_ex.c ****     /* Configure the USART2 clock source */
 243:Drivers/STM32L0xx_HAL_Driver/Src/stm32l0xx_hal_rcc_ex.c ****     __HAL_RCC_USART2_CONFIG(PeriphClkInit->Usart2ClockSelection);
 202              		.loc 1 243 5 view .LVU62
 203 00ae 324A     		ldr	r2, .L35
 204 00b0 D36C     		ldr	r3, [r2, #76]
 205 00b2 0C21     		movs	r1, #12
 206 00b4 8B43     		bics	r3, r1
 207 00b6 A168     		ldr	r1, [r4, #8]
 208 00b8 0B43     		orrs	r3, r1
 209 00ba D364     		str	r3, [r2, #76]
 210              	.L14:
 244:Drivers/STM32L0xx_HAL_Driver/Src/stm32l0xx_hal_rcc_ex.c ****   }
 245:Drivers/STM32L0xx_HAL_Driver/Src/stm32l0xx_hal_rcc_ex.c **** 
 246:Drivers/STM32L0xx_HAL_Driver/Src/stm32l0xx_hal_rcc_ex.c ****   /*------------------------------ LPUART1 Configuration ------------------------*/
 247:Drivers/STM32L0xx_HAL_Driver/Src/stm32l0xx_hal_rcc_ex.c ****   if(((PeriphClkInit->PeriphClockSelection) & RCC_PERIPHCLK_LPUART1) == RCC_PERIPHCLK_LPUART1)
ARM GAS  /tmp/ccJTnjvt.s 			page 9


 211              		.loc 1 247 3 view .LVU63
 212              		.loc 1 247 21 is_stmt 0 view .LVU64
 213 00bc 2368     		ldr	r3, [r4]
 214              		.loc 1 247 5 view .LVU65
 215 00be 5B07     		lsls	r3, r3, #29
 216 00c0 06D5     		bpl	.L15
 248:Drivers/STM32L0xx_HAL_Driver/Src/stm32l0xx_hal_rcc_ex.c ****   {
 249:Drivers/STM32L0xx_HAL_Driver/Src/stm32l0xx_hal_rcc_ex.c ****     /* Check the parameters */
 250:Drivers/STM32L0xx_HAL_Driver/Src/stm32l0xx_hal_rcc_ex.c ****     assert_param(IS_RCC_LPUART1CLKSOURCE(PeriphClkInit->Lpuart1ClockSelection));
 217              		.loc 1 250 5 is_stmt 1 view .LVU66
 251:Drivers/STM32L0xx_HAL_Driver/Src/stm32l0xx_hal_rcc_ex.c **** 
 252:Drivers/STM32L0xx_HAL_Driver/Src/stm32l0xx_hal_rcc_ex.c ****     /* Configure the LPUAR1 clock source */
 253:Drivers/STM32L0xx_HAL_Driver/Src/stm32l0xx_hal_rcc_ex.c ****     __HAL_RCC_LPUART1_CONFIG(PeriphClkInit->Lpuart1ClockSelection);
 218              		.loc 1 253 5 view .LVU67
 219 00c2 2D4A     		ldr	r2, .L35
 220 00c4 D36C     		ldr	r3, [r2, #76]
 221 00c6 3049     		ldr	r1, .L35+16
 222 00c8 0B40     		ands	r3, r1
 223 00ca E168     		ldr	r1, [r4, #12]
 224 00cc 0B43     		orrs	r3, r1
 225 00ce D364     		str	r3, [r2, #76]
 226              	.L15:
 254:Drivers/STM32L0xx_HAL_Driver/Src/stm32l0xx_hal_rcc_ex.c ****   }
 255:Drivers/STM32L0xx_HAL_Driver/Src/stm32l0xx_hal_rcc_ex.c **** 
 256:Drivers/STM32L0xx_HAL_Driver/Src/stm32l0xx_hal_rcc_ex.c ****   /*------------------------------ I2C1 Configuration ------------------------*/
 257:Drivers/STM32L0xx_HAL_Driver/Src/stm32l0xx_hal_rcc_ex.c ****   if(((PeriphClkInit->PeriphClockSelection) & RCC_PERIPHCLK_I2C1) == RCC_PERIPHCLK_I2C1)
 227              		.loc 1 257 3 view .LVU68
 228              		.loc 1 257 21 is_stmt 0 view .LVU69
 229 00d0 2368     		ldr	r3, [r4]
 230              		.loc 1 257 5 view .LVU70
 231 00d2 1B07     		lsls	r3, r3, #28
 232 00d4 06D5     		bpl	.L16
 258:Drivers/STM32L0xx_HAL_Driver/Src/stm32l0xx_hal_rcc_ex.c ****   {
 259:Drivers/STM32L0xx_HAL_Driver/Src/stm32l0xx_hal_rcc_ex.c ****     /* Check the parameters */
 260:Drivers/STM32L0xx_HAL_Driver/Src/stm32l0xx_hal_rcc_ex.c ****     assert_param(IS_RCC_I2C1CLKSOURCE(PeriphClkInit->I2c1ClockSelection));
 233              		.loc 1 260 5 is_stmt 1 view .LVU71
 261:Drivers/STM32L0xx_HAL_Driver/Src/stm32l0xx_hal_rcc_ex.c **** 
 262:Drivers/STM32L0xx_HAL_Driver/Src/stm32l0xx_hal_rcc_ex.c ****     /* Configure the I2C1 clock source */
 263:Drivers/STM32L0xx_HAL_Driver/Src/stm32l0xx_hal_rcc_ex.c ****     __HAL_RCC_I2C1_CONFIG(PeriphClkInit->I2c1ClockSelection);
 234              		.loc 1 263 5 view .LVU72
 235 00d6 284A     		ldr	r2, .L35
 236 00d8 D36C     		ldr	r3, [r2, #76]
 237 00da 2C49     		ldr	r1, .L35+20
 238 00dc 0B40     		ands	r3, r1
 239 00de 2169     		ldr	r1, [r4, #16]
 240 00e0 0B43     		orrs	r3, r1
 241 00e2 D364     		str	r3, [r2, #76]
 242              	.L16:
 264:Drivers/STM32L0xx_HAL_Driver/Src/stm32l0xx_hal_rcc_ex.c ****   }
 265:Drivers/STM32L0xx_HAL_Driver/Src/stm32l0xx_hal_rcc_ex.c **** 
 266:Drivers/STM32L0xx_HAL_Driver/Src/stm32l0xx_hal_rcc_ex.c **** #if defined (RCC_CCIPR_I2C3SEL)
 267:Drivers/STM32L0xx_HAL_Driver/Src/stm32l0xx_hal_rcc_ex.c ****     /*------------------------------ I2C3 Configuration ------------------------*/
 268:Drivers/STM32L0xx_HAL_Driver/Src/stm32l0xx_hal_rcc_ex.c ****   if(((PeriphClkInit->PeriphClockSelection) & RCC_PERIPHCLK_I2C3) == RCC_PERIPHCLK_I2C3)
 269:Drivers/STM32L0xx_HAL_Driver/Src/stm32l0xx_hal_rcc_ex.c ****   {
 270:Drivers/STM32L0xx_HAL_Driver/Src/stm32l0xx_hal_rcc_ex.c ****     /* Check the parameters */
 271:Drivers/STM32L0xx_HAL_Driver/Src/stm32l0xx_hal_rcc_ex.c ****     assert_param(IS_RCC_I2C3CLKSOURCE(PeriphClkInit->I2c3ClockSelection));
 272:Drivers/STM32L0xx_HAL_Driver/Src/stm32l0xx_hal_rcc_ex.c **** 
ARM GAS  /tmp/ccJTnjvt.s 			page 10


 273:Drivers/STM32L0xx_HAL_Driver/Src/stm32l0xx_hal_rcc_ex.c ****     /* Configure the I2C3 clock source */
 274:Drivers/STM32L0xx_HAL_Driver/Src/stm32l0xx_hal_rcc_ex.c ****     __HAL_RCC_I2C3_CONFIG(PeriphClkInit->I2c3ClockSelection);
 275:Drivers/STM32L0xx_HAL_Driver/Src/stm32l0xx_hal_rcc_ex.c ****   }
 276:Drivers/STM32L0xx_HAL_Driver/Src/stm32l0xx_hal_rcc_ex.c **** #endif /* RCC_CCIPR_I2C3SEL */
 277:Drivers/STM32L0xx_HAL_Driver/Src/stm32l0xx_hal_rcc_ex.c **** 
 278:Drivers/STM32L0xx_HAL_Driver/Src/stm32l0xx_hal_rcc_ex.c **** #if defined(USB)
 279:Drivers/STM32L0xx_HAL_Driver/Src/stm32l0xx_hal_rcc_ex.c ****  /*---------------------------- USB and RNG configuration --------------------*/
 280:Drivers/STM32L0xx_HAL_Driver/Src/stm32l0xx_hal_rcc_ex.c ****   if(((PeriphClkInit->PeriphClockSelection) & RCC_PERIPHCLK_USB) == (RCC_PERIPHCLK_USB))
 281:Drivers/STM32L0xx_HAL_Driver/Src/stm32l0xx_hal_rcc_ex.c ****   {
 282:Drivers/STM32L0xx_HAL_Driver/Src/stm32l0xx_hal_rcc_ex.c ****     assert_param(IS_RCC_USBCLKSOURCE(PeriphClkInit->UsbClockSelection));
 283:Drivers/STM32L0xx_HAL_Driver/Src/stm32l0xx_hal_rcc_ex.c ****     __HAL_RCC_USB_CONFIG(PeriphClkInit->UsbClockSelection);
 284:Drivers/STM32L0xx_HAL_Driver/Src/stm32l0xx_hal_rcc_ex.c ****   }
 285:Drivers/STM32L0xx_HAL_Driver/Src/stm32l0xx_hal_rcc_ex.c **** #endif /* USB */
 286:Drivers/STM32L0xx_HAL_Driver/Src/stm32l0xx_hal_rcc_ex.c **** 
 287:Drivers/STM32L0xx_HAL_Driver/Src/stm32l0xx_hal_rcc_ex.c ****   /*---------------------------- LPTIM1 configuration ------------------------*/
 288:Drivers/STM32L0xx_HAL_Driver/Src/stm32l0xx_hal_rcc_ex.c ****   if(((PeriphClkInit->PeriphClockSelection) & RCC_PERIPHCLK_LPTIM1) == (RCC_PERIPHCLK_LPTIM1))
 243              		.loc 1 288 3 view .LVU73
 244              		.loc 1 288 21 is_stmt 0 view .LVU74
 245 00e4 2368     		ldr	r3, [r4]
 246              		.loc 1 288 5 view .LVU75
 247 00e6 1B06     		lsls	r3, r3, #24
 248 00e8 43D5     		bpl	.L21
 289:Drivers/STM32L0xx_HAL_Driver/Src/stm32l0xx_hal_rcc_ex.c ****   {
 290:Drivers/STM32L0xx_HAL_Driver/Src/stm32l0xx_hal_rcc_ex.c ****     assert_param(IS_RCC_LPTIMCLK(PeriphClkInit->LptimClockSelection));
 249              		.loc 1 290 5 is_stmt 1 view .LVU76
 291:Drivers/STM32L0xx_HAL_Driver/Src/stm32l0xx_hal_rcc_ex.c ****     __HAL_RCC_LPTIM1_CONFIG(PeriphClkInit->LptimClockSelection);
 250              		.loc 1 291 5 view .LVU77
 251 00ea 234A     		ldr	r2, .L35
 252 00ec D36C     		ldr	r3, [r2, #76]
 253 00ee 2849     		ldr	r1, .L35+24
 254 00f0 0B40     		ands	r3, r1
 255 00f2 6169     		ldr	r1, [r4, #20]
 256 00f4 0B43     		orrs	r3, r1
 257 00f6 D364     		str	r3, [r2, #76]
 292:Drivers/STM32L0xx_HAL_Driver/Src/stm32l0xx_hal_rcc_ex.c ****   }
 293:Drivers/STM32L0xx_HAL_Driver/Src/stm32l0xx_hal_rcc_ex.c **** 
 294:Drivers/STM32L0xx_HAL_Driver/Src/stm32l0xx_hal_rcc_ex.c ****   return HAL_OK;
 258              		.loc 1 294 10 is_stmt 0 view .LVU78
 259 00f8 0020     		movs	r0, #0
 260 00fa 3BE0     		b	.L6
 261              	.LVL11:
 262              	.L17:
  99:Drivers/STM32L0xx_HAL_Driver/Src/stm32l0xx_hal_rcc_ex.c **** 
 263              		.loc 1 99 20 view .LVU79
 264 00fc 0026     		movs	r6, #0
 265 00fe 8FE7     		b	.L3
 266              	.LVL12:
 267              	.L30:
 136:Drivers/STM32L0xx_HAL_Driver/Src/stm32l0xx_hal_rcc_ex.c **** 
 268              		.loc 1 136 7 is_stmt 1 view .LVU80
 269 0100 1E4A     		ldr	r2, .L35+4
 270 0102 1168     		ldr	r1, [r2]
 271 0104 8023     		movs	r3, #128
 272 0106 5B00     		lsls	r3, r3, #1
 273 0108 0B43     		orrs	r3, r1
 274 010a 1360     		str	r3, [r2]
 139:Drivers/STM32L0xx_HAL_Driver/Src/stm32l0xx_hal_rcc_ex.c **** 
ARM GAS  /tmp/ccJTnjvt.s 			page 11


 275              		.loc 1 139 7 view .LVU81
 139:Drivers/STM32L0xx_HAL_Driver/Src/stm32l0xx_hal_rcc_ex.c **** 
 276              		.loc 1 139 19 is_stmt 0 view .LVU82
 277 010c FFF7FEFF 		bl	HAL_GetTick
 278              	.LVL13:
 139:Drivers/STM32L0xx_HAL_Driver/Src/stm32l0xx_hal_rcc_ex.c **** 
 279              		.loc 1 139 19 view .LVU83
 280 0110 0500     		movs	r5, r0
 281              	.LVL14:
 141:Drivers/STM32L0xx_HAL_Driver/Src/stm32l0xx_hal_rcc_ex.c ****       {
 282              		.loc 1 141 7 is_stmt 1 view .LVU84
 283              	.L5:
 141:Drivers/STM32L0xx_HAL_Driver/Src/stm32l0xx_hal_rcc_ex.c ****       {
 284              		.loc 1 141 13 view .LVU85
 285 0112 1A4B     		ldr	r3, .L35+4
 286 0114 1B68     		ldr	r3, [r3]
 287 0116 DB05     		lsls	r3, r3, #23
 288 0118 86D4     		bmi	.L4
 143:Drivers/STM32L0xx_HAL_Driver/Src/stm32l0xx_hal_rcc_ex.c ****         {
 289              		.loc 1 143 9 view .LVU86
 143:Drivers/STM32L0xx_HAL_Driver/Src/stm32l0xx_hal_rcc_ex.c ****         {
 290              		.loc 1 143 13 is_stmt 0 view .LVU87
 291 011a FFF7FEFF 		bl	HAL_GetTick
 292              	.LVL15:
 143:Drivers/STM32L0xx_HAL_Driver/Src/stm32l0xx_hal_rcc_ex.c ****         {
 293              		.loc 1 143 27 discriminator 1 view .LVU88
 294 011e 401B     		subs	r0, r0, r5
 143:Drivers/STM32L0xx_HAL_Driver/Src/stm32l0xx_hal_rcc_ex.c ****         {
 295              		.loc 1 143 11 discriminator 1 view .LVU89
 296 0120 6428     		cmp	r0, #100
 297 0122 F6D9     		bls	.L5
 145:Drivers/STM32L0xx_HAL_Driver/Src/stm32l0xx_hal_rcc_ex.c ****         }
 298              		.loc 1 145 18 view .LVU90
 299 0124 0320     		movs	r0, #3
 300 0126 25E0     		b	.L6
 301              	.LVL16:
 302              	.L31:
 160:Drivers/STM32L0xx_HAL_Driver/Src/stm32l0xx_hal_rcc_ex.c ****         {
 303              		.loc 1 160 9 is_stmt 1 view .LVU91
 160:Drivers/STM32L0xx_HAL_Driver/Src/stm32l0xx_hal_rcc_ex.c ****         {
 304              		.loc 1 160 13 is_stmt 0 view .LVU92
 305 0128 134B     		ldr	r3, .L35
 306 012a 1B68     		ldr	r3, [r3]
 160:Drivers/STM32L0xx_HAL_Driver/Src/stm32l0xx_hal_rcc_ex.c ****         {
 307              		.loc 1 160 12 view .LVU93
 308 012c 9B03     		lsls	r3, r3, #14
 309 012e 89D5     		bpl	.L8
 163:Drivers/STM32L0xx_HAL_Driver/Src/stm32l0xx_hal_rcc_ex.c ****         }
 310              		.loc 1 163 18 view .LVU94
 311 0130 0120     		movs	r0, #1
 312 0132 1FE0     		b	.L6
 313              	.LVL17:
 314              	.L32:
 193:Drivers/STM32L0xx_HAL_Driver/Src/stm32l0xx_hal_rcc_ex.c **** 
 315              		.loc 1 193 9 is_stmt 1 view .LVU95
 193:Drivers/STM32L0xx_HAL_Driver/Src/stm32l0xx_hal_rcc_ex.c **** 
 316              		.loc 1 193 21 is_stmt 0 view .LVU96
ARM GAS  /tmp/ccJTnjvt.s 			page 12


 317 0134 FFF7FEFF 		bl	HAL_GetTick
 318              	.LVL18:
 193:Drivers/STM32L0xx_HAL_Driver/Src/stm32l0xx_hal_rcc_ex.c **** 
 319              		.loc 1 193 21 view .LVU97
 320 0138 0500     		movs	r5, r0
 321              	.LVL19:
 196:Drivers/STM32L0xx_HAL_Driver/Src/stm32l0xx_hal_rcc_ex.c ****         {
 322              		.loc 1 196 9 is_stmt 1 view .LVU98
 323              	.L10:
 196:Drivers/STM32L0xx_HAL_Driver/Src/stm32l0xx_hal_rcc_ex.c ****         {
 324              		.loc 1 196 51 view .LVU99
 196:Drivers/STM32L0xx_HAL_Driver/Src/stm32l0xx_hal_rcc_ex.c ****         {
 325              		.loc 1 196 15 is_stmt 0 view .LVU100
 326 013a 0F4B     		ldr	r3, .L35
 327 013c 1B6D     		ldr	r3, [r3, #80]
 196:Drivers/STM32L0xx_HAL_Driver/Src/stm32l0xx_hal_rcc_ex.c ****         {
 328              		.loc 1 196 51 view .LVU101
 329 013e 9B05     		lsls	r3, r3, #22
 330 0140 9ED4     		bmi	.L9
 198:Drivers/STM32L0xx_HAL_Driver/Src/stm32l0xx_hal_rcc_ex.c ****           {
 331              		.loc 1 198 11 is_stmt 1 view .LVU102
 198:Drivers/STM32L0xx_HAL_Driver/Src/stm32l0xx_hal_rcc_ex.c ****           {
 332              		.loc 1 198 15 is_stmt 0 view .LVU103
 333 0142 FFF7FEFF 		bl	HAL_GetTick
 334              	.LVL20:
 198:Drivers/STM32L0xx_HAL_Driver/Src/stm32l0xx_hal_rcc_ex.c ****           {
 335              		.loc 1 198 29 discriminator 1 view .LVU104
 336 0146 401B     		subs	r0, r0, r5
 198:Drivers/STM32L0xx_HAL_Driver/Src/stm32l0xx_hal_rcc_ex.c ****           {
 337              		.loc 1 198 13 discriminator 1 view .LVU105
 338 0148 124B     		ldr	r3, .L35+28
 339 014a 9842     		cmp	r0, r3
 340 014c F5D9     		bls	.L10
 200:Drivers/STM32L0xx_HAL_Driver/Src/stm32l0xx_hal_rcc_ex.c ****           }
 341              		.loc 1 200 20 view .LVU106
 342 014e 0320     		movs	r0, #3
 343 0150 10E0     		b	.L6
 344              	.LVL21:
 345              	.L33:
 214:Drivers/STM32L0xx_HAL_Driver/Src/stm32l0xx_hal_rcc_ex.c ****     }
 346              		.loc 1 214 7 is_stmt 1 discriminator 1 view .LVU107
 347 0152 0949     		ldr	r1, .L35
 348 0154 0A68     		ldr	r2, [r1]
 349 0156 1048     		ldr	r0, .L35+32
 350 0158 0240     		ands	r2, r0
 351 015a C020     		movs	r0, #192
 352 015c 8003     		lsls	r0, r0, #14
 353 015e 0340     		ands	r3, r0
 354 0160 1343     		orrs	r3, r2
 355 0162 0B60     		str	r3, [r1]
 356 0164 96E7     		b	.L13
 357              	.L34:
 220:Drivers/STM32L0xx_HAL_Driver/Src/stm32l0xx_hal_rcc_ex.c ****     }
 358              		.loc 1 220 7 view .LVU108
 359 0166 044A     		ldr	r2, .L35
 360 0168 936B     		ldr	r3, [r2, #56]
 361 016a 0C49     		ldr	r1, .L35+36
ARM GAS  /tmp/ccJTnjvt.s 			page 13


 362 016c 0B40     		ands	r3, r1
 363 016e 9363     		str	r3, [r2, #56]
 364 0170 9AE7     		b	.L2
 365              	.LVL22:
 366              	.L21:
 367              		.loc 1 294 10 is_stmt 0 view .LVU109
 368 0172 0020     		movs	r0, #0
 369              	.L6:
 295:Drivers/STM32L0xx_HAL_Driver/Src/stm32l0xx_hal_rcc_ex.c **** }
 370              		.loc 1 295 1 view .LVU110
 371              		@ sp needed
 372              	.LVL23:
 373              		.loc 1 295 1 view .LVU111
 374 0174 70BD     		pop	{r4, r5, r6, pc}
 375              	.L36:
 376 0176 C046     		.align	2
 377              	.L35:
 378 0178 00100240 		.word	1073876992
 379 017c 00700040 		.word	1073770496
 380 0180 FFFFFCFF 		.word	-196609
 381 0184 FFFFF7FF 		.word	-524289
 382 0188 FFF3FFFF 		.word	-3073
 383 018c FFCFFFFF 		.word	-12289
 384 0190 FFFFF3FF 		.word	-786433
 385 0194 88130000 		.word	5000
 386 0198 FFFFCFFF 		.word	-3145729
 387 019c FFFFFFEF 		.word	-268435457
 388              		.cfi_endproc
 389              	.LFE40:
 391              		.section	.text.HAL_RCCEx_GetPeriphCLKConfig,"ax",%progbits
 392              		.align	1
 393              		.global	HAL_RCCEx_GetPeriphCLKConfig
 394              		.syntax unified
 395              		.code	16
 396              		.thumb_func
 398              	HAL_RCCEx_GetPeriphCLKConfig:
 399              	.LVL24:
 400              	.LFB41:
 296:Drivers/STM32L0xx_HAL_Driver/Src/stm32l0xx_hal_rcc_ex.c **** 
 297:Drivers/STM32L0xx_HAL_Driver/Src/stm32l0xx_hal_rcc_ex.c **** /**
 298:Drivers/STM32L0xx_HAL_Driver/Src/stm32l0xx_hal_rcc_ex.c ****   * @brief  Get the PeriphClkInit according to the internal RCC configuration registers.
 299:Drivers/STM32L0xx_HAL_Driver/Src/stm32l0xx_hal_rcc_ex.c ****   * @param  PeriphClkInit pointer to an RCC_PeriphCLKInitTypeDef structure that
 300:Drivers/STM32L0xx_HAL_Driver/Src/stm32l0xx_hal_rcc_ex.c ****   *         returns the configuration information for the Extended Peripherals clocks(USART1,USART2
 301:Drivers/STM32L0xx_HAL_Driver/Src/stm32l0xx_hal_rcc_ex.c ****   *         I2C1, I2C3, RTC, USB/RNG  and LPTIM1 clocks).
 302:Drivers/STM32L0xx_HAL_Driver/Src/stm32l0xx_hal_rcc_ex.c ****   * @retval None
 303:Drivers/STM32L0xx_HAL_Driver/Src/stm32l0xx_hal_rcc_ex.c ****   */
 304:Drivers/STM32L0xx_HAL_Driver/Src/stm32l0xx_hal_rcc_ex.c **** void HAL_RCCEx_GetPeriphCLKConfig(RCC_PeriphCLKInitTypeDef  *PeriphClkInit)
 305:Drivers/STM32L0xx_HAL_Driver/Src/stm32l0xx_hal_rcc_ex.c **** {
 401              		.loc 1 305 1 is_stmt 1 view -0
 402              		.cfi_startproc
 403              		@ args = 0, pretend = 0, frame = 0
 404              		@ frame_needed = 0, uses_anonymous_args = 0
 405              		@ link register save eliminated.
 306:Drivers/STM32L0xx_HAL_Driver/Src/stm32l0xx_hal_rcc_ex.c ****   uint32_t srcclk;
 406              		.loc 1 306 3 view .LVU113
 307:Drivers/STM32L0xx_HAL_Driver/Src/stm32l0xx_hal_rcc_ex.c **** 
 308:Drivers/STM32L0xx_HAL_Driver/Src/stm32l0xx_hal_rcc_ex.c ****    /* Set all possible values for the extended clock type parameter -----------*/
ARM GAS  /tmp/ccJTnjvt.s 			page 14


 309:Drivers/STM32L0xx_HAL_Driver/Src/stm32l0xx_hal_rcc_ex.c ****   /* Common part first */
 310:Drivers/STM32L0xx_HAL_Driver/Src/stm32l0xx_hal_rcc_ex.c ****   PeriphClkInit->PeriphClockSelection = RCC_PERIPHCLK_USART2 | RCC_PERIPHCLK_LPUART1 | \
 407              		.loc 1 310 3 view .LVU114
 408              		.loc 1 310 39 is_stmt 0 view .LVU115
 409 0000 AE23     		movs	r3, #174
 410 0002 0360     		str	r3, [r0]
 311:Drivers/STM32L0xx_HAL_Driver/Src/stm32l0xx_hal_rcc_ex.c ****                                         RCC_PERIPHCLK_I2C1   | RCC_PERIPHCLK_RTC     | \
 312:Drivers/STM32L0xx_HAL_Driver/Src/stm32l0xx_hal_rcc_ex.c ****                                         RCC_PERIPHCLK_LPTIM1;
 313:Drivers/STM32L0xx_HAL_Driver/Src/stm32l0xx_hal_rcc_ex.c **** #if defined(RCC_CCIPR_USART1SEL)
 314:Drivers/STM32L0xx_HAL_Driver/Src/stm32l0xx_hal_rcc_ex.c ****   PeriphClkInit->PeriphClockSelection |= RCC_PERIPHCLK_USART1;
 315:Drivers/STM32L0xx_HAL_Driver/Src/stm32l0xx_hal_rcc_ex.c **** #endif /* RCC_CCIPR_USART1SEL */
 316:Drivers/STM32L0xx_HAL_Driver/Src/stm32l0xx_hal_rcc_ex.c **** #if  defined(RCC_CCIPR_I2C3SEL)
 317:Drivers/STM32L0xx_HAL_Driver/Src/stm32l0xx_hal_rcc_ex.c ****   PeriphClkInit->PeriphClockSelection |= RCC_PERIPHCLK_I2C3;
 318:Drivers/STM32L0xx_HAL_Driver/Src/stm32l0xx_hal_rcc_ex.c **** #endif /* RCC_CCIPR_I2C3SEL */
 319:Drivers/STM32L0xx_HAL_Driver/Src/stm32l0xx_hal_rcc_ex.c **** #if defined(USB)
 320:Drivers/STM32L0xx_HAL_Driver/Src/stm32l0xx_hal_rcc_ex.c ****   PeriphClkInit->PeriphClockSelection |= RCC_PERIPHCLK_USB;
 321:Drivers/STM32L0xx_HAL_Driver/Src/stm32l0xx_hal_rcc_ex.c **** #endif /* USB */
 322:Drivers/STM32L0xx_HAL_Driver/Src/stm32l0xx_hal_rcc_ex.c **** #if defined(LCD)
 323:Drivers/STM32L0xx_HAL_Driver/Src/stm32l0xx_hal_rcc_ex.c ****   PeriphClkInit->PeriphClockSelection |= RCC_PERIPHCLK_LCD;
 324:Drivers/STM32L0xx_HAL_Driver/Src/stm32l0xx_hal_rcc_ex.c **** #endif /* LCD */
 325:Drivers/STM32L0xx_HAL_Driver/Src/stm32l0xx_hal_rcc_ex.c **** 
 326:Drivers/STM32L0xx_HAL_Driver/Src/stm32l0xx_hal_rcc_ex.c ****   /* Get the RTC/LCD configuration -----------------------------------------------*/
 327:Drivers/STM32L0xx_HAL_Driver/Src/stm32l0xx_hal_rcc_ex.c ****   srcclk = __HAL_RCC_GET_RTC_SOURCE();
 411              		.loc 1 327 3 is_stmt 1 view .LVU116
 412              		.loc 1 327 12 is_stmt 0 view .LVU117
 413 0004 144B     		ldr	r3, .L40
 414 0006 1B6D     		ldr	r3, [r3, #80]
 415              		.loc 1 327 10 view .LVU118
 416 0008 C022     		movs	r2, #192
 417 000a 9202     		lsls	r2, r2, #10
 418 000c 1340     		ands	r3, r2
 419              	.LVL25:
 328:Drivers/STM32L0xx_HAL_Driver/Src/stm32l0xx_hal_rcc_ex.c ****   if (srcclk != RCC_RTCCLKSOURCE_HSE_DIV2)
 420              		.loc 1 328 3 is_stmt 1 view .LVU119
 421              		.loc 1 328 6 is_stmt 0 view .LVU120
 422 000e 9342     		cmp	r3, r2
 423 0010 1AD0     		beq	.L38
 329:Drivers/STM32L0xx_HAL_Driver/Src/stm32l0xx_hal_rcc_ex.c ****   {
 330:Drivers/STM32L0xx_HAL_Driver/Src/stm32l0xx_hal_rcc_ex.c ****     /* Source clock is LSE or LSI*/
 331:Drivers/STM32L0xx_HAL_Driver/Src/stm32l0xx_hal_rcc_ex.c ****     PeriphClkInit->RTCClockSelection = srcclk;
 424              		.loc 1 331 5 is_stmt 1 view .LVU121
 425              		.loc 1 331 38 is_stmt 0 view .LVU122
 426 0012 4360     		str	r3, [r0, #4]
 427              	.LVL26:
 428              	.L39:
 332:Drivers/STM32L0xx_HAL_Driver/Src/stm32l0xx_hal_rcc_ex.c ****   }
 333:Drivers/STM32L0xx_HAL_Driver/Src/stm32l0xx_hal_rcc_ex.c ****   else
 334:Drivers/STM32L0xx_HAL_Driver/Src/stm32l0xx_hal_rcc_ex.c ****   {
 335:Drivers/STM32L0xx_HAL_Driver/Src/stm32l0xx_hal_rcc_ex.c ****     /* Source clock is HSE. Need to get the prescaler value*/
 336:Drivers/STM32L0xx_HAL_Driver/Src/stm32l0xx_hal_rcc_ex.c ****     PeriphClkInit->RTCClockSelection = srcclk | (READ_BIT(RCC->CR, RCC_CR_RTCPRE));
 337:Drivers/STM32L0xx_HAL_Driver/Src/stm32l0xx_hal_rcc_ex.c ****   }
 338:Drivers/STM32L0xx_HAL_Driver/Src/stm32l0xx_hal_rcc_ex.c **** #if defined(LCD)
 339:Drivers/STM32L0xx_HAL_Driver/Src/stm32l0xx_hal_rcc_ex.c ****   PeriphClkInit->LCDClockSelection = PeriphClkInit->RTCClockSelection;
 340:Drivers/STM32L0xx_HAL_Driver/Src/stm32l0xx_hal_rcc_ex.c **** #endif /* LCD */
 341:Drivers/STM32L0xx_HAL_Driver/Src/stm32l0xx_hal_rcc_ex.c **** #if defined(RCC_CCIPR_USART1SEL)
 342:Drivers/STM32L0xx_HAL_Driver/Src/stm32l0xx_hal_rcc_ex.c ****   /* Get the USART1 configuration --------------------------------------------*/
 343:Drivers/STM32L0xx_HAL_Driver/Src/stm32l0xx_hal_rcc_ex.c ****   PeriphClkInit->Usart1ClockSelection  = __HAL_RCC_GET_USART1_SOURCE();
ARM GAS  /tmp/ccJTnjvt.s 			page 15


 344:Drivers/STM32L0xx_HAL_Driver/Src/stm32l0xx_hal_rcc_ex.c **** #endif /* RCC_CCIPR_USART1SEL */
 345:Drivers/STM32L0xx_HAL_Driver/Src/stm32l0xx_hal_rcc_ex.c ****   /* Get the USART2 clock source ---------------------------------------------*/
 346:Drivers/STM32L0xx_HAL_Driver/Src/stm32l0xx_hal_rcc_ex.c ****   PeriphClkInit->Usart2ClockSelection  = __HAL_RCC_GET_USART2_SOURCE();
 429              		.loc 1 346 3 is_stmt 1 view .LVU123
 430              		.loc 1 346 42 is_stmt 0 view .LVU124
 431 0014 104B     		ldr	r3, .L40
 432 0016 D96C     		ldr	r1, [r3, #76]
 433 0018 0C22     		movs	r2, #12
 434 001a 0A40     		ands	r2, r1
 435              		.loc 1 346 40 view .LVU125
 436 001c 8260     		str	r2, [r0, #8]
 347:Drivers/STM32L0xx_HAL_Driver/Src/stm32l0xx_hal_rcc_ex.c ****   /* Get the LPUART1 clock source ---------------------------------------------*/
 348:Drivers/STM32L0xx_HAL_Driver/Src/stm32l0xx_hal_rcc_ex.c ****   PeriphClkInit->Lpuart1ClockSelection = __HAL_RCC_GET_LPUART1_SOURCE();
 437              		.loc 1 348 3 is_stmt 1 view .LVU126
 438              		.loc 1 348 42 is_stmt 0 view .LVU127
 439 001e DA6C     		ldr	r2, [r3, #76]
 440 0020 C021     		movs	r1, #192
 441 0022 0901     		lsls	r1, r1, #4
 442 0024 0A40     		ands	r2, r1
 443              		.loc 1 348 40 view .LVU128
 444 0026 C260     		str	r2, [r0, #12]
 349:Drivers/STM32L0xx_HAL_Driver/Src/stm32l0xx_hal_rcc_ex.c ****   /* Get the I2C1 clock source -----------------------------------------------*/
 350:Drivers/STM32L0xx_HAL_Driver/Src/stm32l0xx_hal_rcc_ex.c ****   PeriphClkInit->I2c1ClockSelection    = __HAL_RCC_GET_I2C1_SOURCE();
 445              		.loc 1 350 3 is_stmt 1 view .LVU129
 446              		.loc 1 350 42 is_stmt 0 view .LVU130
 447 0028 DA6C     		ldr	r2, [r3, #76]
 448 002a C021     		movs	r1, #192
 449 002c 8901     		lsls	r1, r1, #6
 450 002e 0A40     		ands	r2, r1
 451              		.loc 1 350 40 view .LVU131
 452 0030 0261     		str	r2, [r0, #16]
 351:Drivers/STM32L0xx_HAL_Driver/Src/stm32l0xx_hal_rcc_ex.c **** #if defined(RCC_CCIPR_I2C3SEL)
 352:Drivers/STM32L0xx_HAL_Driver/Src/stm32l0xx_hal_rcc_ex.c **** /* Get the I2C3 clock source -----------------------------------------------*/
 353:Drivers/STM32L0xx_HAL_Driver/Src/stm32l0xx_hal_rcc_ex.c ****   PeriphClkInit->I2c3ClockSelection    = __HAL_RCC_GET_I2C3_SOURCE();
 354:Drivers/STM32L0xx_HAL_Driver/Src/stm32l0xx_hal_rcc_ex.c **** #endif /* RCC_CCIPR_I2C3SEL */
 355:Drivers/STM32L0xx_HAL_Driver/Src/stm32l0xx_hal_rcc_ex.c ****   /* Get the LPTIM1 clock source -----------------------------------------------*/
 356:Drivers/STM32L0xx_HAL_Driver/Src/stm32l0xx_hal_rcc_ex.c ****   PeriphClkInit->LptimClockSelection   = __HAL_RCC_GET_LPTIM1_SOURCE();
 453              		.loc 1 356 3 is_stmt 1 view .LVU132
 454              		.loc 1 356 42 is_stmt 0 view .LVU133
 455 0032 DA6C     		ldr	r2, [r3, #76]
 456 0034 C021     		movs	r1, #192
 457 0036 0903     		lsls	r1, r1, #12
 458 0038 0A40     		ands	r2, r1
 459              		.loc 1 356 40 view .LVU134
 460 003a 4261     		str	r2, [r0, #20]
 357:Drivers/STM32L0xx_HAL_Driver/Src/stm32l0xx_hal_rcc_ex.c ****   /* Get the RTC clock source -----------------------------------------------*/
 358:Drivers/STM32L0xx_HAL_Driver/Src/stm32l0xx_hal_rcc_ex.c ****   PeriphClkInit->RTCClockSelection     = __HAL_RCC_GET_RTC_SOURCE();
 461              		.loc 1 358 3 is_stmt 1 view .LVU135
 462              		.loc 1 358 42 is_stmt 0 view .LVU136
 463 003c 1B6D     		ldr	r3, [r3, #80]
 464 003e C022     		movs	r2, #192
 465 0040 9202     		lsls	r2, r2, #10
 466 0042 1340     		ands	r3, r2
 467              		.loc 1 358 40 view .LVU137
 468 0044 4360     		str	r3, [r0, #4]
 359:Drivers/STM32L0xx_HAL_Driver/Src/stm32l0xx_hal_rcc_ex.c **** #if defined(USB)
 360:Drivers/STM32L0xx_HAL_Driver/Src/stm32l0xx_hal_rcc_ex.c ****   /* Get the USB/RNG clock source -----------------------------------------------*/
ARM GAS  /tmp/ccJTnjvt.s 			page 16


 361:Drivers/STM32L0xx_HAL_Driver/Src/stm32l0xx_hal_rcc_ex.c ****   PeriphClkInit->UsbClockSelection     = __HAL_RCC_GET_USB_SOURCE();
 362:Drivers/STM32L0xx_HAL_Driver/Src/stm32l0xx_hal_rcc_ex.c **** #endif /* USB */
 363:Drivers/STM32L0xx_HAL_Driver/Src/stm32l0xx_hal_rcc_ex.c **** }
 469              		.loc 1 363 1 view .LVU138
 470              		@ sp needed
 471 0046 7047     		bx	lr
 472              	.LVL27:
 473              	.L38:
 336:Drivers/STM32L0xx_HAL_Driver/Src/stm32l0xx_hal_rcc_ex.c ****   }
 474              		.loc 1 336 5 is_stmt 1 view .LVU139
 336:Drivers/STM32L0xx_HAL_Driver/Src/stm32l0xx_hal_rcc_ex.c ****   }
 475              		.loc 1 336 50 is_stmt 0 view .LVU140
 476 0048 034A     		ldr	r2, .L40
 477 004a 1268     		ldr	r2, [r2]
 478 004c C021     		movs	r1, #192
 479 004e 8903     		lsls	r1, r1, #14
 480 0050 0A40     		ands	r2, r1
 336:Drivers/STM32L0xx_HAL_Driver/Src/stm32l0xx_hal_rcc_ex.c ****   }
 481              		.loc 1 336 47 view .LVU141
 482 0052 1343     		orrs	r3, r2
 483              	.LVL28:
 336:Drivers/STM32L0xx_HAL_Driver/Src/stm32l0xx_hal_rcc_ex.c ****   }
 484              		.loc 1 336 38 view .LVU142
 485 0054 4360     		str	r3, [r0, #4]
 486 0056 DDE7     		b	.L39
 487              	.L41:
 488              		.align	2
 489              	.L40:
 490 0058 00100240 		.word	1073876992
 491              		.cfi_endproc
 492              	.LFE41:
 494              		.section	.text.HAL_RCCEx_GetPeriphCLKFreq,"ax",%progbits
 495              		.align	1
 496              		.global	HAL_RCCEx_GetPeriphCLKFreq
 497              		.syntax unified
 498              		.code	16
 499              		.thumb_func
 501              	HAL_RCCEx_GetPeriphCLKFreq:
 502              	.LVL29:
 503              	.LFB42:
 364:Drivers/STM32L0xx_HAL_Driver/Src/stm32l0xx_hal_rcc_ex.c **** 
 365:Drivers/STM32L0xx_HAL_Driver/Src/stm32l0xx_hal_rcc_ex.c **** /**
 366:Drivers/STM32L0xx_HAL_Driver/Src/stm32l0xx_hal_rcc_ex.c ****   * @brief  Return the peripheral clock frequency
 367:Drivers/STM32L0xx_HAL_Driver/Src/stm32l0xx_hal_rcc_ex.c ****   * @note   Return 0 if peripheral clock is unknown
 368:Drivers/STM32L0xx_HAL_Driver/Src/stm32l0xx_hal_rcc_ex.c ****   * @param  PeriphClk Peripheral clock identifier
 369:Drivers/STM32L0xx_HAL_Driver/Src/stm32l0xx_hal_rcc_ex.c ****   *         This parameter can be one of the following values:
 370:Drivers/STM32L0xx_HAL_Driver/Src/stm32l0xx_hal_rcc_ex.c ****   *            @arg @ref RCC_PERIPHCLK_RTC      RTC peripheral clock
 371:Drivers/STM32L0xx_HAL_Driver/Src/stm32l0xx_hal_rcc_ex.c ****   *            @arg @ref RCC_PERIPHCLK_LCD      LCD peripheral clock (*)
 372:Drivers/STM32L0xx_HAL_Driver/Src/stm32l0xx_hal_rcc_ex.c ****   *            @arg @ref RCC_PERIPHCLK_USB      USB or RNG peripheral clock (*)
 373:Drivers/STM32L0xx_HAL_Driver/Src/stm32l0xx_hal_rcc_ex.c ****   *            @arg @ref RCC_PERIPHCLK_USART1   USART1 peripheral clock (*)
 374:Drivers/STM32L0xx_HAL_Driver/Src/stm32l0xx_hal_rcc_ex.c ****   *            @arg @ref RCC_PERIPHCLK_USART2   USART2 peripheral clock
 375:Drivers/STM32L0xx_HAL_Driver/Src/stm32l0xx_hal_rcc_ex.c ****   *            @arg @ref RCC_PERIPHCLK_LPUART1  LPUART1 peripheral clock
 376:Drivers/STM32L0xx_HAL_Driver/Src/stm32l0xx_hal_rcc_ex.c ****   *            @arg @ref RCC_PERIPHCLK_I2C1     I2C1 peripheral clock
 377:Drivers/STM32L0xx_HAL_Driver/Src/stm32l0xx_hal_rcc_ex.c ****   *            @arg @ref RCC_PERIPHCLK_I2C2     I2C2 peripheral clock (*)
 378:Drivers/STM32L0xx_HAL_Driver/Src/stm32l0xx_hal_rcc_ex.c ****   *            @arg @ref RCC_PERIPHCLK_I2C3     I2C3 peripheral clock (*)
 379:Drivers/STM32L0xx_HAL_Driver/Src/stm32l0xx_hal_rcc_ex.c ****   * @note   (*) means that this peripheral is not present on all the devices
 380:Drivers/STM32L0xx_HAL_Driver/Src/stm32l0xx_hal_rcc_ex.c ****   * @retval Frequency in Hz (0: means that no available frequency for the peripheral)
ARM GAS  /tmp/ccJTnjvt.s 			page 17


 381:Drivers/STM32L0xx_HAL_Driver/Src/stm32l0xx_hal_rcc_ex.c ****   */
 382:Drivers/STM32L0xx_HAL_Driver/Src/stm32l0xx_hal_rcc_ex.c **** uint32_t HAL_RCCEx_GetPeriphCLKFreq(uint32_t PeriphClk)
 383:Drivers/STM32L0xx_HAL_Driver/Src/stm32l0xx_hal_rcc_ex.c **** {
 504              		.loc 1 383 1 is_stmt 1 view -0
 505              		.cfi_startproc
 506              		@ args = 0, pretend = 0, frame = 0
 507              		@ frame_needed = 0, uses_anonymous_args = 0
 508              		.loc 1 383 1 is_stmt 0 view .LVU144
 509 0000 10B5     		push	{r4, lr}
 510              		.cfi_def_cfa_offset 8
 511              		.cfi_offset 4, -8
 512              		.cfi_offset 14, -4
 384:Drivers/STM32L0xx_HAL_Driver/Src/stm32l0xx_hal_rcc_ex.c ****   uint32_t frequency = 0U;
 513              		.loc 1 384 3 is_stmt 1 view .LVU145
 514              	.LVL30:
 385:Drivers/STM32L0xx_HAL_Driver/Src/stm32l0xx_hal_rcc_ex.c ****   uint32_t temp_reg, clkprediv, srcclk;    /* no init needed */
 515              		.loc 1 385 3 view .LVU146
 386:Drivers/STM32L0xx_HAL_Driver/Src/stm32l0xx_hal_rcc_ex.c **** #if defined(USB)
 387:Drivers/STM32L0xx_HAL_Driver/Src/stm32l0xx_hal_rcc_ex.c ****   uint32_t pllmul, plldiv, pllvco;    /* no init needed */
 388:Drivers/STM32L0xx_HAL_Driver/Src/stm32l0xx_hal_rcc_ex.c **** #endif /* USB */
 389:Drivers/STM32L0xx_HAL_Driver/Src/stm32l0xx_hal_rcc_ex.c **** 
 390:Drivers/STM32L0xx_HAL_Driver/Src/stm32l0xx_hal_rcc_ex.c ****   /* Check the parameters */
 391:Drivers/STM32L0xx_HAL_Driver/Src/stm32l0xx_hal_rcc_ex.c ****   assert_param(IS_RCC_PERIPHCLOCK(PeriphClk));
 516              		.loc 1 391 3 view .LVU147
 392:Drivers/STM32L0xx_HAL_Driver/Src/stm32l0xx_hal_rcc_ex.c **** 
 393:Drivers/STM32L0xx_HAL_Driver/Src/stm32l0xx_hal_rcc_ex.c ****   switch (PeriphClk)
 517              		.loc 1 393 3 view .LVU148
 518 0002 0828     		cmp	r0, #8
 519 0004 00D1     		bne	.LCB471
 520 0006 ABE0     		b	.L43	@long jump
 521              	.LCB471:
 522 0008 1FD8     		bhi	.L44
 523 000a 0228     		cmp	r0, #2
 524 000c 5BD0     		beq	.L45
 525 000e 0428     		cmp	r0, #4
 526 0010 19D1     		bne	.L73
 394:Drivers/STM32L0xx_HAL_Driver/Src/stm32l0xx_hal_rcc_ex.c ****   {
 395:Drivers/STM32L0xx_HAL_Driver/Src/stm32l0xx_hal_rcc_ex.c ****   case RCC_PERIPHCLK_RTC:
 396:Drivers/STM32L0xx_HAL_Driver/Src/stm32l0xx_hal_rcc_ex.c **** #if defined(LCD)
 397:Drivers/STM32L0xx_HAL_Driver/Src/stm32l0xx_hal_rcc_ex.c ****   case RCC_PERIPHCLK_LCD:
 398:Drivers/STM32L0xx_HAL_Driver/Src/stm32l0xx_hal_rcc_ex.c **** #endif /* LCD */
 399:Drivers/STM32L0xx_HAL_Driver/Src/stm32l0xx_hal_rcc_ex.c ****     {
 400:Drivers/STM32L0xx_HAL_Driver/Src/stm32l0xx_hal_rcc_ex.c ****       /* Get RCC CSR configuration ------------------------------------------------------*/
 401:Drivers/STM32L0xx_HAL_Driver/Src/stm32l0xx_hal_rcc_ex.c ****       temp_reg = RCC->CSR;
 402:Drivers/STM32L0xx_HAL_Driver/Src/stm32l0xx_hal_rcc_ex.c **** 
 403:Drivers/STM32L0xx_HAL_Driver/Src/stm32l0xx_hal_rcc_ex.c ****       /* Get the current RTC source */
 404:Drivers/STM32L0xx_HAL_Driver/Src/stm32l0xx_hal_rcc_ex.c ****       srcclk = __HAL_RCC_GET_RTC_SOURCE();
 405:Drivers/STM32L0xx_HAL_Driver/Src/stm32l0xx_hal_rcc_ex.c **** 
 406:Drivers/STM32L0xx_HAL_Driver/Src/stm32l0xx_hal_rcc_ex.c ****       /* Check if LSE is ready if RTC clock selection is LSE */
 407:Drivers/STM32L0xx_HAL_Driver/Src/stm32l0xx_hal_rcc_ex.c ****       if ((srcclk == RCC_RTCCLKSOURCE_LSE) && (HAL_IS_BIT_SET(temp_reg, RCC_CSR_LSERDY)))
 408:Drivers/STM32L0xx_HAL_Driver/Src/stm32l0xx_hal_rcc_ex.c ****       {
 409:Drivers/STM32L0xx_HAL_Driver/Src/stm32l0xx_hal_rcc_ex.c ****         frequency = LSE_VALUE;
 410:Drivers/STM32L0xx_HAL_Driver/Src/stm32l0xx_hal_rcc_ex.c ****       }
 411:Drivers/STM32L0xx_HAL_Driver/Src/stm32l0xx_hal_rcc_ex.c ****       /* Check if LSI is ready if RTC clock selection is LSI */
 412:Drivers/STM32L0xx_HAL_Driver/Src/stm32l0xx_hal_rcc_ex.c ****       else if (srcclk == RCC_RTCCLKSOURCE_LSI)
 413:Drivers/STM32L0xx_HAL_Driver/Src/stm32l0xx_hal_rcc_ex.c ****       {
 414:Drivers/STM32L0xx_HAL_Driver/Src/stm32l0xx_hal_rcc_ex.c ****         if (HAL_IS_BIT_SET(temp_reg, RCC_CSR_LSIRDY))
ARM GAS  /tmp/ccJTnjvt.s 			page 18


 415:Drivers/STM32L0xx_HAL_Driver/Src/stm32l0xx_hal_rcc_ex.c ****         {
 416:Drivers/STM32L0xx_HAL_Driver/Src/stm32l0xx_hal_rcc_ex.c ****           frequency = LSI_VALUE;
 417:Drivers/STM32L0xx_HAL_Driver/Src/stm32l0xx_hal_rcc_ex.c ****         }
 418:Drivers/STM32L0xx_HAL_Driver/Src/stm32l0xx_hal_rcc_ex.c ****       }
 419:Drivers/STM32L0xx_HAL_Driver/Src/stm32l0xx_hal_rcc_ex.c ****       /* Check if HSE is ready and if RTC clock selection is HSE */
 420:Drivers/STM32L0xx_HAL_Driver/Src/stm32l0xx_hal_rcc_ex.c ****       else if (srcclk == RCC_RTCCLKSOURCE_HSE_DIVX)
 421:Drivers/STM32L0xx_HAL_Driver/Src/stm32l0xx_hal_rcc_ex.c ****       {
 422:Drivers/STM32L0xx_HAL_Driver/Src/stm32l0xx_hal_rcc_ex.c ****         if (HAL_IS_BIT_SET(RCC->CR, RCC_CR_HSERDY))
 423:Drivers/STM32L0xx_HAL_Driver/Src/stm32l0xx_hal_rcc_ex.c ****         {
 424:Drivers/STM32L0xx_HAL_Driver/Src/stm32l0xx_hal_rcc_ex.c ****           /* Get the current HSE clock divider */
 425:Drivers/STM32L0xx_HAL_Driver/Src/stm32l0xx_hal_rcc_ex.c ****           clkprediv = __HAL_RCC_GET_RTC_HSE_PRESCALER();
 426:Drivers/STM32L0xx_HAL_Driver/Src/stm32l0xx_hal_rcc_ex.c **** 
 427:Drivers/STM32L0xx_HAL_Driver/Src/stm32l0xx_hal_rcc_ex.c ****           switch (clkprediv)
 428:Drivers/STM32L0xx_HAL_Driver/Src/stm32l0xx_hal_rcc_ex.c ****           {
 429:Drivers/STM32L0xx_HAL_Driver/Src/stm32l0xx_hal_rcc_ex.c ****             case RCC_RTC_HSE_DIV_16:  /* HSE DIV16 has been selected */
 430:Drivers/STM32L0xx_HAL_Driver/Src/stm32l0xx_hal_rcc_ex.c ****             {
 431:Drivers/STM32L0xx_HAL_Driver/Src/stm32l0xx_hal_rcc_ex.c ****               frequency = HSE_VALUE / 16U;
 432:Drivers/STM32L0xx_HAL_Driver/Src/stm32l0xx_hal_rcc_ex.c ****               break;
 433:Drivers/STM32L0xx_HAL_Driver/Src/stm32l0xx_hal_rcc_ex.c ****             }
 434:Drivers/STM32L0xx_HAL_Driver/Src/stm32l0xx_hal_rcc_ex.c ****             case RCC_RTC_HSE_DIV_8:   /* HSE DIV8 has been selected  */
 435:Drivers/STM32L0xx_HAL_Driver/Src/stm32l0xx_hal_rcc_ex.c ****             {
 436:Drivers/STM32L0xx_HAL_Driver/Src/stm32l0xx_hal_rcc_ex.c ****               frequency = HSE_VALUE / 8U;
 437:Drivers/STM32L0xx_HAL_Driver/Src/stm32l0xx_hal_rcc_ex.c ****               break;
 438:Drivers/STM32L0xx_HAL_Driver/Src/stm32l0xx_hal_rcc_ex.c ****             }
 439:Drivers/STM32L0xx_HAL_Driver/Src/stm32l0xx_hal_rcc_ex.c ****             case RCC_RTC_HSE_DIV_4:   /* HSE DIV4 has been selected  */
 440:Drivers/STM32L0xx_HAL_Driver/Src/stm32l0xx_hal_rcc_ex.c ****             {
 441:Drivers/STM32L0xx_HAL_Driver/Src/stm32l0xx_hal_rcc_ex.c ****               frequency = HSE_VALUE / 4U;
 442:Drivers/STM32L0xx_HAL_Driver/Src/stm32l0xx_hal_rcc_ex.c ****               break;
 443:Drivers/STM32L0xx_HAL_Driver/Src/stm32l0xx_hal_rcc_ex.c ****             }
 444:Drivers/STM32L0xx_HAL_Driver/Src/stm32l0xx_hal_rcc_ex.c ****             default:                  /* HSE DIV2 has been selected  */
 445:Drivers/STM32L0xx_HAL_Driver/Src/stm32l0xx_hal_rcc_ex.c ****             {
 446:Drivers/STM32L0xx_HAL_Driver/Src/stm32l0xx_hal_rcc_ex.c ****               frequency = HSE_VALUE / 2U;
 447:Drivers/STM32L0xx_HAL_Driver/Src/stm32l0xx_hal_rcc_ex.c ****               break;
 448:Drivers/STM32L0xx_HAL_Driver/Src/stm32l0xx_hal_rcc_ex.c ****             }
 449:Drivers/STM32L0xx_HAL_Driver/Src/stm32l0xx_hal_rcc_ex.c ****           }
 450:Drivers/STM32L0xx_HAL_Driver/Src/stm32l0xx_hal_rcc_ex.c ****         }
 451:Drivers/STM32L0xx_HAL_Driver/Src/stm32l0xx_hal_rcc_ex.c ****       }
 452:Drivers/STM32L0xx_HAL_Driver/Src/stm32l0xx_hal_rcc_ex.c ****       /* Clock not enabled for RTC */
 453:Drivers/STM32L0xx_HAL_Driver/Src/stm32l0xx_hal_rcc_ex.c ****       else
 454:Drivers/STM32L0xx_HAL_Driver/Src/stm32l0xx_hal_rcc_ex.c ****       {
 455:Drivers/STM32L0xx_HAL_Driver/Src/stm32l0xx_hal_rcc_ex.c ****         /* nothing to do: frequency already initialized to 0U */
 456:Drivers/STM32L0xx_HAL_Driver/Src/stm32l0xx_hal_rcc_ex.c ****       }
 457:Drivers/STM32L0xx_HAL_Driver/Src/stm32l0xx_hal_rcc_ex.c ****       break;
 458:Drivers/STM32L0xx_HAL_Driver/Src/stm32l0xx_hal_rcc_ex.c ****     }
 459:Drivers/STM32L0xx_HAL_Driver/Src/stm32l0xx_hal_rcc_ex.c **** #if defined(USB)
 460:Drivers/STM32L0xx_HAL_Driver/Src/stm32l0xx_hal_rcc_ex.c ****   case RCC_PERIPHCLK_USB:
 461:Drivers/STM32L0xx_HAL_Driver/Src/stm32l0xx_hal_rcc_ex.c ****     {
 462:Drivers/STM32L0xx_HAL_Driver/Src/stm32l0xx_hal_rcc_ex.c ****       /* Get the current USB source */
 463:Drivers/STM32L0xx_HAL_Driver/Src/stm32l0xx_hal_rcc_ex.c ****       srcclk = __HAL_RCC_GET_USB_SOURCE();
 464:Drivers/STM32L0xx_HAL_Driver/Src/stm32l0xx_hal_rcc_ex.c **** 
 465:Drivers/STM32L0xx_HAL_Driver/Src/stm32l0xx_hal_rcc_ex.c ****       if (srcclk == RCC_USBCLKSOURCE_PLL)
 466:Drivers/STM32L0xx_HAL_Driver/Src/stm32l0xx_hal_rcc_ex.c ****       {
 467:Drivers/STM32L0xx_HAL_Driver/Src/stm32l0xx_hal_rcc_ex.c ****         if (HAL_IS_BIT_SET(RCC->CR, RCC_CR_PLLRDY))
 468:Drivers/STM32L0xx_HAL_Driver/Src/stm32l0xx_hal_rcc_ex.c ****         {
 469:Drivers/STM32L0xx_HAL_Driver/Src/stm32l0xx_hal_rcc_ex.c ****           /* Get PLL clock source and multiplication factor ----------------------*/
 470:Drivers/STM32L0xx_HAL_Driver/Src/stm32l0xx_hal_rcc_ex.c ****           pllmul = RCC->CFGR & RCC_CFGR_PLLMUL;
 471:Drivers/STM32L0xx_HAL_Driver/Src/stm32l0xx_hal_rcc_ex.c ****           plldiv = RCC->CFGR & RCC_CFGR_PLLDIV;
ARM GAS  /tmp/ccJTnjvt.s 			page 19


 472:Drivers/STM32L0xx_HAL_Driver/Src/stm32l0xx_hal_rcc_ex.c ****           pllmul = PLLMulTable[(pllmul >> RCC_CFGR_PLLMUL_Pos)];
 473:Drivers/STM32L0xx_HAL_Driver/Src/stm32l0xx_hal_rcc_ex.c ****           plldiv = (plldiv >> RCC_CFGR_PLLDIV_Pos) + 1U;
 474:Drivers/STM32L0xx_HAL_Driver/Src/stm32l0xx_hal_rcc_ex.c **** 
 475:Drivers/STM32L0xx_HAL_Driver/Src/stm32l0xx_hal_rcc_ex.c ****           /* Compute PLL clock input */
 476:Drivers/STM32L0xx_HAL_Driver/Src/stm32l0xx_hal_rcc_ex.c ****           if(__HAL_RCC_GET_PLL_OSCSOURCE() == RCC_PLLSOURCE_HSI)
 477:Drivers/STM32L0xx_HAL_Driver/Src/stm32l0xx_hal_rcc_ex.c ****           {
 478:Drivers/STM32L0xx_HAL_Driver/Src/stm32l0xx_hal_rcc_ex.c ****             if (READ_BIT(RCC->CR, RCC_CR_HSIDIVF) != 0U)
 479:Drivers/STM32L0xx_HAL_Driver/Src/stm32l0xx_hal_rcc_ex.c ****             {
 480:Drivers/STM32L0xx_HAL_Driver/Src/stm32l0xx_hal_rcc_ex.c ****               pllvco =  (HSI_VALUE >> 2U);
 481:Drivers/STM32L0xx_HAL_Driver/Src/stm32l0xx_hal_rcc_ex.c ****             }
 482:Drivers/STM32L0xx_HAL_Driver/Src/stm32l0xx_hal_rcc_ex.c ****             else
 483:Drivers/STM32L0xx_HAL_Driver/Src/stm32l0xx_hal_rcc_ex.c ****             {
 484:Drivers/STM32L0xx_HAL_Driver/Src/stm32l0xx_hal_rcc_ex.c ****               pllvco =  HSI_VALUE;
 485:Drivers/STM32L0xx_HAL_Driver/Src/stm32l0xx_hal_rcc_ex.c ****             }
 486:Drivers/STM32L0xx_HAL_Driver/Src/stm32l0xx_hal_rcc_ex.c ****           }
 487:Drivers/STM32L0xx_HAL_Driver/Src/stm32l0xx_hal_rcc_ex.c ****           else /* HSE source */
 488:Drivers/STM32L0xx_HAL_Driver/Src/stm32l0xx_hal_rcc_ex.c ****           {
 489:Drivers/STM32L0xx_HAL_Driver/Src/stm32l0xx_hal_rcc_ex.c ****             pllvco = HSE_VALUE;
 490:Drivers/STM32L0xx_HAL_Driver/Src/stm32l0xx_hal_rcc_ex.c ****           }
 491:Drivers/STM32L0xx_HAL_Driver/Src/stm32l0xx_hal_rcc_ex.c ****           /* pllvco * pllmul / plldiv */
 492:Drivers/STM32L0xx_HAL_Driver/Src/stm32l0xx_hal_rcc_ex.c ****           pllvco = (pllvco * pllmul);
 493:Drivers/STM32L0xx_HAL_Driver/Src/stm32l0xx_hal_rcc_ex.c ****           frequency = (pllvco/ plldiv);
 494:Drivers/STM32L0xx_HAL_Driver/Src/stm32l0xx_hal_rcc_ex.c ****         }
 495:Drivers/STM32L0xx_HAL_Driver/Src/stm32l0xx_hal_rcc_ex.c ****       }
 496:Drivers/STM32L0xx_HAL_Driver/Src/stm32l0xx_hal_rcc_ex.c ****       else if (srcclk == RCC_USBCLKSOURCE_HSI48)
 497:Drivers/STM32L0xx_HAL_Driver/Src/stm32l0xx_hal_rcc_ex.c ****       {
 498:Drivers/STM32L0xx_HAL_Driver/Src/stm32l0xx_hal_rcc_ex.c ****         if (HAL_IS_BIT_SET(RCC->CRRCR, RCC_CRRCR_HSI48RDY))
 499:Drivers/STM32L0xx_HAL_Driver/Src/stm32l0xx_hal_rcc_ex.c ****         {
 500:Drivers/STM32L0xx_HAL_Driver/Src/stm32l0xx_hal_rcc_ex.c ****           frequency = HSI48_VALUE;
 501:Drivers/STM32L0xx_HAL_Driver/Src/stm32l0xx_hal_rcc_ex.c ****         }
 502:Drivers/STM32L0xx_HAL_Driver/Src/stm32l0xx_hal_rcc_ex.c ****       }
 503:Drivers/STM32L0xx_HAL_Driver/Src/stm32l0xx_hal_rcc_ex.c ****       else /* RCC_USBCLKSOURCE_NONE */
 504:Drivers/STM32L0xx_HAL_Driver/Src/stm32l0xx_hal_rcc_ex.c ****       {
 505:Drivers/STM32L0xx_HAL_Driver/Src/stm32l0xx_hal_rcc_ex.c ****           /* nothing to do: frequency already initialized to 0U */
 506:Drivers/STM32L0xx_HAL_Driver/Src/stm32l0xx_hal_rcc_ex.c ****       }
 507:Drivers/STM32L0xx_HAL_Driver/Src/stm32l0xx_hal_rcc_ex.c ****       break;
 508:Drivers/STM32L0xx_HAL_Driver/Src/stm32l0xx_hal_rcc_ex.c ****     }
 509:Drivers/STM32L0xx_HAL_Driver/Src/stm32l0xx_hal_rcc_ex.c **** #endif /* USB */
 510:Drivers/STM32L0xx_HAL_Driver/Src/stm32l0xx_hal_rcc_ex.c **** #if defined(RCC_CCIPR_USART1SEL)
 511:Drivers/STM32L0xx_HAL_Driver/Src/stm32l0xx_hal_rcc_ex.c ****   case RCC_PERIPHCLK_USART1:
 512:Drivers/STM32L0xx_HAL_Driver/Src/stm32l0xx_hal_rcc_ex.c ****     {
 513:Drivers/STM32L0xx_HAL_Driver/Src/stm32l0xx_hal_rcc_ex.c ****       /* Get the current USART1 source */
 514:Drivers/STM32L0xx_HAL_Driver/Src/stm32l0xx_hal_rcc_ex.c ****       srcclk = __HAL_RCC_GET_USART1_SOURCE();
 515:Drivers/STM32L0xx_HAL_Driver/Src/stm32l0xx_hal_rcc_ex.c **** 
 516:Drivers/STM32L0xx_HAL_Driver/Src/stm32l0xx_hal_rcc_ex.c ****       /* Check if USART1 clock selection is PCLK2 */
 517:Drivers/STM32L0xx_HAL_Driver/Src/stm32l0xx_hal_rcc_ex.c ****       if (srcclk == RCC_USART1CLKSOURCE_PCLK2)
 518:Drivers/STM32L0xx_HAL_Driver/Src/stm32l0xx_hal_rcc_ex.c ****       {
 519:Drivers/STM32L0xx_HAL_Driver/Src/stm32l0xx_hal_rcc_ex.c ****         frequency = HAL_RCC_GetPCLK2Freq();
 520:Drivers/STM32L0xx_HAL_Driver/Src/stm32l0xx_hal_rcc_ex.c ****       }
 521:Drivers/STM32L0xx_HAL_Driver/Src/stm32l0xx_hal_rcc_ex.c ****       /* Check if HSI is ready and if USART1 clock selection is HSI */
 522:Drivers/STM32L0xx_HAL_Driver/Src/stm32l0xx_hal_rcc_ex.c ****       else if (srcclk == RCC_USART1CLKSOURCE_HSI)
 523:Drivers/STM32L0xx_HAL_Driver/Src/stm32l0xx_hal_rcc_ex.c ****       {
 524:Drivers/STM32L0xx_HAL_Driver/Src/stm32l0xx_hal_rcc_ex.c ****         if (HAL_IS_BIT_SET(RCC->CR, RCC_CR_HSIRDY))
 525:Drivers/STM32L0xx_HAL_Driver/Src/stm32l0xx_hal_rcc_ex.c ****         {
 526:Drivers/STM32L0xx_HAL_Driver/Src/stm32l0xx_hal_rcc_ex.c ****           if (READ_BIT(RCC->CR, RCC_CR_HSIDIVF) != 0U)
 527:Drivers/STM32L0xx_HAL_Driver/Src/stm32l0xx_hal_rcc_ex.c ****           {
 528:Drivers/STM32L0xx_HAL_Driver/Src/stm32l0xx_hal_rcc_ex.c ****             frequency =  (HSI_VALUE >> 2U);
ARM GAS  /tmp/ccJTnjvt.s 			page 20


 529:Drivers/STM32L0xx_HAL_Driver/Src/stm32l0xx_hal_rcc_ex.c ****           }
 530:Drivers/STM32L0xx_HAL_Driver/Src/stm32l0xx_hal_rcc_ex.c ****           else
 531:Drivers/STM32L0xx_HAL_Driver/Src/stm32l0xx_hal_rcc_ex.c ****           {
 532:Drivers/STM32L0xx_HAL_Driver/Src/stm32l0xx_hal_rcc_ex.c ****             frequency =  HSI_VALUE;
 533:Drivers/STM32L0xx_HAL_Driver/Src/stm32l0xx_hal_rcc_ex.c ****           }
 534:Drivers/STM32L0xx_HAL_Driver/Src/stm32l0xx_hal_rcc_ex.c ****         }
 535:Drivers/STM32L0xx_HAL_Driver/Src/stm32l0xx_hal_rcc_ex.c ****       }
 536:Drivers/STM32L0xx_HAL_Driver/Src/stm32l0xx_hal_rcc_ex.c ****       /* Check if USART1 clock selection is SYSCLK */
 537:Drivers/STM32L0xx_HAL_Driver/Src/stm32l0xx_hal_rcc_ex.c ****       else if (srcclk == RCC_USART1CLKSOURCE_SYSCLK)
 538:Drivers/STM32L0xx_HAL_Driver/Src/stm32l0xx_hal_rcc_ex.c ****       {
 539:Drivers/STM32L0xx_HAL_Driver/Src/stm32l0xx_hal_rcc_ex.c ****         frequency = HAL_RCC_GetSysClockFreq();
 540:Drivers/STM32L0xx_HAL_Driver/Src/stm32l0xx_hal_rcc_ex.c ****       }
 541:Drivers/STM32L0xx_HAL_Driver/Src/stm32l0xx_hal_rcc_ex.c ****       /* Check if LSE is ready  and if USART1 clock selection is LSE */
 542:Drivers/STM32L0xx_HAL_Driver/Src/stm32l0xx_hal_rcc_ex.c ****       else if (srcclk == RCC_USART1CLKSOURCE_LSE)
 543:Drivers/STM32L0xx_HAL_Driver/Src/stm32l0xx_hal_rcc_ex.c ****       {
 544:Drivers/STM32L0xx_HAL_Driver/Src/stm32l0xx_hal_rcc_ex.c ****         if (HAL_IS_BIT_SET(RCC->CSR, RCC_CSR_LSERDY))
 545:Drivers/STM32L0xx_HAL_Driver/Src/stm32l0xx_hal_rcc_ex.c ****         {
 546:Drivers/STM32L0xx_HAL_Driver/Src/stm32l0xx_hal_rcc_ex.c ****           frequency = LSE_VALUE;
 547:Drivers/STM32L0xx_HAL_Driver/Src/stm32l0xx_hal_rcc_ex.c ****         }
 548:Drivers/STM32L0xx_HAL_Driver/Src/stm32l0xx_hal_rcc_ex.c ****       }
 549:Drivers/STM32L0xx_HAL_Driver/Src/stm32l0xx_hal_rcc_ex.c ****       /* Clock not enabled for USART1*/
 550:Drivers/STM32L0xx_HAL_Driver/Src/stm32l0xx_hal_rcc_ex.c ****       else
 551:Drivers/STM32L0xx_HAL_Driver/Src/stm32l0xx_hal_rcc_ex.c ****       {
 552:Drivers/STM32L0xx_HAL_Driver/Src/stm32l0xx_hal_rcc_ex.c ****         /* nothing to do: frequency already initialized to 0U */
 553:Drivers/STM32L0xx_HAL_Driver/Src/stm32l0xx_hal_rcc_ex.c ****       }
 554:Drivers/STM32L0xx_HAL_Driver/Src/stm32l0xx_hal_rcc_ex.c ****       break;
 555:Drivers/STM32L0xx_HAL_Driver/Src/stm32l0xx_hal_rcc_ex.c ****     }
 556:Drivers/STM32L0xx_HAL_Driver/Src/stm32l0xx_hal_rcc_ex.c **** #endif /* RCC_CCIPR_USART1SEL */
 557:Drivers/STM32L0xx_HAL_Driver/Src/stm32l0xx_hal_rcc_ex.c ****   case RCC_PERIPHCLK_USART2:
 558:Drivers/STM32L0xx_HAL_Driver/Src/stm32l0xx_hal_rcc_ex.c ****     {
 559:Drivers/STM32L0xx_HAL_Driver/Src/stm32l0xx_hal_rcc_ex.c ****       /* Get the current USART2 source */
 560:Drivers/STM32L0xx_HAL_Driver/Src/stm32l0xx_hal_rcc_ex.c ****       srcclk = __HAL_RCC_GET_USART2_SOURCE();
 561:Drivers/STM32L0xx_HAL_Driver/Src/stm32l0xx_hal_rcc_ex.c **** 
 562:Drivers/STM32L0xx_HAL_Driver/Src/stm32l0xx_hal_rcc_ex.c ****       /* Check if USART2 clock selection is PCLK1 */
 563:Drivers/STM32L0xx_HAL_Driver/Src/stm32l0xx_hal_rcc_ex.c ****       if (srcclk == RCC_USART2CLKSOURCE_PCLK1)
 564:Drivers/STM32L0xx_HAL_Driver/Src/stm32l0xx_hal_rcc_ex.c ****       {
 565:Drivers/STM32L0xx_HAL_Driver/Src/stm32l0xx_hal_rcc_ex.c ****         frequency = HAL_RCC_GetPCLK1Freq();
 566:Drivers/STM32L0xx_HAL_Driver/Src/stm32l0xx_hal_rcc_ex.c ****       }
 567:Drivers/STM32L0xx_HAL_Driver/Src/stm32l0xx_hal_rcc_ex.c ****       /* Check if HSI is ready and if USART2 clock selection is HSI */
 568:Drivers/STM32L0xx_HAL_Driver/Src/stm32l0xx_hal_rcc_ex.c ****       else if (srcclk == RCC_USART2CLKSOURCE_HSI)
 569:Drivers/STM32L0xx_HAL_Driver/Src/stm32l0xx_hal_rcc_ex.c ****       {
 570:Drivers/STM32L0xx_HAL_Driver/Src/stm32l0xx_hal_rcc_ex.c ****         if (HAL_IS_BIT_SET(RCC->CR, RCC_CR_HSIRDY))
 571:Drivers/STM32L0xx_HAL_Driver/Src/stm32l0xx_hal_rcc_ex.c ****         {
 572:Drivers/STM32L0xx_HAL_Driver/Src/stm32l0xx_hal_rcc_ex.c ****           if (READ_BIT(RCC->CR, RCC_CR_HSIDIVF) != 0U)
 573:Drivers/STM32L0xx_HAL_Driver/Src/stm32l0xx_hal_rcc_ex.c ****           {
 574:Drivers/STM32L0xx_HAL_Driver/Src/stm32l0xx_hal_rcc_ex.c ****             frequency =  (HSI_VALUE >> 2U);
 575:Drivers/STM32L0xx_HAL_Driver/Src/stm32l0xx_hal_rcc_ex.c ****           }
 576:Drivers/STM32L0xx_HAL_Driver/Src/stm32l0xx_hal_rcc_ex.c ****           else
 577:Drivers/STM32L0xx_HAL_Driver/Src/stm32l0xx_hal_rcc_ex.c ****           {
 578:Drivers/STM32L0xx_HAL_Driver/Src/stm32l0xx_hal_rcc_ex.c ****             frequency =  HSI_VALUE;
 579:Drivers/STM32L0xx_HAL_Driver/Src/stm32l0xx_hal_rcc_ex.c ****           }
 580:Drivers/STM32L0xx_HAL_Driver/Src/stm32l0xx_hal_rcc_ex.c ****         }
 581:Drivers/STM32L0xx_HAL_Driver/Src/stm32l0xx_hal_rcc_ex.c ****       }
 582:Drivers/STM32L0xx_HAL_Driver/Src/stm32l0xx_hal_rcc_ex.c ****       /* Check if USART2 clock selection is SYSCLK */
 583:Drivers/STM32L0xx_HAL_Driver/Src/stm32l0xx_hal_rcc_ex.c ****       else if (srcclk == RCC_USART2CLKSOURCE_SYSCLK)
 584:Drivers/STM32L0xx_HAL_Driver/Src/stm32l0xx_hal_rcc_ex.c ****       {
 585:Drivers/STM32L0xx_HAL_Driver/Src/stm32l0xx_hal_rcc_ex.c ****         frequency = HAL_RCC_GetSysClockFreq();
ARM GAS  /tmp/ccJTnjvt.s 			page 21


 586:Drivers/STM32L0xx_HAL_Driver/Src/stm32l0xx_hal_rcc_ex.c ****       }
 587:Drivers/STM32L0xx_HAL_Driver/Src/stm32l0xx_hal_rcc_ex.c ****       /* Check if LSE is ready  and if USART2 clock selection is LSE */
 588:Drivers/STM32L0xx_HAL_Driver/Src/stm32l0xx_hal_rcc_ex.c ****       else if (srcclk == RCC_USART2CLKSOURCE_LSE)
 589:Drivers/STM32L0xx_HAL_Driver/Src/stm32l0xx_hal_rcc_ex.c ****       {
 590:Drivers/STM32L0xx_HAL_Driver/Src/stm32l0xx_hal_rcc_ex.c ****         if (HAL_IS_BIT_SET(RCC->CSR, RCC_CSR_LSERDY))
 591:Drivers/STM32L0xx_HAL_Driver/Src/stm32l0xx_hal_rcc_ex.c ****         {
 592:Drivers/STM32L0xx_HAL_Driver/Src/stm32l0xx_hal_rcc_ex.c ****           frequency = LSE_VALUE;
 593:Drivers/STM32L0xx_HAL_Driver/Src/stm32l0xx_hal_rcc_ex.c ****         }
 594:Drivers/STM32L0xx_HAL_Driver/Src/stm32l0xx_hal_rcc_ex.c ****       }
 595:Drivers/STM32L0xx_HAL_Driver/Src/stm32l0xx_hal_rcc_ex.c ****       /* Clock not enabled for USART2*/
 596:Drivers/STM32L0xx_HAL_Driver/Src/stm32l0xx_hal_rcc_ex.c ****       else
 597:Drivers/STM32L0xx_HAL_Driver/Src/stm32l0xx_hal_rcc_ex.c ****       {
 598:Drivers/STM32L0xx_HAL_Driver/Src/stm32l0xx_hal_rcc_ex.c ****         /* nothing to do: frequency already initialized to 0U */
 599:Drivers/STM32L0xx_HAL_Driver/Src/stm32l0xx_hal_rcc_ex.c ****       }
 600:Drivers/STM32L0xx_HAL_Driver/Src/stm32l0xx_hal_rcc_ex.c ****       break;
 601:Drivers/STM32L0xx_HAL_Driver/Src/stm32l0xx_hal_rcc_ex.c ****     }
 602:Drivers/STM32L0xx_HAL_Driver/Src/stm32l0xx_hal_rcc_ex.c ****   case RCC_PERIPHCLK_LPUART1:
 603:Drivers/STM32L0xx_HAL_Driver/Src/stm32l0xx_hal_rcc_ex.c ****     {
 604:Drivers/STM32L0xx_HAL_Driver/Src/stm32l0xx_hal_rcc_ex.c ****       /* Get the current LPUART1 source */
 605:Drivers/STM32L0xx_HAL_Driver/Src/stm32l0xx_hal_rcc_ex.c ****       srcclk = __HAL_RCC_GET_LPUART1_SOURCE();
 527              		.loc 1 605 7 view .LVU149
 528              		.loc 1 605 16 is_stmt 0 view .LVU150
 529 0012 6D4B     		ldr	r3, .L88
 530 0014 DA6C     		ldr	r2, [r3, #76]
 531              		.loc 1 605 14 view .LVU151
 532 0016 C023     		movs	r3, #192
 533 0018 1B01     		lsls	r3, r3, #4
 534 001a 1100     		movs	r1, r2
 535 001c 1940     		ands	r1, r3
 536              	.LVL31:
 606:Drivers/STM32L0xx_HAL_Driver/Src/stm32l0xx_hal_rcc_ex.c **** 
 607:Drivers/STM32L0xx_HAL_Driver/Src/stm32l0xx_hal_rcc_ex.c ****       /* Check if LPUART1 clock selection is PCLK1 */
 608:Drivers/STM32L0xx_HAL_Driver/Src/stm32l0xx_hal_rcc_ex.c ****       if (srcclk == RCC_LPUART1CLKSOURCE_PCLK1)
 537              		.loc 1 608 7 is_stmt 1 view .LVU152
 538              		.loc 1 608 10 is_stmt 0 view .LVU153
 539 001e 1A42     		tst	r2, r3
 540 0020 00D1     		bne	.LCB488
 541 0022 7DE0     		b	.L74	@long jump
 542              	.LCB488:
 609:Drivers/STM32L0xx_HAL_Driver/Src/stm32l0xx_hal_rcc_ex.c ****       {
 610:Drivers/STM32L0xx_HAL_Driver/Src/stm32l0xx_hal_rcc_ex.c ****         frequency = HAL_RCC_GetPCLK1Freq();
 611:Drivers/STM32L0xx_HAL_Driver/Src/stm32l0xx_hal_rcc_ex.c ****       }
 612:Drivers/STM32L0xx_HAL_Driver/Src/stm32l0xx_hal_rcc_ex.c ****       /* Check if HSI is ready and if LPUART1 clock selection is HSI */
 613:Drivers/STM32L0xx_HAL_Driver/Src/stm32l0xx_hal_rcc_ex.c ****       else if (srcclk == RCC_LPUART1CLKSOURCE_HSI)
 543              		.loc 1 613 12 is_stmt 1 view .LVU154
 544              		.loc 1 613 15 is_stmt 0 view .LVU155
 545 0024 8023     		movs	r3, #128
 546 0026 1B01     		lsls	r3, r3, #4
 547 0028 9942     		cmp	r1, r3
 548 002a 00D1     		bne	.LCB493
 549 002c 7BE0     		b	.L75	@long jump
 550              	.LCB493:
 614:Drivers/STM32L0xx_HAL_Driver/Src/stm32l0xx_hal_rcc_ex.c ****       {
 615:Drivers/STM32L0xx_HAL_Driver/Src/stm32l0xx_hal_rcc_ex.c ****         if (HAL_IS_BIT_SET(RCC->CR, RCC_CR_HSIRDY))
 616:Drivers/STM32L0xx_HAL_Driver/Src/stm32l0xx_hal_rcc_ex.c ****         {
 617:Drivers/STM32L0xx_HAL_Driver/Src/stm32l0xx_hal_rcc_ex.c ****           if (READ_BIT(RCC->CR, RCC_CR_HSIDIVF) != 0U)
 618:Drivers/STM32L0xx_HAL_Driver/Src/stm32l0xx_hal_rcc_ex.c ****           {
ARM GAS  /tmp/ccJTnjvt.s 			page 22


 619:Drivers/STM32L0xx_HAL_Driver/Src/stm32l0xx_hal_rcc_ex.c ****             frequency =  (HSI_VALUE >> 2U);
 620:Drivers/STM32L0xx_HAL_Driver/Src/stm32l0xx_hal_rcc_ex.c ****           }
 621:Drivers/STM32L0xx_HAL_Driver/Src/stm32l0xx_hal_rcc_ex.c ****           else
 622:Drivers/STM32L0xx_HAL_Driver/Src/stm32l0xx_hal_rcc_ex.c ****           {
 623:Drivers/STM32L0xx_HAL_Driver/Src/stm32l0xx_hal_rcc_ex.c ****             frequency =  HSI_VALUE;
 624:Drivers/STM32L0xx_HAL_Driver/Src/stm32l0xx_hal_rcc_ex.c ****           }
 625:Drivers/STM32L0xx_HAL_Driver/Src/stm32l0xx_hal_rcc_ex.c ****         }
 626:Drivers/STM32L0xx_HAL_Driver/Src/stm32l0xx_hal_rcc_ex.c ****       }
 627:Drivers/STM32L0xx_HAL_Driver/Src/stm32l0xx_hal_rcc_ex.c ****       /* Check if LPUART1 clock selection is SYSCLK */
 628:Drivers/STM32L0xx_HAL_Driver/Src/stm32l0xx_hal_rcc_ex.c ****       else if (srcclk == RCC_LPUART1CLKSOURCE_SYSCLK)
 551              		.loc 1 628 12 is_stmt 1 view .LVU156
 552              		.loc 1 628 15 is_stmt 0 view .LVU157
 553 002e 8023     		movs	r3, #128
 554 0030 DB00     		lsls	r3, r3, #3
 555 0032 9942     		cmp	r1, r3
 556 0034 00D1     		bne	.LCB498
 557 0036 84E0     		b	.L76	@long jump
 558              	.LCB498:
 629:Drivers/STM32L0xx_HAL_Driver/Src/stm32l0xx_hal_rcc_ex.c ****       {
 630:Drivers/STM32L0xx_HAL_Driver/Src/stm32l0xx_hal_rcc_ex.c ****         frequency = HAL_RCC_GetSysClockFreq();
 631:Drivers/STM32L0xx_HAL_Driver/Src/stm32l0xx_hal_rcc_ex.c ****       }
 632:Drivers/STM32L0xx_HAL_Driver/Src/stm32l0xx_hal_rcc_ex.c ****       /* Check if LSE is ready  and if LPUART1 clock selection is LSE */
 633:Drivers/STM32L0xx_HAL_Driver/Src/stm32l0xx_hal_rcc_ex.c ****       else if (srcclk == RCC_LPUART1CLKSOURCE_LSE)
 559              		.loc 1 633 12 is_stmt 1 view .LVU158
 560              		.loc 1 633 15 is_stmt 0 view .LVU159
 561 0038 C023     		movs	r3, #192
 562 003a 1B01     		lsls	r3, r3, #4
 563 003c 9942     		cmp	r1, r3
 564 003e 00D1     		bne	.LCB503
 565 0040 82E0     		b	.L77	@long jump
 566              	.LCB503:
 384:Drivers/STM32L0xx_HAL_Driver/Src/stm32l0xx_hal_rcc_ex.c ****   uint32_t temp_reg, clkprediv, srcclk;    /* no init needed */
 567              		.loc 1 384 12 view .LVU160
 568 0042 0020     		movs	r0, #0
 569              	.LVL32:
 384:Drivers/STM32L0xx_HAL_Driver/Src/stm32l0xx_hal_rcc_ex.c ****   uint32_t temp_reg, clkprediv, srcclk;    /* no init needed */
 570              		.loc 1 384 12 view .LVU161
 571 0044 00E0     		b	.L42
 572              	.LVL33:
 573              	.L73:
 393:Drivers/STM32L0xx_HAL_Driver/Src/stm32l0xx_hal_rcc_ex.c ****   {
 574              		.loc 1 393 3 view .LVU162
 575 0046 0020     		movs	r0, #0
 576              	.LVL34:
 577              	.L42:
 634:Drivers/STM32L0xx_HAL_Driver/Src/stm32l0xx_hal_rcc_ex.c ****       {
 635:Drivers/STM32L0xx_HAL_Driver/Src/stm32l0xx_hal_rcc_ex.c ****         if (HAL_IS_BIT_SET(RCC->CSR, RCC_CSR_LSERDY))
 636:Drivers/STM32L0xx_HAL_Driver/Src/stm32l0xx_hal_rcc_ex.c ****         {
 637:Drivers/STM32L0xx_HAL_Driver/Src/stm32l0xx_hal_rcc_ex.c ****           frequency = LSE_VALUE;
 638:Drivers/STM32L0xx_HAL_Driver/Src/stm32l0xx_hal_rcc_ex.c ****         }
 639:Drivers/STM32L0xx_HAL_Driver/Src/stm32l0xx_hal_rcc_ex.c ****       }
 640:Drivers/STM32L0xx_HAL_Driver/Src/stm32l0xx_hal_rcc_ex.c ****       /* Clock not enabled for LPUART1*/
 641:Drivers/STM32L0xx_HAL_Driver/Src/stm32l0xx_hal_rcc_ex.c ****       else
 642:Drivers/STM32L0xx_HAL_Driver/Src/stm32l0xx_hal_rcc_ex.c ****       {
 643:Drivers/STM32L0xx_HAL_Driver/Src/stm32l0xx_hal_rcc_ex.c ****         /* nothing to do: frequency already initialized to 0U */
 644:Drivers/STM32L0xx_HAL_Driver/Src/stm32l0xx_hal_rcc_ex.c ****       }
 645:Drivers/STM32L0xx_HAL_Driver/Src/stm32l0xx_hal_rcc_ex.c ****       break;
ARM GAS  /tmp/ccJTnjvt.s 			page 23


 646:Drivers/STM32L0xx_HAL_Driver/Src/stm32l0xx_hal_rcc_ex.c ****     }
 647:Drivers/STM32L0xx_HAL_Driver/Src/stm32l0xx_hal_rcc_ex.c ****   case RCC_PERIPHCLK_I2C1:
 648:Drivers/STM32L0xx_HAL_Driver/Src/stm32l0xx_hal_rcc_ex.c ****     {
 649:Drivers/STM32L0xx_HAL_Driver/Src/stm32l0xx_hal_rcc_ex.c ****       /* Get the current I2C1 source */
 650:Drivers/STM32L0xx_HAL_Driver/Src/stm32l0xx_hal_rcc_ex.c ****       srcclk = __HAL_RCC_GET_I2C1_SOURCE();
 651:Drivers/STM32L0xx_HAL_Driver/Src/stm32l0xx_hal_rcc_ex.c **** 
 652:Drivers/STM32L0xx_HAL_Driver/Src/stm32l0xx_hal_rcc_ex.c ****       /* Check if I2C1 clock selection is PCLK1 */
 653:Drivers/STM32L0xx_HAL_Driver/Src/stm32l0xx_hal_rcc_ex.c ****       if (srcclk == RCC_I2C1CLKSOURCE_PCLK1)
 654:Drivers/STM32L0xx_HAL_Driver/Src/stm32l0xx_hal_rcc_ex.c ****       {
 655:Drivers/STM32L0xx_HAL_Driver/Src/stm32l0xx_hal_rcc_ex.c ****         frequency = HAL_RCC_GetPCLK1Freq();
 656:Drivers/STM32L0xx_HAL_Driver/Src/stm32l0xx_hal_rcc_ex.c ****       }
 657:Drivers/STM32L0xx_HAL_Driver/Src/stm32l0xx_hal_rcc_ex.c ****       /* Check if HSI is ready and if I2C1 clock selection is HSI */
 658:Drivers/STM32L0xx_HAL_Driver/Src/stm32l0xx_hal_rcc_ex.c ****       else if (srcclk == RCC_I2C1CLKSOURCE_HSI)
 659:Drivers/STM32L0xx_HAL_Driver/Src/stm32l0xx_hal_rcc_ex.c ****       {
 660:Drivers/STM32L0xx_HAL_Driver/Src/stm32l0xx_hal_rcc_ex.c ****         if (HAL_IS_BIT_SET(RCC->CR, RCC_CR_HSIRDY))
 661:Drivers/STM32L0xx_HAL_Driver/Src/stm32l0xx_hal_rcc_ex.c ****         {
 662:Drivers/STM32L0xx_HAL_Driver/Src/stm32l0xx_hal_rcc_ex.c ****           if (READ_BIT(RCC->CR, RCC_CR_HSIDIVF) != 0U)
 663:Drivers/STM32L0xx_HAL_Driver/Src/stm32l0xx_hal_rcc_ex.c ****           {
 664:Drivers/STM32L0xx_HAL_Driver/Src/stm32l0xx_hal_rcc_ex.c ****             frequency =  (HSI_VALUE >> 2U);
 665:Drivers/STM32L0xx_HAL_Driver/Src/stm32l0xx_hal_rcc_ex.c ****           }
 666:Drivers/STM32L0xx_HAL_Driver/Src/stm32l0xx_hal_rcc_ex.c ****           else
 667:Drivers/STM32L0xx_HAL_Driver/Src/stm32l0xx_hal_rcc_ex.c ****           {
 668:Drivers/STM32L0xx_HAL_Driver/Src/stm32l0xx_hal_rcc_ex.c ****             frequency =  HSI_VALUE;
 669:Drivers/STM32L0xx_HAL_Driver/Src/stm32l0xx_hal_rcc_ex.c ****           }
 670:Drivers/STM32L0xx_HAL_Driver/Src/stm32l0xx_hal_rcc_ex.c ****         }
 671:Drivers/STM32L0xx_HAL_Driver/Src/stm32l0xx_hal_rcc_ex.c ****       }
 672:Drivers/STM32L0xx_HAL_Driver/Src/stm32l0xx_hal_rcc_ex.c ****       /* Check if I2C1 clock selection is SYSCLK */
 673:Drivers/STM32L0xx_HAL_Driver/Src/stm32l0xx_hal_rcc_ex.c ****       else if (srcclk == RCC_I2C1CLKSOURCE_SYSCLK)
 674:Drivers/STM32L0xx_HAL_Driver/Src/stm32l0xx_hal_rcc_ex.c ****       {
 675:Drivers/STM32L0xx_HAL_Driver/Src/stm32l0xx_hal_rcc_ex.c ****         frequency = HAL_RCC_GetSysClockFreq();
 676:Drivers/STM32L0xx_HAL_Driver/Src/stm32l0xx_hal_rcc_ex.c ****       }
 677:Drivers/STM32L0xx_HAL_Driver/Src/stm32l0xx_hal_rcc_ex.c ****       /* Clock not enabled for I2C1*/
 678:Drivers/STM32L0xx_HAL_Driver/Src/stm32l0xx_hal_rcc_ex.c ****       else
 679:Drivers/STM32L0xx_HAL_Driver/Src/stm32l0xx_hal_rcc_ex.c ****       {
 680:Drivers/STM32L0xx_HAL_Driver/Src/stm32l0xx_hal_rcc_ex.c ****         /* nothing to do: frequency already initialized to 0U */
 681:Drivers/STM32L0xx_HAL_Driver/Src/stm32l0xx_hal_rcc_ex.c ****       }
 682:Drivers/STM32L0xx_HAL_Driver/Src/stm32l0xx_hal_rcc_ex.c ****       break;
 683:Drivers/STM32L0xx_HAL_Driver/Src/stm32l0xx_hal_rcc_ex.c ****     }
 684:Drivers/STM32L0xx_HAL_Driver/Src/stm32l0xx_hal_rcc_ex.c **** #if defined(I2C2)
 685:Drivers/STM32L0xx_HAL_Driver/Src/stm32l0xx_hal_rcc_ex.c ****   case RCC_PERIPHCLK_I2C2:
 686:Drivers/STM32L0xx_HAL_Driver/Src/stm32l0xx_hal_rcc_ex.c ****     {
 687:Drivers/STM32L0xx_HAL_Driver/Src/stm32l0xx_hal_rcc_ex.c **** 
 688:Drivers/STM32L0xx_HAL_Driver/Src/stm32l0xx_hal_rcc_ex.c ****       /* Check if I2C2 on APB1 clock enabled*/
 689:Drivers/STM32L0xx_HAL_Driver/Src/stm32l0xx_hal_rcc_ex.c ****       if (READ_BIT(RCC->APB1ENR, (RCC_APB1ENR_I2C2EN))==RCC_APB1ENR_I2C2EN)
 690:Drivers/STM32L0xx_HAL_Driver/Src/stm32l0xx_hal_rcc_ex.c ****       {
 691:Drivers/STM32L0xx_HAL_Driver/Src/stm32l0xx_hal_rcc_ex.c ****         frequency = HAL_RCC_GetPCLK1Freq();
 692:Drivers/STM32L0xx_HAL_Driver/Src/stm32l0xx_hal_rcc_ex.c ****       }
 693:Drivers/STM32L0xx_HAL_Driver/Src/stm32l0xx_hal_rcc_ex.c ****       else
 694:Drivers/STM32L0xx_HAL_Driver/Src/stm32l0xx_hal_rcc_ex.c ****       {
 695:Drivers/STM32L0xx_HAL_Driver/Src/stm32l0xx_hal_rcc_ex.c ****         /* nothing to do: frequency already initialized to 0U */
 696:Drivers/STM32L0xx_HAL_Driver/Src/stm32l0xx_hal_rcc_ex.c ****       }
 697:Drivers/STM32L0xx_HAL_Driver/Src/stm32l0xx_hal_rcc_ex.c ****       break;
 698:Drivers/STM32L0xx_HAL_Driver/Src/stm32l0xx_hal_rcc_ex.c ****     }
 699:Drivers/STM32L0xx_HAL_Driver/Src/stm32l0xx_hal_rcc_ex.c **** #endif /* I2C2 */
 700:Drivers/STM32L0xx_HAL_Driver/Src/stm32l0xx_hal_rcc_ex.c **** 
 701:Drivers/STM32L0xx_HAL_Driver/Src/stm32l0xx_hal_rcc_ex.c **** #if defined(RCC_CCIPR_I2C3SEL)
 702:Drivers/STM32L0xx_HAL_Driver/Src/stm32l0xx_hal_rcc_ex.c ****   case RCC_PERIPHCLK_I2C3:
ARM GAS  /tmp/ccJTnjvt.s 			page 24


 703:Drivers/STM32L0xx_HAL_Driver/Src/stm32l0xx_hal_rcc_ex.c ****     {
 704:Drivers/STM32L0xx_HAL_Driver/Src/stm32l0xx_hal_rcc_ex.c ****       /* Get the current I2C3 source */
 705:Drivers/STM32L0xx_HAL_Driver/Src/stm32l0xx_hal_rcc_ex.c ****       srcclk = __HAL_RCC_GET_I2C3_SOURCE();
 706:Drivers/STM32L0xx_HAL_Driver/Src/stm32l0xx_hal_rcc_ex.c **** 
 707:Drivers/STM32L0xx_HAL_Driver/Src/stm32l0xx_hal_rcc_ex.c ****       /* Check if I2C3 clock selection is PCLK1 */
 708:Drivers/STM32L0xx_HAL_Driver/Src/stm32l0xx_hal_rcc_ex.c ****       if (srcclk == RCC_I2C3CLKSOURCE_PCLK1)
 709:Drivers/STM32L0xx_HAL_Driver/Src/stm32l0xx_hal_rcc_ex.c ****       {
 710:Drivers/STM32L0xx_HAL_Driver/Src/stm32l0xx_hal_rcc_ex.c ****         frequency = HAL_RCC_GetPCLK1Freq();
 711:Drivers/STM32L0xx_HAL_Driver/Src/stm32l0xx_hal_rcc_ex.c ****       }
 712:Drivers/STM32L0xx_HAL_Driver/Src/stm32l0xx_hal_rcc_ex.c ****       /* Check if HSI is ready and if I2C3 clock selection is HSI */
 713:Drivers/STM32L0xx_HAL_Driver/Src/stm32l0xx_hal_rcc_ex.c ****       else if (srcclk == RCC_I2C3CLKSOURCE_HSI)
 714:Drivers/STM32L0xx_HAL_Driver/Src/stm32l0xx_hal_rcc_ex.c ****       {
 715:Drivers/STM32L0xx_HAL_Driver/Src/stm32l0xx_hal_rcc_ex.c ****         if (HAL_IS_BIT_SET(RCC->CR, RCC_CR_HSIRDY))
 716:Drivers/STM32L0xx_HAL_Driver/Src/stm32l0xx_hal_rcc_ex.c ****         {
 717:Drivers/STM32L0xx_HAL_Driver/Src/stm32l0xx_hal_rcc_ex.c ****           if (READ_BIT(RCC->CR, RCC_CR_HSIDIVF) != 0U)
 718:Drivers/STM32L0xx_HAL_Driver/Src/stm32l0xx_hal_rcc_ex.c ****           {
 719:Drivers/STM32L0xx_HAL_Driver/Src/stm32l0xx_hal_rcc_ex.c ****             frequency =  (HSI_VALUE >> 2U);
 720:Drivers/STM32L0xx_HAL_Driver/Src/stm32l0xx_hal_rcc_ex.c ****           }
 721:Drivers/STM32L0xx_HAL_Driver/Src/stm32l0xx_hal_rcc_ex.c ****           else
 722:Drivers/STM32L0xx_HAL_Driver/Src/stm32l0xx_hal_rcc_ex.c ****           {
 723:Drivers/STM32L0xx_HAL_Driver/Src/stm32l0xx_hal_rcc_ex.c ****             frequency =  HSI_VALUE;
 724:Drivers/STM32L0xx_HAL_Driver/Src/stm32l0xx_hal_rcc_ex.c ****           }
 725:Drivers/STM32L0xx_HAL_Driver/Src/stm32l0xx_hal_rcc_ex.c ****         }
 726:Drivers/STM32L0xx_HAL_Driver/Src/stm32l0xx_hal_rcc_ex.c ****       }
 727:Drivers/STM32L0xx_HAL_Driver/Src/stm32l0xx_hal_rcc_ex.c ****       /* Check if I2C3 clock selection is SYSCLK */
 728:Drivers/STM32L0xx_HAL_Driver/Src/stm32l0xx_hal_rcc_ex.c ****       else if (srcclk == RCC_I2C3CLKSOURCE_SYSCLK)
 729:Drivers/STM32L0xx_HAL_Driver/Src/stm32l0xx_hal_rcc_ex.c ****       {
 730:Drivers/STM32L0xx_HAL_Driver/Src/stm32l0xx_hal_rcc_ex.c ****         frequency = HAL_RCC_GetSysClockFreq();
 731:Drivers/STM32L0xx_HAL_Driver/Src/stm32l0xx_hal_rcc_ex.c ****       }
 732:Drivers/STM32L0xx_HAL_Driver/Src/stm32l0xx_hal_rcc_ex.c ****       /* Clock not enabled for I2C3*/
 733:Drivers/STM32L0xx_HAL_Driver/Src/stm32l0xx_hal_rcc_ex.c ****       else
 734:Drivers/STM32L0xx_HAL_Driver/Src/stm32l0xx_hal_rcc_ex.c ****       {
 735:Drivers/STM32L0xx_HAL_Driver/Src/stm32l0xx_hal_rcc_ex.c ****         /* nothing to do: frequency already initialized to 0U */
 736:Drivers/STM32L0xx_HAL_Driver/Src/stm32l0xx_hal_rcc_ex.c ****       }
 737:Drivers/STM32L0xx_HAL_Driver/Src/stm32l0xx_hal_rcc_ex.c ****       break;
 738:Drivers/STM32L0xx_HAL_Driver/Src/stm32l0xx_hal_rcc_ex.c ****     }
 739:Drivers/STM32L0xx_HAL_Driver/Src/stm32l0xx_hal_rcc_ex.c **** #endif /* RCC_CCIPR_I2C3SEL */
 740:Drivers/STM32L0xx_HAL_Driver/Src/stm32l0xx_hal_rcc_ex.c ****   default:
 741:Drivers/STM32L0xx_HAL_Driver/Src/stm32l0xx_hal_rcc_ex.c ****     {
 742:Drivers/STM32L0xx_HAL_Driver/Src/stm32l0xx_hal_rcc_ex.c ****       break;
 743:Drivers/STM32L0xx_HAL_Driver/Src/stm32l0xx_hal_rcc_ex.c ****     }
 744:Drivers/STM32L0xx_HAL_Driver/Src/stm32l0xx_hal_rcc_ex.c ****   }
 745:Drivers/STM32L0xx_HAL_Driver/Src/stm32l0xx_hal_rcc_ex.c ****   return(frequency);
 746:Drivers/STM32L0xx_HAL_Driver/Src/stm32l0xx_hal_rcc_ex.c **** }
 578              		.loc 1 746 1 view .LVU163
 579              		@ sp needed
 580 0048 10BD     		pop	{r4, pc}
 581              	.LVL35:
 582              	.L44:
 393:Drivers/STM32L0xx_HAL_Driver/Src/stm32l0xx_hal_rcc_ex.c ****   {
 583              		.loc 1 393 3 view .LVU164
 584 004a 2028     		cmp	r0, #32
 585 004c 00D0     		beq	.LCB527
 586 004e ADE0     		b	.L58	@long jump
 587              	.LCB527:
 401:Drivers/STM32L0xx_HAL_Driver/Src/stm32l0xx_hal_rcc_ex.c **** 
 588              		.loc 1 401 7 is_stmt 1 view .LVU165
ARM GAS  /tmp/ccJTnjvt.s 			page 25


 401:Drivers/STM32L0xx_HAL_Driver/Src/stm32l0xx_hal_rcc_ex.c **** 
 589              		.loc 1 401 16 is_stmt 0 view .LVU166
 590 0050 5D4B     		ldr	r3, .L88
 591 0052 196D     		ldr	r1, [r3, #80]
 592              	.LVL36:
 404:Drivers/STM32L0xx_HAL_Driver/Src/stm32l0xx_hal_rcc_ex.c **** 
 593              		.loc 1 404 7 is_stmt 1 view .LVU167
 404:Drivers/STM32L0xx_HAL_Driver/Src/stm32l0xx_hal_rcc_ex.c **** 
 594              		.loc 1 404 16 is_stmt 0 view .LVU168
 595 0054 1B6D     		ldr	r3, [r3, #80]
 404:Drivers/STM32L0xx_HAL_Driver/Src/stm32l0xx_hal_rcc_ex.c **** 
 596              		.loc 1 404 14 view .LVU169
 597 0056 C022     		movs	r2, #192
 598 0058 9202     		lsls	r2, r2, #10
 599 005a 1340     		ands	r3, r2
 600              	.LVL37:
 407:Drivers/STM32L0xx_HAL_Driver/Src/stm32l0xx_hal_rcc_ex.c ****       {
 601              		.loc 1 407 7 is_stmt 1 view .LVU170
 407:Drivers/STM32L0xx_HAL_Driver/Src/stm32l0xx_hal_rcc_ex.c ****       {
 602              		.loc 1 407 10 is_stmt 0 view .LVU171
 603 005c 8022     		movs	r2, #128
 604 005e 5202     		lsls	r2, r2, #9
 605 0060 9342     		cmp	r3, r2
 606 0062 09D0     		beq	.L78
 607              	.L48:
 412:Drivers/STM32L0xx_HAL_Driver/Src/stm32l0xx_hal_rcc_ex.c ****       {
 608              		.loc 1 412 12 is_stmt 1 view .LVU172
 412:Drivers/STM32L0xx_HAL_Driver/Src/stm32l0xx_hal_rcc_ex.c ****       {
 609              		.loc 1 412 15 is_stmt 0 view .LVU173
 610 0064 8022     		movs	r2, #128
 611 0066 9202     		lsls	r2, r2, #10
 612 0068 9342     		cmp	r3, r2
 613 006a 0AD0     		beq	.L79
 420:Drivers/STM32L0xx_HAL_Driver/Src/stm32l0xx_hal_rcc_ex.c ****       {
 614              		.loc 1 420 12 is_stmt 1 view .LVU174
 420:Drivers/STM32L0xx_HAL_Driver/Src/stm32l0xx_hal_rcc_ex.c ****       {
 615              		.loc 1 420 15 is_stmt 0 view .LVU175
 616 006c C022     		movs	r2, #192
 617 006e 9202     		lsls	r2, r2, #10
 618 0070 9342     		cmp	r3, r2
 619 0072 0DD0     		beq	.L80
 384:Drivers/STM32L0xx_HAL_Driver/Src/stm32l0xx_hal_rcc_ex.c ****   uint32_t temp_reg, clkprediv, srcclk;    /* no init needed */
 620              		.loc 1 384 12 view .LVU176
 621 0074 0020     		movs	r0, #0
 622              	.LVL38:
 384:Drivers/STM32L0xx_HAL_Driver/Src/stm32l0xx_hal_rcc_ex.c ****   uint32_t temp_reg, clkprediv, srcclk;    /* no init needed */
 623              		.loc 1 384 12 view .LVU177
 624 0076 E7E7     		b	.L42
 625              	.LVL39:
 626              	.L78:
 407:Drivers/STM32L0xx_HAL_Driver/Src/stm32l0xx_hal_rcc_ex.c ****       {
 627              		.loc 1 407 44 discriminator 1 view .LVU178
 628 0078 8A05     		lsls	r2, r1, #22
 629 007a F3D5     		bpl	.L48
 409:Drivers/STM32L0xx_HAL_Driver/Src/stm32l0xx_hal_rcc_ex.c ****       }
 630              		.loc 1 409 19 view .LVU179
 631 007c 8020     		movs	r0, #128
ARM GAS  /tmp/ccJTnjvt.s 			page 26


 632              	.LVL40:
 409:Drivers/STM32L0xx_HAL_Driver/Src/stm32l0xx_hal_rcc_ex.c ****       }
 633              		.loc 1 409 19 view .LVU180
 634 007e 0002     		lsls	r0, r0, #8
 635 0080 E2E7     		b	.L42
 636              	.LVL41:
 637              	.L79:
 414:Drivers/STM32L0xx_HAL_Driver/Src/stm32l0xx_hal_rcc_ex.c ****         {
 638              		.loc 1 414 9 is_stmt 1 view .LVU181
 414:Drivers/STM32L0xx_HAL_Driver/Src/stm32l0xx_hal_rcc_ex.c ****         {
 639              		.loc 1 414 13 is_stmt 0 view .LVU182
 640 0082 0223     		movs	r3, #2
 641              	.LVL42:
 414:Drivers/STM32L0xx_HAL_Driver/Src/stm32l0xx_hal_rcc_ex.c ****         {
 642              		.loc 1 414 13 view .LVU183
 643 0084 1800     		movs	r0, r3
 644              	.LVL43:
 414:Drivers/STM32L0xx_HAL_Driver/Src/stm32l0xx_hal_rcc_ex.c ****         {
 645              		.loc 1 414 13 view .LVU184
 646 0086 0840     		ands	r0, r1
 414:Drivers/STM32L0xx_HAL_Driver/Src/stm32l0xx_hal_rcc_ex.c ****         {
 647              		.loc 1 414 12 view .LVU185
 648 0088 0B42     		tst	r3, r1
 649 008a DDD0     		beq	.L42
 416:Drivers/STM32L0xx_HAL_Driver/Src/stm32l0xx_hal_rcc_ex.c ****         }
 650              		.loc 1 416 21 view .LVU186
 651 008c 4F48     		ldr	r0, .L88+4
 652 008e DBE7     		b	.L42
 653              	.LVL44:
 654              	.L80:
 422:Drivers/STM32L0xx_HAL_Driver/Src/stm32l0xx_hal_rcc_ex.c ****         {
 655              		.loc 1 422 9 is_stmt 1 view .LVU187
 422:Drivers/STM32L0xx_HAL_Driver/Src/stm32l0xx_hal_rcc_ex.c ****         {
 656              		.loc 1 422 13 is_stmt 0 view .LVU188
 657 0090 4D4B     		ldr	r3, .L88
 658              	.LVL45:
 422:Drivers/STM32L0xx_HAL_Driver/Src/stm32l0xx_hal_rcc_ex.c ****         {
 659              		.loc 1 422 13 view .LVU189
 660 0092 1A68     		ldr	r2, [r3]
 661 0094 8023     		movs	r3, #128
 662 0096 9B02     		lsls	r3, r3, #10
 663 0098 1000     		movs	r0, r2
 664              	.LVL46:
 422:Drivers/STM32L0xx_HAL_Driver/Src/stm32l0xx_hal_rcc_ex.c ****         {
 665              		.loc 1 422 13 view .LVU190
 666 009a 1840     		ands	r0, r3
 422:Drivers/STM32L0xx_HAL_Driver/Src/stm32l0xx_hal_rcc_ex.c ****         {
 667              		.loc 1 422 12 view .LVU191
 668 009c 1A42     		tst	r2, r3
 669 009e D3D0     		beq	.L42
 425:Drivers/STM32L0xx_HAL_Driver/Src/stm32l0xx_hal_rcc_ex.c **** 
 670              		.loc 1 425 11 is_stmt 1 view .LVU192
 425:Drivers/STM32L0xx_HAL_Driver/Src/stm32l0xx_hal_rcc_ex.c **** 
 671              		.loc 1 425 23 is_stmt 0 view .LVU193
 672 00a0 494B     		ldr	r3, .L88
 673 00a2 1B68     		ldr	r3, [r3]
 425:Drivers/STM32L0xx_HAL_Driver/Src/stm32l0xx_hal_rcc_ex.c **** 
ARM GAS  /tmp/ccJTnjvt.s 			page 27


 674              		.loc 1 425 21 view .LVU194
 675 00a4 C022     		movs	r2, #192
 676 00a6 9203     		lsls	r2, r2, #14
 677 00a8 1340     		ands	r3, r2
 678              	.LVL47:
 427:Drivers/STM32L0xx_HAL_Driver/Src/stm32l0xx_hal_rcc_ex.c ****           {
 679              		.loc 1 427 11 is_stmt 1 view .LVU195
 680 00aa 8022     		movs	r2, #128
 681 00ac 9203     		lsls	r2, r2, #14
 682 00ae 9342     		cmp	r3, r2
 683 00b0 7ED0     		beq	.L62
 684 00b2 C022     		movs	r2, #192
 685 00b4 9203     		lsls	r2, r2, #14
 686 00b6 9342     		cmp	r3, r2
 687 00b8 7CD0     		beq	.L63
 688 00ba 8022     		movs	r2, #128
 689 00bc 5203     		lsls	r2, r2, #13
 690 00be 9342     		cmp	r3, r2
 691 00c0 7AD1     		bne	.L64
 441:Drivers/STM32L0xx_HAL_Driver/Src/stm32l0xx_hal_rcc_ex.c ****               break;
 692              		.loc 1 441 25 is_stmt 0 view .LVU196
 693 00c2 4348     		ldr	r0, .L88+8
 694 00c4 C0E7     		b	.L42
 695              	.LVL48:
 696              	.L45:
 560:Drivers/STM32L0xx_HAL_Driver/Src/stm32l0xx_hal_rcc_ex.c **** 
 697              		.loc 1 560 7 is_stmt 1 view .LVU197
 560:Drivers/STM32L0xx_HAL_Driver/Src/stm32l0xx_hal_rcc_ex.c **** 
 698              		.loc 1 560 16 is_stmt 0 view .LVU198
 699 00c6 404B     		ldr	r3, .L88
 700 00c8 DB6C     		ldr	r3, [r3, #76]
 560:Drivers/STM32L0xx_HAL_Driver/Src/stm32l0xx_hal_rcc_ex.c **** 
 701              		.loc 1 560 14 view .LVU199
 702 00ca 0C22     		movs	r2, #12
 703 00cc 1100     		movs	r1, r2
 704 00ce 1940     		ands	r1, r3
 705              	.LVL49:
 563:Drivers/STM32L0xx_HAL_Driver/Src/stm32l0xx_hal_rcc_ex.c ****       {
 706              		.loc 1 563 7 is_stmt 1 view .LVU200
 563:Drivers/STM32L0xx_HAL_Driver/Src/stm32l0xx_hal_rcc_ex.c ****       {
 707              		.loc 1 563 10 is_stmt 0 view .LVU201
 708 00d0 1A42     		tst	r2, r3
 709 00d2 07D0     		beq	.L81
 568:Drivers/STM32L0xx_HAL_Driver/Src/stm32l0xx_hal_rcc_ex.c ****       {
 710              		.loc 1 568 12 is_stmt 1 view .LVU202
 568:Drivers/STM32L0xx_HAL_Driver/Src/stm32l0xx_hal_rcc_ex.c ****       {
 711              		.loc 1 568 15 is_stmt 0 view .LVU203
 712 00d4 0829     		cmp	r1, #8
 713 00d6 08D0     		beq	.L82
 583:Drivers/STM32L0xx_HAL_Driver/Src/stm32l0xx_hal_rcc_ex.c ****       {
 714              		.loc 1 583 12 is_stmt 1 view .LVU204
 583:Drivers/STM32L0xx_HAL_Driver/Src/stm32l0xx_hal_rcc_ex.c ****       {
 715              		.loc 1 583 15 is_stmt 0 view .LVU205
 716 00d8 0429     		cmp	r1, #4
 717 00da 13D0     		beq	.L83
 588:Drivers/STM32L0xx_HAL_Driver/Src/stm32l0xx_hal_rcc_ex.c ****       {
 718              		.loc 1 588 12 is_stmt 1 view .LVU206
ARM GAS  /tmp/ccJTnjvt.s 			page 28


 588:Drivers/STM32L0xx_HAL_Driver/Src/stm32l0xx_hal_rcc_ex.c ****       {
 719              		.loc 1 588 15 is_stmt 0 view .LVU207
 720 00dc 0C29     		cmp	r1, #12
 721 00de 14D0     		beq	.L84
 384:Drivers/STM32L0xx_HAL_Driver/Src/stm32l0xx_hal_rcc_ex.c ****   uint32_t temp_reg, clkprediv, srcclk;    /* no init needed */
 722              		.loc 1 384 12 view .LVU208
 723 00e0 0020     		movs	r0, #0
 724              	.LVL50:
 384:Drivers/STM32L0xx_HAL_Driver/Src/stm32l0xx_hal_rcc_ex.c ****   uint32_t temp_reg, clkprediv, srcclk;    /* no init needed */
 725              		.loc 1 384 12 view .LVU209
 726 00e2 B1E7     		b	.L42
 727              	.LVL51:
 728              	.L81:
 565:Drivers/STM32L0xx_HAL_Driver/Src/stm32l0xx_hal_rcc_ex.c ****       }
 729              		.loc 1 565 9 is_stmt 1 view .LVU210
 565:Drivers/STM32L0xx_HAL_Driver/Src/stm32l0xx_hal_rcc_ex.c ****       }
 730              		.loc 1 565 21 is_stmt 0 view .LVU211
 731 00e4 FFF7FEFF 		bl	HAL_RCC_GetPCLK1Freq
 732              	.LVL52:
 565:Drivers/STM32L0xx_HAL_Driver/Src/stm32l0xx_hal_rcc_ex.c ****       }
 733              		.loc 1 565 21 view .LVU212
 734 00e8 AEE7     		b	.L42
 735              	.LVL53:
 736              	.L82:
 570:Drivers/STM32L0xx_HAL_Driver/Src/stm32l0xx_hal_rcc_ex.c ****         {
 737              		.loc 1 570 9 is_stmt 1 view .LVU213
 570:Drivers/STM32L0xx_HAL_Driver/Src/stm32l0xx_hal_rcc_ex.c ****         {
 738              		.loc 1 570 13 is_stmt 0 view .LVU214
 739 00ea 374B     		ldr	r3, .L88
 740 00ec 1B68     		ldr	r3, [r3]
 741 00ee 0422     		movs	r2, #4
 742 00f0 1000     		movs	r0, r2
 743              	.LVL54:
 570:Drivers/STM32L0xx_HAL_Driver/Src/stm32l0xx_hal_rcc_ex.c ****         {
 744              		.loc 1 570 13 view .LVU215
 745 00f2 1840     		ands	r0, r3
 570:Drivers/STM32L0xx_HAL_Driver/Src/stm32l0xx_hal_rcc_ex.c ****         {
 746              		.loc 1 570 12 view .LVU216
 747 00f4 1A42     		tst	r2, r3
 748 00f6 A7D0     		beq	.L42
 572:Drivers/STM32L0xx_HAL_Driver/Src/stm32l0xx_hal_rcc_ex.c ****           {
 749              		.loc 1 572 11 is_stmt 1 view .LVU217
 572:Drivers/STM32L0xx_HAL_Driver/Src/stm32l0xx_hal_rcc_ex.c ****           {
 750              		.loc 1 572 15 is_stmt 0 view .LVU218
 751 00f8 334B     		ldr	r3, .L88
 752 00fa 1B68     		ldr	r3, [r3]
 572:Drivers/STM32L0xx_HAL_Driver/Src/stm32l0xx_hal_rcc_ex.c ****           {
 753              		.loc 1 572 14 view .LVU219
 754 00fc DB06     		lsls	r3, r3, #27
 755 00fe 5DD5     		bpl	.L65
 574:Drivers/STM32L0xx_HAL_Driver/Src/stm32l0xx_hal_rcc_ex.c ****           }
 756              		.loc 1 574 23 view .LVU220
 757 0100 3448     		ldr	r0, .L88+12
 758 0102 A1E7     		b	.L42
 759              	.LVL55:
 760              	.L83:
 585:Drivers/STM32L0xx_HAL_Driver/Src/stm32l0xx_hal_rcc_ex.c ****       }
ARM GAS  /tmp/ccJTnjvt.s 			page 29


 761              		.loc 1 585 9 is_stmt 1 view .LVU221
 585:Drivers/STM32L0xx_HAL_Driver/Src/stm32l0xx_hal_rcc_ex.c ****       }
 762              		.loc 1 585 21 is_stmt 0 view .LVU222
 763 0104 FFF7FEFF 		bl	HAL_RCC_GetSysClockFreq
 764              	.LVL56:
 585:Drivers/STM32L0xx_HAL_Driver/Src/stm32l0xx_hal_rcc_ex.c ****       }
 765              		.loc 1 585 21 view .LVU223
 766 0108 9EE7     		b	.L42
 767              	.LVL57:
 768              	.L84:
 590:Drivers/STM32L0xx_HAL_Driver/Src/stm32l0xx_hal_rcc_ex.c ****         {
 769              		.loc 1 590 9 is_stmt 1 view .LVU224
 590:Drivers/STM32L0xx_HAL_Driver/Src/stm32l0xx_hal_rcc_ex.c ****         {
 770              		.loc 1 590 13 is_stmt 0 view .LVU225
 771 010a 2F4B     		ldr	r3, .L88
 772 010c 1A6D     		ldr	r2, [r3, #80]
 773 010e 8023     		movs	r3, #128
 774 0110 9B00     		lsls	r3, r3, #2
 775 0112 1000     		movs	r0, r2
 776              	.LVL58:
 590:Drivers/STM32L0xx_HAL_Driver/Src/stm32l0xx_hal_rcc_ex.c ****         {
 777              		.loc 1 590 13 view .LVU226
 778 0114 1840     		ands	r0, r3
 590:Drivers/STM32L0xx_HAL_Driver/Src/stm32l0xx_hal_rcc_ex.c ****         {
 779              		.loc 1 590 12 view .LVU227
 780 0116 1A42     		tst	r2, r3
 781 0118 96D0     		beq	.L42
 592:Drivers/STM32L0xx_HAL_Driver/Src/stm32l0xx_hal_rcc_ex.c ****         }
 782              		.loc 1 592 21 view .LVU228
 783 011a 8020     		movs	r0, #128
 784 011c 0002     		lsls	r0, r0, #8
 785 011e 93E7     		b	.L42
 786              	.LVL59:
 787              	.L74:
 610:Drivers/STM32L0xx_HAL_Driver/Src/stm32l0xx_hal_rcc_ex.c ****       }
 788              		.loc 1 610 9 is_stmt 1 view .LVU229
 610:Drivers/STM32L0xx_HAL_Driver/Src/stm32l0xx_hal_rcc_ex.c ****       }
 789              		.loc 1 610 21 is_stmt 0 view .LVU230
 790 0120 FFF7FEFF 		bl	HAL_RCC_GetPCLK1Freq
 791              	.LVL60:
 610:Drivers/STM32L0xx_HAL_Driver/Src/stm32l0xx_hal_rcc_ex.c ****       }
 792              		.loc 1 610 21 view .LVU231
 793 0124 90E7     		b	.L42
 794              	.LVL61:
 795              	.L75:
 615:Drivers/STM32L0xx_HAL_Driver/Src/stm32l0xx_hal_rcc_ex.c ****         {
 796              		.loc 1 615 9 is_stmt 1 view .LVU232
 615:Drivers/STM32L0xx_HAL_Driver/Src/stm32l0xx_hal_rcc_ex.c ****         {
 797              		.loc 1 615 13 is_stmt 0 view .LVU233
 798 0126 284B     		ldr	r3, .L88
 799 0128 1B68     		ldr	r3, [r3]
 800 012a 0422     		movs	r2, #4
 801 012c 1000     		movs	r0, r2
 802              	.LVL62:
 615:Drivers/STM32L0xx_HAL_Driver/Src/stm32l0xx_hal_rcc_ex.c ****         {
 803              		.loc 1 615 13 view .LVU234
 804 012e 1840     		ands	r0, r3
ARM GAS  /tmp/ccJTnjvt.s 			page 30


 615:Drivers/STM32L0xx_HAL_Driver/Src/stm32l0xx_hal_rcc_ex.c ****         {
 805              		.loc 1 615 12 view .LVU235
 806 0130 1A42     		tst	r2, r3
 807 0132 00D1     		bne	.LCB739
 808 0134 88E7     		b	.L42	@long jump
 809              	.LCB739:
 617:Drivers/STM32L0xx_HAL_Driver/Src/stm32l0xx_hal_rcc_ex.c ****           {
 810              		.loc 1 617 11 is_stmt 1 view .LVU236
 617:Drivers/STM32L0xx_HAL_Driver/Src/stm32l0xx_hal_rcc_ex.c ****           {
 811              		.loc 1 617 15 is_stmt 0 view .LVU237
 812 0136 244B     		ldr	r3, .L88
 813 0138 1B68     		ldr	r3, [r3]
 617:Drivers/STM32L0xx_HAL_Driver/Src/stm32l0xx_hal_rcc_ex.c ****           {
 814              		.loc 1 617 14 view .LVU238
 815 013a DB06     		lsls	r3, r3, #27
 816 013c 40D5     		bpl	.L68
 619:Drivers/STM32L0xx_HAL_Driver/Src/stm32l0xx_hal_rcc_ex.c ****           }
 817              		.loc 1 619 23 view .LVU239
 818 013e 2548     		ldr	r0, .L88+12
 819 0140 82E7     		b	.L42
 820              	.LVL63:
 821              	.L76:
 630:Drivers/STM32L0xx_HAL_Driver/Src/stm32l0xx_hal_rcc_ex.c ****       }
 822              		.loc 1 630 9 is_stmt 1 view .LVU240
 630:Drivers/STM32L0xx_HAL_Driver/Src/stm32l0xx_hal_rcc_ex.c ****       }
 823              		.loc 1 630 21 is_stmt 0 view .LVU241
 824 0142 FFF7FEFF 		bl	HAL_RCC_GetSysClockFreq
 825              	.LVL64:
 630:Drivers/STM32L0xx_HAL_Driver/Src/stm32l0xx_hal_rcc_ex.c ****       }
 826              		.loc 1 630 21 view .LVU242
 827 0146 7FE7     		b	.L42
 828              	.LVL65:
 829              	.L77:
 635:Drivers/STM32L0xx_HAL_Driver/Src/stm32l0xx_hal_rcc_ex.c ****         {
 830              		.loc 1 635 9 is_stmt 1 view .LVU243
 635:Drivers/STM32L0xx_HAL_Driver/Src/stm32l0xx_hal_rcc_ex.c ****         {
 831              		.loc 1 635 13 is_stmt 0 view .LVU244
 832 0148 1F4B     		ldr	r3, .L88
 833 014a 1A6D     		ldr	r2, [r3, #80]
 834 014c 8023     		movs	r3, #128
 835 014e 9B00     		lsls	r3, r3, #2
 836 0150 1000     		movs	r0, r2
 837              	.LVL66:
 635:Drivers/STM32L0xx_HAL_Driver/Src/stm32l0xx_hal_rcc_ex.c ****         {
 838              		.loc 1 635 13 view .LVU245
 839 0152 1840     		ands	r0, r3
 635:Drivers/STM32L0xx_HAL_Driver/Src/stm32l0xx_hal_rcc_ex.c ****         {
 840              		.loc 1 635 12 view .LVU246
 841 0154 1A42     		tst	r2, r3
 842 0156 00D1     		bne	.LCB774
 843 0158 76E7     		b	.L42	@long jump
 844              	.LCB774:
 637:Drivers/STM32L0xx_HAL_Driver/Src/stm32l0xx_hal_rcc_ex.c ****         }
 845              		.loc 1 637 21 view .LVU247
 846 015a 8020     		movs	r0, #128
 847 015c 0002     		lsls	r0, r0, #8
 848 015e 73E7     		b	.L42
ARM GAS  /tmp/ccJTnjvt.s 			page 31


 849              	.LVL67:
 850              	.L43:
 650:Drivers/STM32L0xx_HAL_Driver/Src/stm32l0xx_hal_rcc_ex.c **** 
 851              		.loc 1 650 7 is_stmt 1 view .LVU248
 650:Drivers/STM32L0xx_HAL_Driver/Src/stm32l0xx_hal_rcc_ex.c **** 
 852              		.loc 1 650 16 is_stmt 0 view .LVU249
 853 0160 194B     		ldr	r3, .L88
 854 0162 DA6C     		ldr	r2, [r3, #76]
 650:Drivers/STM32L0xx_HAL_Driver/Src/stm32l0xx_hal_rcc_ex.c **** 
 855              		.loc 1 650 14 view .LVU250
 856 0164 C023     		movs	r3, #192
 857 0166 9B01     		lsls	r3, r3, #6
 858 0168 1100     		movs	r1, r2
 859 016a 1940     		ands	r1, r3
 860              	.LVL68:
 653:Drivers/STM32L0xx_HAL_Driver/Src/stm32l0xx_hal_rcc_ex.c ****       {
 861              		.loc 1 653 7 is_stmt 1 view .LVU251
 653:Drivers/STM32L0xx_HAL_Driver/Src/stm32l0xx_hal_rcc_ex.c ****       {
 862              		.loc 1 653 10 is_stmt 0 view .LVU252
 863 016c 1A42     		tst	r2, r3
 864 016e 09D0     		beq	.L85
 658:Drivers/STM32L0xx_HAL_Driver/Src/stm32l0xx_hal_rcc_ex.c ****       {
 865              		.loc 1 658 12 is_stmt 1 view .LVU253
 658:Drivers/STM32L0xx_HAL_Driver/Src/stm32l0xx_hal_rcc_ex.c ****       {
 866              		.loc 1 658 15 is_stmt 0 view .LVU254
 867 0170 8023     		movs	r3, #128
 868 0172 9B01     		lsls	r3, r3, #6
 869 0174 9942     		cmp	r1, r3
 870 0176 08D0     		beq	.L86
 673:Drivers/STM32L0xx_HAL_Driver/Src/stm32l0xx_hal_rcc_ex.c ****       {
 871              		.loc 1 673 12 is_stmt 1 view .LVU255
 673:Drivers/STM32L0xx_HAL_Driver/Src/stm32l0xx_hal_rcc_ex.c ****       {
 872              		.loc 1 673 15 is_stmt 0 view .LVU256
 873 0178 8023     		movs	r3, #128
 874 017a 5B01     		lsls	r3, r3, #5
 875 017c 9942     		cmp	r1, r3
 876 017e 12D0     		beq	.L87
 384:Drivers/STM32L0xx_HAL_Driver/Src/stm32l0xx_hal_rcc_ex.c ****   uint32_t temp_reg, clkprediv, srcclk;    /* no init needed */
 877              		.loc 1 384 12 view .LVU257
 878 0180 0020     		movs	r0, #0
 879              	.LVL69:
 745:Drivers/STM32L0xx_HAL_Driver/Src/stm32l0xx_hal_rcc_ex.c **** }
 880              		.loc 1 745 3 is_stmt 1 view .LVU258
 745:Drivers/STM32L0xx_HAL_Driver/Src/stm32l0xx_hal_rcc_ex.c **** }
 881              		.loc 1 745 9 is_stmt 0 view .LVU259
 882 0182 61E7     		b	.L42
 883              	.LVL70:
 884              	.L85:
 655:Drivers/STM32L0xx_HAL_Driver/Src/stm32l0xx_hal_rcc_ex.c ****       }
 885              		.loc 1 655 9 is_stmt 1 view .LVU260
 655:Drivers/STM32L0xx_HAL_Driver/Src/stm32l0xx_hal_rcc_ex.c ****       }
 886              		.loc 1 655 21 is_stmt 0 view .LVU261
 887 0184 FFF7FEFF 		bl	HAL_RCC_GetPCLK1Freq
 888              	.LVL71:
 655:Drivers/STM32L0xx_HAL_Driver/Src/stm32l0xx_hal_rcc_ex.c ****       }
 889              		.loc 1 655 21 view .LVU262
 890 0188 5EE7     		b	.L42
ARM GAS  /tmp/ccJTnjvt.s 			page 32


 891              	.LVL72:
 892              	.L86:
 660:Drivers/STM32L0xx_HAL_Driver/Src/stm32l0xx_hal_rcc_ex.c ****         {
 893              		.loc 1 660 9 is_stmt 1 view .LVU263
 660:Drivers/STM32L0xx_HAL_Driver/Src/stm32l0xx_hal_rcc_ex.c ****         {
 894              		.loc 1 660 13 is_stmt 0 view .LVU264
 895 018a 0F4B     		ldr	r3, .L88
 896 018c 1B68     		ldr	r3, [r3]
 897 018e 0422     		movs	r2, #4
 898 0190 1000     		movs	r0, r2
 899              	.LVL73:
 660:Drivers/STM32L0xx_HAL_Driver/Src/stm32l0xx_hal_rcc_ex.c ****         {
 900              		.loc 1 660 13 view .LVU265
 901 0192 1840     		ands	r0, r3
 660:Drivers/STM32L0xx_HAL_Driver/Src/stm32l0xx_hal_rcc_ex.c ****         {
 902              		.loc 1 660 12 view .LVU266
 903 0194 1A42     		tst	r2, r3
 904 0196 00D1     		bne	.LCB833
 905 0198 56E7     		b	.L42	@long jump
 906              	.LCB833:
 662:Drivers/STM32L0xx_HAL_Driver/Src/stm32l0xx_hal_rcc_ex.c ****           {
 907              		.loc 1 662 11 is_stmt 1 view .LVU267
 662:Drivers/STM32L0xx_HAL_Driver/Src/stm32l0xx_hal_rcc_ex.c ****           {
 908              		.loc 1 662 15 is_stmt 0 view .LVU268
 909 019a 0B4B     		ldr	r3, .L88
 910 019c 1B68     		ldr	r3, [r3]
 662:Drivers/STM32L0xx_HAL_Driver/Src/stm32l0xx_hal_rcc_ex.c ****           {
 911              		.loc 1 662 14 view .LVU269
 912 019e DB06     		lsls	r3, r3, #27
 913 01a0 10D5     		bpl	.L71
 664:Drivers/STM32L0xx_HAL_Driver/Src/stm32l0xx_hal_rcc_ex.c ****           }
 914              		.loc 1 664 23 view .LVU270
 915 01a2 0C48     		ldr	r0, .L88+12
 916 01a4 50E7     		b	.L42
 917              	.LVL74:
 918              	.L87:
 675:Drivers/STM32L0xx_HAL_Driver/Src/stm32l0xx_hal_rcc_ex.c ****       }
 919              		.loc 1 675 9 is_stmt 1 view .LVU271
 675:Drivers/STM32L0xx_HAL_Driver/Src/stm32l0xx_hal_rcc_ex.c ****       }
 920              		.loc 1 675 21 is_stmt 0 view .LVU272
 921 01a6 FFF7FEFF 		bl	HAL_RCC_GetSysClockFreq
 922              	.LVL75:
 675:Drivers/STM32L0xx_HAL_Driver/Src/stm32l0xx_hal_rcc_ex.c ****       }
 923              		.loc 1 675 21 view .LVU273
 924 01aa 4DE7     		b	.L42
 925              	.LVL76:
 926              	.L58:
 393:Drivers/STM32L0xx_HAL_Driver/Src/stm32l0xx_hal_rcc_ex.c ****   {
 927              		.loc 1 393 3 view .LVU274
 928 01ac 0020     		movs	r0, #0
 929              	.LVL77:
 393:Drivers/STM32L0xx_HAL_Driver/Src/stm32l0xx_hal_rcc_ex.c ****   {
 930              		.loc 1 393 3 view .LVU275
 931 01ae 4BE7     		b	.L42
 932              	.LVL78:
 933              	.L62:
 436:Drivers/STM32L0xx_HAL_Driver/Src/stm32l0xx_hal_rcc_ex.c ****               break;
ARM GAS  /tmp/ccJTnjvt.s 			page 33


 934              		.loc 1 436 25 view .LVU276
 935 01b0 0948     		ldr	r0, .L88+16
 936 01b2 49E7     		b	.L42
 937              	.L63:
 938 01b4 0948     		ldr	r0, .L88+20
 939 01b6 47E7     		b	.L42
 940              	.L64:
 446:Drivers/STM32L0xx_HAL_Driver/Src/stm32l0xx_hal_rcc_ex.c ****               break;
 941              		.loc 1 446 25 view .LVU277
 942 01b8 0648     		ldr	r0, .L88+12
 943 01ba 45E7     		b	.L42
 944              	.LVL79:
 945              	.L65:
 578:Drivers/STM32L0xx_HAL_Driver/Src/stm32l0xx_hal_rcc_ex.c ****           }
 946              		.loc 1 578 23 view .LVU278
 947 01bc 0848     		ldr	r0, .L88+24
 948 01be 43E7     		b	.L42
 949              	.L68:
 623:Drivers/STM32L0xx_HAL_Driver/Src/stm32l0xx_hal_rcc_ex.c ****           }
 950              		.loc 1 623 23 view .LVU279
 951 01c0 0748     		ldr	r0, .L88+24
 952 01c2 41E7     		b	.L42
 953              	.L71:
 668:Drivers/STM32L0xx_HAL_Driver/Src/stm32l0xx_hal_rcc_ex.c ****           }
 954              		.loc 1 668 23 view .LVU280
 955 01c4 0648     		ldr	r0, .L88+24
 956 01c6 3FE7     		b	.L42
 957              	.L89:
 958              		.align	2
 959              	.L88:
 960 01c8 00100240 		.word	1073876992
 961 01cc 88900000 		.word	37000
 962 01d0 80841E00 		.word	2000000
 963 01d4 00093D00 		.word	4000000
 964 01d8 40420F00 		.word	1000000
 965 01dc 20A10700 		.word	500000
 966 01e0 0024F400 		.word	16000000
 967              		.cfi_endproc
 968              	.LFE42:
 970              		.section	.text.HAL_RCCEx_EnableLSECSS,"ax",%progbits
 971              		.align	1
 972              		.global	HAL_RCCEx_EnableLSECSS
 973              		.syntax unified
 974              		.code	16
 975              		.thumb_func
 977              	HAL_RCCEx_EnableLSECSS:
 978              	.LFB43:
 747:Drivers/STM32L0xx_HAL_Driver/Src/stm32l0xx_hal_rcc_ex.c **** 
 748:Drivers/STM32L0xx_HAL_Driver/Src/stm32l0xx_hal_rcc_ex.c **** /**
 749:Drivers/STM32L0xx_HAL_Driver/Src/stm32l0xx_hal_rcc_ex.c ****   * @brief  Enables the LSE Clock Security System.
 750:Drivers/STM32L0xx_HAL_Driver/Src/stm32l0xx_hal_rcc_ex.c ****   * @retval None
 751:Drivers/STM32L0xx_HAL_Driver/Src/stm32l0xx_hal_rcc_ex.c ****   */
 752:Drivers/STM32L0xx_HAL_Driver/Src/stm32l0xx_hal_rcc_ex.c **** void HAL_RCCEx_EnableLSECSS(void)
 753:Drivers/STM32L0xx_HAL_Driver/Src/stm32l0xx_hal_rcc_ex.c **** {
 979              		.loc 1 753 1 is_stmt 1 view -0
 980              		.cfi_startproc
 981              		@ args = 0, pretend = 0, frame = 0
ARM GAS  /tmp/ccJTnjvt.s 			page 34


 982              		@ frame_needed = 0, uses_anonymous_args = 0
 983              		@ link register save eliminated.
 754:Drivers/STM32L0xx_HAL_Driver/Src/stm32l0xx_hal_rcc_ex.c ****   SET_BIT(RCC->CSR, RCC_CSR_LSECSSON) ;
 984              		.loc 1 754 3 view .LVU282
 985 0000 034A     		ldr	r2, .L91
 986 0002 116D     		ldr	r1, [r2, #80]
 987 0004 8023     		movs	r3, #128
 988 0006 9B01     		lsls	r3, r3, #6
 989 0008 0B43     		orrs	r3, r1
 990 000a 1365     		str	r3, [r2, #80]
 755:Drivers/STM32L0xx_HAL_Driver/Src/stm32l0xx_hal_rcc_ex.c **** }
 991              		.loc 1 755 1 is_stmt 0 view .LVU283
 992              		@ sp needed
 993 000c 7047     		bx	lr
 994              	.L92:
 995 000e C046     		.align	2
 996              	.L91:
 997 0010 00100240 		.word	1073876992
 998              		.cfi_endproc
 999              	.LFE43:
 1001              		.section	.text.HAL_RCCEx_DisableLSECSS,"ax",%progbits
 1002              		.align	1
 1003              		.global	HAL_RCCEx_DisableLSECSS
 1004              		.syntax unified
 1005              		.code	16
 1006              		.thumb_func
 1008              	HAL_RCCEx_DisableLSECSS:
 1009              	.LFB44:
 756:Drivers/STM32L0xx_HAL_Driver/Src/stm32l0xx_hal_rcc_ex.c **** 
 757:Drivers/STM32L0xx_HAL_Driver/Src/stm32l0xx_hal_rcc_ex.c **** /**
 758:Drivers/STM32L0xx_HAL_Driver/Src/stm32l0xx_hal_rcc_ex.c ****   * @brief  Disables the LSE Clock Security System.
 759:Drivers/STM32L0xx_HAL_Driver/Src/stm32l0xx_hal_rcc_ex.c ****   * @note   Once enabled this bit cannot be disabled, except after an LSE failure detection
 760:Drivers/STM32L0xx_HAL_Driver/Src/stm32l0xx_hal_rcc_ex.c ****   *         (LSECSSD=1). In that case the software MUST disable the LSECSSON bit.
 761:Drivers/STM32L0xx_HAL_Driver/Src/stm32l0xx_hal_rcc_ex.c ****   *         Reset by power on reset and RTC software reset (RTCRST bit).
 762:Drivers/STM32L0xx_HAL_Driver/Src/stm32l0xx_hal_rcc_ex.c ****   * @retval None
 763:Drivers/STM32L0xx_HAL_Driver/Src/stm32l0xx_hal_rcc_ex.c ****   */
 764:Drivers/STM32L0xx_HAL_Driver/Src/stm32l0xx_hal_rcc_ex.c **** void HAL_RCCEx_DisableLSECSS(void)
 765:Drivers/STM32L0xx_HAL_Driver/Src/stm32l0xx_hal_rcc_ex.c **** {
 1010              		.loc 1 765 1 is_stmt 1 view -0
 1011              		.cfi_startproc
 1012              		@ args = 0, pretend = 0, frame = 0
 1013              		@ frame_needed = 0, uses_anonymous_args = 0
 1014              		@ link register save eliminated.
 766:Drivers/STM32L0xx_HAL_Driver/Src/stm32l0xx_hal_rcc_ex.c ****   /* Disable LSE CSS */
 767:Drivers/STM32L0xx_HAL_Driver/Src/stm32l0xx_hal_rcc_ex.c ****    CLEAR_BIT(RCC->CSR, RCC_CSR_LSECSSON) ;
 1015              		.loc 1 767 4 view .LVU285
 1016 0000 044B     		ldr	r3, .L94
 1017 0002 1A6D     		ldr	r2, [r3, #80]
 1018 0004 0449     		ldr	r1, .L94+4
 1019 0006 0A40     		ands	r2, r1
 1020 0008 1A65     		str	r2, [r3, #80]
 768:Drivers/STM32L0xx_HAL_Driver/Src/stm32l0xx_hal_rcc_ex.c **** 
 769:Drivers/STM32L0xx_HAL_Driver/Src/stm32l0xx_hal_rcc_ex.c ****   /* Disable LSE CSS IT */
 770:Drivers/STM32L0xx_HAL_Driver/Src/stm32l0xx_hal_rcc_ex.c ****   __HAL_RCC_DISABLE_IT(RCC_IT_LSECSS);
 1021              		.loc 1 770 3 view .LVU286
 1022 000a 1A69     		ldr	r2, [r3, #16]
 1023 000c 8021     		movs	r1, #128
ARM GAS  /tmp/ccJTnjvt.s 			page 35


 1024 000e 8A43     		bics	r2, r1
 1025 0010 1A61     		str	r2, [r3, #16]
 771:Drivers/STM32L0xx_HAL_Driver/Src/stm32l0xx_hal_rcc_ex.c **** }
 1026              		.loc 1 771 1 is_stmt 0 view .LVU287
 1027              		@ sp needed
 1028 0012 7047     		bx	lr
 1029              	.L95:
 1030              		.align	2
 1031              	.L94:
 1032 0014 00100240 		.word	1073876992
 1033 0018 FFDFFFFF 		.word	-8193
 1034              		.cfi_endproc
 1035              	.LFE44:
 1037              		.section	.text.HAL_RCCEx_EnableLSECSS_IT,"ax",%progbits
 1038              		.align	1
 1039              		.global	HAL_RCCEx_EnableLSECSS_IT
 1040              		.syntax unified
 1041              		.code	16
 1042              		.thumb_func
 1044              	HAL_RCCEx_EnableLSECSS_IT:
 1045              	.LFB45:
 772:Drivers/STM32L0xx_HAL_Driver/Src/stm32l0xx_hal_rcc_ex.c **** 
 773:Drivers/STM32L0xx_HAL_Driver/Src/stm32l0xx_hal_rcc_ex.c **** /**
 774:Drivers/STM32L0xx_HAL_Driver/Src/stm32l0xx_hal_rcc_ex.c ****   * @brief  Enable the LSE Clock Security System IT & corresponding EXTI line.
 775:Drivers/STM32L0xx_HAL_Driver/Src/stm32l0xx_hal_rcc_ex.c ****   * @note   LSE Clock Security System IT is mapped on RTC EXTI line 19
 776:Drivers/STM32L0xx_HAL_Driver/Src/stm32l0xx_hal_rcc_ex.c ****   * @retval None
 777:Drivers/STM32L0xx_HAL_Driver/Src/stm32l0xx_hal_rcc_ex.c ****   */
 778:Drivers/STM32L0xx_HAL_Driver/Src/stm32l0xx_hal_rcc_ex.c **** void HAL_RCCEx_EnableLSECSS_IT(void)
 779:Drivers/STM32L0xx_HAL_Driver/Src/stm32l0xx_hal_rcc_ex.c **** {
 1046              		.loc 1 779 1 is_stmt 1 view -0
 1047              		.cfi_startproc
 1048              		@ args = 0, pretend = 0, frame = 0
 1049              		@ frame_needed = 0, uses_anonymous_args = 0
 1050              		@ link register save eliminated.
 780:Drivers/STM32L0xx_HAL_Driver/Src/stm32l0xx_hal_rcc_ex.c ****   /* Enable LSE CSS */
 781:Drivers/STM32L0xx_HAL_Driver/Src/stm32l0xx_hal_rcc_ex.c ****    SET_BIT(RCC->CSR, RCC_CSR_LSECSSON) ;
 1051              		.loc 1 781 4 view .LVU289
 1052 0000 094B     		ldr	r3, .L97
 1053 0002 196D     		ldr	r1, [r3, #80]
 1054 0004 8022     		movs	r2, #128
 1055 0006 9201     		lsls	r2, r2, #6
 1056 0008 0A43     		orrs	r2, r1
 1057 000a 1A65     		str	r2, [r3, #80]
 782:Drivers/STM32L0xx_HAL_Driver/Src/stm32l0xx_hal_rcc_ex.c **** 
 783:Drivers/STM32L0xx_HAL_Driver/Src/stm32l0xx_hal_rcc_ex.c ****   /* Enable LSE CSS IT */
 784:Drivers/STM32L0xx_HAL_Driver/Src/stm32l0xx_hal_rcc_ex.c ****   __HAL_RCC_ENABLE_IT(RCC_IT_LSECSS);
 1058              		.loc 1 784 3 view .LVU290
 1059 000c 1A69     		ldr	r2, [r3, #16]
 1060 000e 8021     		movs	r1, #128
 1061 0010 0A43     		orrs	r2, r1
 1062 0012 1A61     		str	r2, [r3, #16]
 785:Drivers/STM32L0xx_HAL_Driver/Src/stm32l0xx_hal_rcc_ex.c **** 
 786:Drivers/STM32L0xx_HAL_Driver/Src/stm32l0xx_hal_rcc_ex.c ****   /* Enable IT on EXTI Line 19 */
 787:Drivers/STM32L0xx_HAL_Driver/Src/stm32l0xx_hal_rcc_ex.c ****   __HAL_RCC_LSECSS_EXTI_ENABLE_IT();
 1063              		.loc 1 787 3 view .LVU291
 1064 0014 054B     		ldr	r3, .L97+4
 1065 0016 1968     		ldr	r1, [r3]
ARM GAS  /tmp/ccJTnjvt.s 			page 36


 1066 0018 8022     		movs	r2, #128
 1067 001a 1203     		lsls	r2, r2, #12
 1068 001c 1143     		orrs	r1, r2
 1069 001e 1960     		str	r1, [r3]
 788:Drivers/STM32L0xx_HAL_Driver/Src/stm32l0xx_hal_rcc_ex.c ****   __HAL_RCC_LSECSS_EXTI_ENABLE_RISING_EDGE();
 1070              		.loc 1 788 3 view .LVU292
 1071 0020 9968     		ldr	r1, [r3, #8]
 1072 0022 0A43     		orrs	r2, r1
 1073 0024 9A60     		str	r2, [r3, #8]
 789:Drivers/STM32L0xx_HAL_Driver/Src/stm32l0xx_hal_rcc_ex.c **** }
 1074              		.loc 1 789 1 is_stmt 0 view .LVU293
 1075              		@ sp needed
 1076 0026 7047     		bx	lr
 1077              	.L98:
 1078              		.align	2
 1079              	.L97:
 1080 0028 00100240 		.word	1073876992
 1081 002c 00040140 		.word	1073808384
 1082              		.cfi_endproc
 1083              	.LFE45:
 1085              		.section	.text.HAL_RCCEx_LSECSS_Callback,"ax",%progbits
 1086              		.align	1
 1087              		.weak	HAL_RCCEx_LSECSS_Callback
 1088              		.syntax unified
 1089              		.code	16
 1090              		.thumb_func
 1092              	HAL_RCCEx_LSECSS_Callback:
 1093              	.LFB47:
 790:Drivers/STM32L0xx_HAL_Driver/Src/stm32l0xx_hal_rcc_ex.c **** 
 791:Drivers/STM32L0xx_HAL_Driver/Src/stm32l0xx_hal_rcc_ex.c **** /**
 792:Drivers/STM32L0xx_HAL_Driver/Src/stm32l0xx_hal_rcc_ex.c ****   * @brief Handle the RCC LSE Clock Security System interrupt request.
 793:Drivers/STM32L0xx_HAL_Driver/Src/stm32l0xx_hal_rcc_ex.c ****   * @retval None
 794:Drivers/STM32L0xx_HAL_Driver/Src/stm32l0xx_hal_rcc_ex.c ****   */
 795:Drivers/STM32L0xx_HAL_Driver/Src/stm32l0xx_hal_rcc_ex.c **** void HAL_RCCEx_LSECSS_IRQHandler(void)
 796:Drivers/STM32L0xx_HAL_Driver/Src/stm32l0xx_hal_rcc_ex.c **** {
 797:Drivers/STM32L0xx_HAL_Driver/Src/stm32l0xx_hal_rcc_ex.c ****   /* Check RCC LSE CSSF flag  */
 798:Drivers/STM32L0xx_HAL_Driver/Src/stm32l0xx_hal_rcc_ex.c ****   if(__HAL_RCC_GET_IT(RCC_IT_LSECSS))
 799:Drivers/STM32L0xx_HAL_Driver/Src/stm32l0xx_hal_rcc_ex.c ****   {
 800:Drivers/STM32L0xx_HAL_Driver/Src/stm32l0xx_hal_rcc_ex.c ****     /* RCC LSE Clock Security System interrupt user callback */
 801:Drivers/STM32L0xx_HAL_Driver/Src/stm32l0xx_hal_rcc_ex.c ****     HAL_RCCEx_LSECSS_Callback();
 802:Drivers/STM32L0xx_HAL_Driver/Src/stm32l0xx_hal_rcc_ex.c **** 
 803:Drivers/STM32L0xx_HAL_Driver/Src/stm32l0xx_hal_rcc_ex.c ****     /* Clear RCC LSE CSS pending bit */
 804:Drivers/STM32L0xx_HAL_Driver/Src/stm32l0xx_hal_rcc_ex.c ****     __HAL_RCC_CLEAR_IT(RCC_IT_LSECSS);
 805:Drivers/STM32L0xx_HAL_Driver/Src/stm32l0xx_hal_rcc_ex.c ****   }
 806:Drivers/STM32L0xx_HAL_Driver/Src/stm32l0xx_hal_rcc_ex.c **** }
 807:Drivers/STM32L0xx_HAL_Driver/Src/stm32l0xx_hal_rcc_ex.c **** 
 808:Drivers/STM32L0xx_HAL_Driver/Src/stm32l0xx_hal_rcc_ex.c **** /**
 809:Drivers/STM32L0xx_HAL_Driver/Src/stm32l0xx_hal_rcc_ex.c ****   * @brief  RCCEx LSE Clock Security System interrupt callback.
 810:Drivers/STM32L0xx_HAL_Driver/Src/stm32l0xx_hal_rcc_ex.c ****   * @retval none
 811:Drivers/STM32L0xx_HAL_Driver/Src/stm32l0xx_hal_rcc_ex.c ****   */
 812:Drivers/STM32L0xx_HAL_Driver/Src/stm32l0xx_hal_rcc_ex.c **** __weak void HAL_RCCEx_LSECSS_Callback(void)
 813:Drivers/STM32L0xx_HAL_Driver/Src/stm32l0xx_hal_rcc_ex.c **** {
 1094              		.loc 1 813 1 is_stmt 1 view -0
 1095              		.cfi_startproc
 1096              		@ args = 0, pretend = 0, frame = 0
 1097              		@ frame_needed = 0, uses_anonymous_args = 0
 1098              		@ link register save eliminated.
ARM GAS  /tmp/ccJTnjvt.s 			page 37


 814:Drivers/STM32L0xx_HAL_Driver/Src/stm32l0xx_hal_rcc_ex.c ****   /* NOTE : This function should not be modified, when the callback is needed,
 815:Drivers/STM32L0xx_HAL_Driver/Src/stm32l0xx_hal_rcc_ex.c ****             the @ref HAL_RCCEx_LSECSS_Callback should be implemented in the user file
 816:Drivers/STM32L0xx_HAL_Driver/Src/stm32l0xx_hal_rcc_ex.c ****    */
 817:Drivers/STM32L0xx_HAL_Driver/Src/stm32l0xx_hal_rcc_ex.c **** }
 1099              		.loc 1 817 1 view .LVU295
 1100              		@ sp needed
 1101 0000 7047     		bx	lr
 1102              		.cfi_endproc
 1103              	.LFE47:
 1105              		.section	.text.HAL_RCCEx_LSECSS_IRQHandler,"ax",%progbits
 1106              		.align	1
 1107              		.global	HAL_RCCEx_LSECSS_IRQHandler
 1108              		.syntax unified
 1109              		.code	16
 1110              		.thumb_func
 1112              	HAL_RCCEx_LSECSS_IRQHandler:
 1113              	.LFB46:
 796:Drivers/STM32L0xx_HAL_Driver/Src/stm32l0xx_hal_rcc_ex.c ****   /* Check RCC LSE CSSF flag  */
 1114              		.loc 1 796 1 view -0
 1115              		.cfi_startproc
 1116              		@ args = 0, pretend = 0, frame = 0
 1117              		@ frame_needed = 0, uses_anonymous_args = 0
 1118 0000 10B5     		push	{r4, lr}
 1119              		.cfi_def_cfa_offset 8
 1120              		.cfi_offset 4, -8
 1121              		.cfi_offset 14, -4
 798:Drivers/STM32L0xx_HAL_Driver/Src/stm32l0xx_hal_rcc_ex.c ****   {
 1122              		.loc 1 798 3 view .LVU297
 798:Drivers/STM32L0xx_HAL_Driver/Src/stm32l0xx_hal_rcc_ex.c ****   {
 1123              		.loc 1 798 6 is_stmt 0 view .LVU298
 1124 0002 054B     		ldr	r3, .L104
 1125 0004 5B69     		ldr	r3, [r3, #20]
 798:Drivers/STM32L0xx_HAL_Driver/Src/stm32l0xx_hal_rcc_ex.c ****   {
 1126              		.loc 1 798 5 view .LVU299
 1127 0006 1B06     		lsls	r3, r3, #24
 1128 0008 00D4     		bmi	.L103
 1129              	.L100:
 806:Drivers/STM32L0xx_HAL_Driver/Src/stm32l0xx_hal_rcc_ex.c **** 
 1130              		.loc 1 806 1 view .LVU300
 1131              		@ sp needed
 1132 000a 10BD     		pop	{r4, pc}
 1133              	.L103:
 801:Drivers/STM32L0xx_HAL_Driver/Src/stm32l0xx_hal_rcc_ex.c **** 
 1134              		.loc 1 801 5 is_stmt 1 view .LVU301
 1135 000c FFF7FEFF 		bl	HAL_RCCEx_LSECSS_Callback
 1136              	.LVL80:
 804:Drivers/STM32L0xx_HAL_Driver/Src/stm32l0xx_hal_rcc_ex.c ****   }
 1137              		.loc 1 804 5 view .LVU302
 1138 0010 014B     		ldr	r3, .L104
 1139 0012 8022     		movs	r2, #128
 1140 0014 9A61     		str	r2, [r3, #24]
 806:Drivers/STM32L0xx_HAL_Driver/Src/stm32l0xx_hal_rcc_ex.c **** 
 1141              		.loc 1 806 1 is_stmt 0 view .LVU303
 1142 0016 F8E7     		b	.L100
 1143              	.L105:
 1144              		.align	2
 1145              	.L104:
ARM GAS  /tmp/ccJTnjvt.s 			page 38


 1146 0018 00100240 		.word	1073876992
 1147              		.cfi_endproc
 1148              	.LFE46:
 1150              		.text
 1151              	.Letext0:
 1152              		.file 2 "/usr/arm-none-eabi/include/machine/_default_types.h"
 1153              		.file 3 "/usr/arm-none-eabi/include/sys/_stdint.h"
 1154              		.file 4 "Drivers/CMSIS/Device/ST/STM32L0xx/Include/stm32l031xx.h"
 1155              		.file 5 "Drivers/CMSIS/Device/ST/STM32L0xx/Include/stm32l0xx.h"
 1156              		.file 6 "Drivers/STM32L0xx_HAL_Driver/Inc/stm32l0xx_hal_def.h"
 1157              		.file 7 "Drivers/STM32L0xx_HAL_Driver/Inc/stm32l0xx_hal_rcc_ex.h"
 1158              		.file 8 "Drivers/STM32L0xx_HAL_Driver/Inc/stm32l0xx_hal_rcc.h"
 1159              		.file 9 "Drivers/STM32L0xx_HAL_Driver/Inc/stm32l0xx_hal.h"
ARM GAS  /tmp/ccJTnjvt.s 			page 39

